ARM GAS  /tmp/ccQYM1B7.s 			page 1


   1              		.cpu cortex-m4
   2              		.eabi_attribute 27, 1
   3              		.eabi_attribute 28, 1
   4              		.eabi_attribute 20, 1
   5              		.eabi_attribute 21, 1
   6              		.eabi_attribute 23, 3
   7              		.eabi_attribute 24, 1
   8              		.eabi_attribute 25, 1
   9              		.eabi_attribute 26, 1
  10              		.eabi_attribute 30, 1
  11              		.eabi_attribute 34, 1
  12              		.eabi_attribute 18, 4
  13              		.file	"mcb.c"
  14              		.text
  15              	.Ltext0:
  16              		.cfi_sections	.debug_frame
  17              		.section	.text.mcb_dspace_time_and_date_pack,"ax",%progbits
  18              		.align	1
  19              		.global	mcb_dspace_time_and_date_pack
  20              		.arch armv7e-m
  21              		.syntax unified
  22              		.thumb
  23              		.thumb_func
  24              		.fpu fpv4-sp-d16
  26              	mcb_dspace_time_and_date_pack:
  27              	.LVL0:
  28              	.LFB16:
  29              		.file 1 "SCan/SC24/artifacts/MCB/c_source/Src/mcb.c"
   1:SCan/SC24/artifacts/MCB/c_source/Src/mcb.c **** /**
   2:SCan/SC24/artifacts/MCB/c_source/Src/mcb.c ****  * The MIT License (MIT)
   3:SCan/SC24/artifacts/MCB/c_source/Src/mcb.c ****  *
   4:SCan/SC24/artifacts/MCB/c_source/Src/mcb.c ****  * Copyright (c) 2018-2019 Erik Moqvist
   5:SCan/SC24/artifacts/MCB/c_source/Src/mcb.c ****  *
   6:SCan/SC24/artifacts/MCB/c_source/Src/mcb.c ****  * Permission is hereby granted, free of charge, to any person
   7:SCan/SC24/artifacts/MCB/c_source/Src/mcb.c ****  * obtaining a copy of this software and associated documentation
   8:SCan/SC24/artifacts/MCB/c_source/Src/mcb.c ****  * files (the "Software"), to deal in the Software without
   9:SCan/SC24/artifacts/MCB/c_source/Src/mcb.c ****  * restriction, including without limitation the rights to use, copy,
  10:SCan/SC24/artifacts/MCB/c_source/Src/mcb.c ****  * modify, merge, publish, distribute, sublicense, and/or sell copies
  11:SCan/SC24/artifacts/MCB/c_source/Src/mcb.c ****  * of the Software, and to permit persons to whom the Software is
  12:SCan/SC24/artifacts/MCB/c_source/Src/mcb.c ****  * furnished to do so, subject to the following conditions:
  13:SCan/SC24/artifacts/MCB/c_source/Src/mcb.c ****  *
  14:SCan/SC24/artifacts/MCB/c_source/Src/mcb.c ****  * The above copyright notice and this permission notice shall be
  15:SCan/SC24/artifacts/MCB/c_source/Src/mcb.c ****  * included in all copies or substantial portions of the Software.
  16:SCan/SC24/artifacts/MCB/c_source/Src/mcb.c ****  *
  17:SCan/SC24/artifacts/MCB/c_source/Src/mcb.c ****  * THE SOFTWARE IS PROVIDED "AS IS", WITHOUT WARRANTY OF ANY KIND,
  18:SCan/SC24/artifacts/MCB/c_source/Src/mcb.c ****  * EXPRESS OR IMPLIED, INCLUDING BUT NOT LIMITED TO THE WARRANTIES OF
  19:SCan/SC24/artifacts/MCB/c_source/Src/mcb.c ****  * MERCHANTABILITY, FITNESS FOR A PARTICULAR PURPOSE AND
  20:SCan/SC24/artifacts/MCB/c_source/Src/mcb.c ****  * NONINFRINGEMENT. IN NO EVENT SHALL THE AUTHORS OR COPYRIGHT HOLDERS
  21:SCan/SC24/artifacts/MCB/c_source/Src/mcb.c ****  * BE LIABLE FOR ANY CLAIM, DAMAGES OR OTHER LIABILITY, WHETHER IN AN
  22:SCan/SC24/artifacts/MCB/c_source/Src/mcb.c ****  * ACTION OF CONTRACT, TORT OR OTHERWISE, ARISING FROM, OUT OF OR IN
  23:SCan/SC24/artifacts/MCB/c_source/Src/mcb.c ****  * CONNECTION WITH THE SOFTWARE OR THE USE OR OTHER DEALINGS IN THE
  24:SCan/SC24/artifacts/MCB/c_source/Src/mcb.c ****  * SOFTWARE.
  25:SCan/SC24/artifacts/MCB/c_source/Src/mcb.c ****  */
  26:SCan/SC24/artifacts/MCB/c_source/Src/mcb.c **** 
  27:SCan/SC24/artifacts/MCB/c_source/Src/mcb.c **** /**
  28:SCan/SC24/artifacts/MCB/c_source/Src/mcb.c ****  * This file was generated by cantools version 39.4.5 Mon Sep  2 11:07:17 2024.
  29:SCan/SC24/artifacts/MCB/c_source/Src/mcb.c ****  */
ARM GAS  /tmp/ccQYM1B7.s 			page 2


  30:SCan/SC24/artifacts/MCB/c_source/Src/mcb.c **** 
  31:SCan/SC24/artifacts/MCB/c_source/Src/mcb.c **** #include <string.h>
  32:SCan/SC24/artifacts/MCB/c_source/Src/mcb.c **** 
  33:SCan/SC24/artifacts/MCB/c_source/Src/mcb.c **** #include "mcb.h"
  34:SCan/SC24/artifacts/MCB/c_source/Src/mcb.c **** 
  35:SCan/SC24/artifacts/MCB/c_source/Src/mcb.c **** static inline uint8_t pack_left_shift_u8(
  36:SCan/SC24/artifacts/MCB/c_source/Src/mcb.c ****     uint8_t value,
  37:SCan/SC24/artifacts/MCB/c_source/Src/mcb.c ****     uint8_t shift,
  38:SCan/SC24/artifacts/MCB/c_source/Src/mcb.c ****     uint8_t mask)
  39:SCan/SC24/artifacts/MCB/c_source/Src/mcb.c **** {
  40:SCan/SC24/artifacts/MCB/c_source/Src/mcb.c ****     return (uint8_t)((uint8_t)(value << shift) & mask);
  41:SCan/SC24/artifacts/MCB/c_source/Src/mcb.c **** }
  42:SCan/SC24/artifacts/MCB/c_source/Src/mcb.c **** 
  43:SCan/SC24/artifacts/MCB/c_source/Src/mcb.c **** static inline uint8_t pack_left_shift_u16(
  44:SCan/SC24/artifacts/MCB/c_source/Src/mcb.c ****     uint16_t value,
  45:SCan/SC24/artifacts/MCB/c_source/Src/mcb.c ****     uint8_t shift,
  46:SCan/SC24/artifacts/MCB/c_source/Src/mcb.c ****     uint8_t mask)
  47:SCan/SC24/artifacts/MCB/c_source/Src/mcb.c **** {
  48:SCan/SC24/artifacts/MCB/c_source/Src/mcb.c ****     return (uint8_t)((uint8_t)(value << shift) & mask);
  49:SCan/SC24/artifacts/MCB/c_source/Src/mcb.c **** }
  50:SCan/SC24/artifacts/MCB/c_source/Src/mcb.c **** 
  51:SCan/SC24/artifacts/MCB/c_source/Src/mcb.c **** static inline uint8_t pack_left_shift_u32(
  52:SCan/SC24/artifacts/MCB/c_source/Src/mcb.c ****     uint32_t value,
  53:SCan/SC24/artifacts/MCB/c_source/Src/mcb.c ****     uint8_t shift,
  54:SCan/SC24/artifacts/MCB/c_source/Src/mcb.c ****     uint8_t mask)
  55:SCan/SC24/artifacts/MCB/c_source/Src/mcb.c **** {
  56:SCan/SC24/artifacts/MCB/c_source/Src/mcb.c ****     return (uint8_t)((uint8_t)(value << shift) & mask);
  57:SCan/SC24/artifacts/MCB/c_source/Src/mcb.c **** }
  58:SCan/SC24/artifacts/MCB/c_source/Src/mcb.c **** 
  59:SCan/SC24/artifacts/MCB/c_source/Src/mcb.c **** static inline uint8_t pack_left_shift_u64(
  60:SCan/SC24/artifacts/MCB/c_source/Src/mcb.c ****     uint64_t value,
  61:SCan/SC24/artifacts/MCB/c_source/Src/mcb.c ****     uint8_t shift,
  62:SCan/SC24/artifacts/MCB/c_source/Src/mcb.c ****     uint8_t mask)
  63:SCan/SC24/artifacts/MCB/c_source/Src/mcb.c **** {
  64:SCan/SC24/artifacts/MCB/c_source/Src/mcb.c ****     return (uint8_t)((uint8_t)(value << shift) & mask);
  65:SCan/SC24/artifacts/MCB/c_source/Src/mcb.c **** }
  66:SCan/SC24/artifacts/MCB/c_source/Src/mcb.c **** 
  67:SCan/SC24/artifacts/MCB/c_source/Src/mcb.c **** static inline uint8_t pack_right_shift_u8(
  68:SCan/SC24/artifacts/MCB/c_source/Src/mcb.c ****     uint8_t value,
  69:SCan/SC24/artifacts/MCB/c_source/Src/mcb.c ****     uint8_t shift,
  70:SCan/SC24/artifacts/MCB/c_source/Src/mcb.c ****     uint8_t mask)
  71:SCan/SC24/artifacts/MCB/c_source/Src/mcb.c **** {
  72:SCan/SC24/artifacts/MCB/c_source/Src/mcb.c ****     return (uint8_t)((uint8_t)(value >> shift) & mask);
  73:SCan/SC24/artifacts/MCB/c_source/Src/mcb.c **** }
  74:SCan/SC24/artifacts/MCB/c_source/Src/mcb.c **** 
  75:SCan/SC24/artifacts/MCB/c_source/Src/mcb.c **** static inline uint8_t pack_right_shift_u16(
  76:SCan/SC24/artifacts/MCB/c_source/Src/mcb.c ****     uint16_t value,
  77:SCan/SC24/artifacts/MCB/c_source/Src/mcb.c ****     uint8_t shift,
  78:SCan/SC24/artifacts/MCB/c_source/Src/mcb.c ****     uint8_t mask)
  79:SCan/SC24/artifacts/MCB/c_source/Src/mcb.c **** {
  80:SCan/SC24/artifacts/MCB/c_source/Src/mcb.c ****     return (uint8_t)((uint8_t)(value >> shift) & mask);
  81:SCan/SC24/artifacts/MCB/c_source/Src/mcb.c **** }
  82:SCan/SC24/artifacts/MCB/c_source/Src/mcb.c **** 
  83:SCan/SC24/artifacts/MCB/c_source/Src/mcb.c **** static inline uint8_t pack_right_shift_u32(
  84:SCan/SC24/artifacts/MCB/c_source/Src/mcb.c ****     uint32_t value,
  85:SCan/SC24/artifacts/MCB/c_source/Src/mcb.c ****     uint8_t shift,
  86:SCan/SC24/artifacts/MCB/c_source/Src/mcb.c ****     uint8_t mask)
ARM GAS  /tmp/ccQYM1B7.s 			page 3


  87:SCan/SC24/artifacts/MCB/c_source/Src/mcb.c **** {
  88:SCan/SC24/artifacts/MCB/c_source/Src/mcb.c ****     return (uint8_t)((uint8_t)(value >> shift) & mask);
  89:SCan/SC24/artifacts/MCB/c_source/Src/mcb.c **** }
  90:SCan/SC24/artifacts/MCB/c_source/Src/mcb.c **** 
  91:SCan/SC24/artifacts/MCB/c_source/Src/mcb.c **** static inline uint8_t pack_right_shift_u64(
  92:SCan/SC24/artifacts/MCB/c_source/Src/mcb.c ****     uint64_t value,
  93:SCan/SC24/artifacts/MCB/c_source/Src/mcb.c ****     uint8_t shift,
  94:SCan/SC24/artifacts/MCB/c_source/Src/mcb.c ****     uint8_t mask)
  95:SCan/SC24/artifacts/MCB/c_source/Src/mcb.c **** {
  96:SCan/SC24/artifacts/MCB/c_source/Src/mcb.c ****     return (uint8_t)((uint8_t)(value >> shift) & mask);
  97:SCan/SC24/artifacts/MCB/c_source/Src/mcb.c **** }
  98:SCan/SC24/artifacts/MCB/c_source/Src/mcb.c **** 
  99:SCan/SC24/artifacts/MCB/c_source/Src/mcb.c **** static inline uint8_t unpack_left_shift_u8(
 100:SCan/SC24/artifacts/MCB/c_source/Src/mcb.c ****     uint8_t value,
 101:SCan/SC24/artifacts/MCB/c_source/Src/mcb.c ****     uint8_t shift,
 102:SCan/SC24/artifacts/MCB/c_source/Src/mcb.c ****     uint8_t mask)
 103:SCan/SC24/artifacts/MCB/c_source/Src/mcb.c **** {
 104:SCan/SC24/artifacts/MCB/c_source/Src/mcb.c ****     return (uint8_t)((uint8_t)(value & mask) << shift);
 105:SCan/SC24/artifacts/MCB/c_source/Src/mcb.c **** }
 106:SCan/SC24/artifacts/MCB/c_source/Src/mcb.c **** 
 107:SCan/SC24/artifacts/MCB/c_source/Src/mcb.c **** static inline uint16_t unpack_left_shift_u16(
 108:SCan/SC24/artifacts/MCB/c_source/Src/mcb.c ****     uint8_t value,
 109:SCan/SC24/artifacts/MCB/c_source/Src/mcb.c ****     uint8_t shift,
 110:SCan/SC24/artifacts/MCB/c_source/Src/mcb.c ****     uint8_t mask)
 111:SCan/SC24/artifacts/MCB/c_source/Src/mcb.c **** {
 112:SCan/SC24/artifacts/MCB/c_source/Src/mcb.c ****     return (uint16_t)((uint16_t)(value & mask) << shift);
 113:SCan/SC24/artifacts/MCB/c_source/Src/mcb.c **** }
 114:SCan/SC24/artifacts/MCB/c_source/Src/mcb.c **** 
 115:SCan/SC24/artifacts/MCB/c_source/Src/mcb.c **** static inline uint32_t unpack_left_shift_u32(
 116:SCan/SC24/artifacts/MCB/c_source/Src/mcb.c ****     uint8_t value,
 117:SCan/SC24/artifacts/MCB/c_source/Src/mcb.c ****     uint8_t shift,
 118:SCan/SC24/artifacts/MCB/c_source/Src/mcb.c ****     uint8_t mask)
 119:SCan/SC24/artifacts/MCB/c_source/Src/mcb.c **** {
 120:SCan/SC24/artifacts/MCB/c_source/Src/mcb.c ****     return (uint32_t)((uint32_t)(value & mask) << shift);
 121:SCan/SC24/artifacts/MCB/c_source/Src/mcb.c **** }
 122:SCan/SC24/artifacts/MCB/c_source/Src/mcb.c **** 
 123:SCan/SC24/artifacts/MCB/c_source/Src/mcb.c **** static inline uint64_t unpack_left_shift_u64(
 124:SCan/SC24/artifacts/MCB/c_source/Src/mcb.c ****     uint8_t value,
 125:SCan/SC24/artifacts/MCB/c_source/Src/mcb.c ****     uint8_t shift,
 126:SCan/SC24/artifacts/MCB/c_source/Src/mcb.c ****     uint8_t mask)
 127:SCan/SC24/artifacts/MCB/c_source/Src/mcb.c **** {
 128:SCan/SC24/artifacts/MCB/c_source/Src/mcb.c ****     return (uint64_t)((uint64_t)(value & mask) << shift);
 129:SCan/SC24/artifacts/MCB/c_source/Src/mcb.c **** }
 130:SCan/SC24/artifacts/MCB/c_source/Src/mcb.c **** 
 131:SCan/SC24/artifacts/MCB/c_source/Src/mcb.c **** static inline uint8_t unpack_right_shift_u8(
 132:SCan/SC24/artifacts/MCB/c_source/Src/mcb.c ****     uint8_t value,
 133:SCan/SC24/artifacts/MCB/c_source/Src/mcb.c ****     uint8_t shift,
 134:SCan/SC24/artifacts/MCB/c_source/Src/mcb.c ****     uint8_t mask)
 135:SCan/SC24/artifacts/MCB/c_source/Src/mcb.c **** {
 136:SCan/SC24/artifacts/MCB/c_source/Src/mcb.c ****     return (uint8_t)((uint8_t)(value & mask) >> shift);
 137:SCan/SC24/artifacts/MCB/c_source/Src/mcb.c **** }
 138:SCan/SC24/artifacts/MCB/c_source/Src/mcb.c **** 
 139:SCan/SC24/artifacts/MCB/c_source/Src/mcb.c **** static inline uint16_t unpack_right_shift_u16(
 140:SCan/SC24/artifacts/MCB/c_source/Src/mcb.c ****     uint8_t value,
 141:SCan/SC24/artifacts/MCB/c_source/Src/mcb.c ****     uint8_t shift,
 142:SCan/SC24/artifacts/MCB/c_source/Src/mcb.c ****     uint8_t mask)
 143:SCan/SC24/artifacts/MCB/c_source/Src/mcb.c **** {
ARM GAS  /tmp/ccQYM1B7.s 			page 4


 144:SCan/SC24/artifacts/MCB/c_source/Src/mcb.c ****     return (uint16_t)((uint16_t)(value & mask) >> shift);
 145:SCan/SC24/artifacts/MCB/c_source/Src/mcb.c **** }
 146:SCan/SC24/artifacts/MCB/c_source/Src/mcb.c **** 
 147:SCan/SC24/artifacts/MCB/c_source/Src/mcb.c **** static inline uint32_t unpack_right_shift_u32(
 148:SCan/SC24/artifacts/MCB/c_source/Src/mcb.c ****     uint8_t value,
 149:SCan/SC24/artifacts/MCB/c_source/Src/mcb.c ****     uint8_t shift,
 150:SCan/SC24/artifacts/MCB/c_source/Src/mcb.c ****     uint8_t mask)
 151:SCan/SC24/artifacts/MCB/c_source/Src/mcb.c **** {
 152:SCan/SC24/artifacts/MCB/c_source/Src/mcb.c ****     return (uint32_t)((uint32_t)(value & mask) >> shift);
 153:SCan/SC24/artifacts/MCB/c_source/Src/mcb.c **** }
 154:SCan/SC24/artifacts/MCB/c_source/Src/mcb.c **** 
 155:SCan/SC24/artifacts/MCB/c_source/Src/mcb.c **** static inline uint64_t unpack_right_shift_u64(
 156:SCan/SC24/artifacts/MCB/c_source/Src/mcb.c ****     uint8_t value,
 157:SCan/SC24/artifacts/MCB/c_source/Src/mcb.c ****     uint8_t shift,
 158:SCan/SC24/artifacts/MCB/c_source/Src/mcb.c ****     uint8_t mask)
 159:SCan/SC24/artifacts/MCB/c_source/Src/mcb.c **** {
 160:SCan/SC24/artifacts/MCB/c_source/Src/mcb.c ****     return (uint64_t)((uint64_t)(value & mask) >> shift);
 161:SCan/SC24/artifacts/MCB/c_source/Src/mcb.c **** }
 162:SCan/SC24/artifacts/MCB/c_source/Src/mcb.c **** 
 163:SCan/SC24/artifacts/MCB/c_source/Src/mcb.c **** int mcb_dspace_time_and_date_pack(
 164:SCan/SC24/artifacts/MCB/c_source/Src/mcb.c ****     uint8_t *dst_p,
 165:SCan/SC24/artifacts/MCB/c_source/Src/mcb.c ****     const struct mcb_dspace_time_and_date_t *src_p,
 166:SCan/SC24/artifacts/MCB/c_source/Src/mcb.c ****     size_t size)
 167:SCan/SC24/artifacts/MCB/c_source/Src/mcb.c **** {
  30              		.loc 1 167 1 view -0
  31              		.cfi_startproc
  32              		@ args = 0, pretend = 0, frame = 0
  33              		@ frame_needed = 0, uses_anonymous_args = 0
  34              		@ link register save eliminated.
 168:SCan/SC24/artifacts/MCB/c_source/Src/mcb.c ****     if (size < 6u) {
  35              		.loc 1 168 5 view .LVU1
  36              		.loc 1 168 8 is_stmt 0 view .LVU2
  37 0000 052A     		cmp	r2, #5
  38 0002 38D9     		bls	.L3
 169:SCan/SC24/artifacts/MCB/c_source/Src/mcb.c ****         return (-EINVAL);
 170:SCan/SC24/artifacts/MCB/c_source/Src/mcb.c ****     }
 171:SCan/SC24/artifacts/MCB/c_source/Src/mcb.c **** 
 172:SCan/SC24/artifacts/MCB/c_source/Src/mcb.c ****     memset(&dst_p[0], 0, 6);
  39              		.loc 1 172 5 is_stmt 1 view .LVU3
  40 0004 0023     		movs	r3, #0
  41 0006 0360     		str	r3, [r0]	@ unaligned
  42 0008 8380     		strh	r3, [r0, #4]	@ unaligned
 173:SCan/SC24/artifacts/MCB/c_source/Src/mcb.c **** 
 174:SCan/SC24/artifacts/MCB/c_source/Src/mcb.c ****     dst_p[0] |= pack_left_shift_u8(src_p->datetime_year, 0u, 0xffu);
  43              		.loc 1 174 5 view .LVU4
  44              		.loc 1 174 17 is_stmt 0 view .LVU5
  45 000a 0B78     		ldrb	r3, [r1]	@ zero_extendqisi2
  46              	.LVL1:
  40:SCan/SC24/artifacts/MCB/c_source/Src/mcb.c **** }
  47              		.loc 1 40 5 is_stmt 1 view .LVU6
  48              		.loc 1 174 14 is_stmt 0 view .LVU7
  49 000c 0370     		strb	r3, [r0]
 175:SCan/SC24/artifacts/MCB/c_source/Src/mcb.c ****     dst_p[1] |= pack_left_shift_u8(src_p->datetime_month, 0u, 0x0fu);
  50              		.loc 1 175 5 is_stmt 1 view .LVU8
  51              		.loc 1 175 17 is_stmt 0 view .LVU9
  52 000e 4B78     		ldrb	r3, [r1, #1]	@ zero_extendqisi2
  53              	.LVL2:
ARM GAS  /tmp/ccQYM1B7.s 			page 5


  54              	.LBB2026:
  55              	.LBI2026:
  35:SCan/SC24/artifacts/MCB/c_source/Src/mcb.c ****     uint8_t value,
  56              		.loc 1 35 23 is_stmt 1 view .LVU10
  57              	.LBB2027:
  40:SCan/SC24/artifacts/MCB/c_source/Src/mcb.c **** }
  58              		.loc 1 40 5 view .LVU11
  40:SCan/SC24/artifacts/MCB/c_source/Src/mcb.c **** }
  59              		.loc 1 40 12 is_stmt 0 view .LVU12
  60 0010 03F00F02 		and	r2, r3, #15
  61              	.LVL3:
  40:SCan/SC24/artifacts/MCB/c_source/Src/mcb.c **** }
  62              		.loc 1 40 12 view .LVU13
  63              	.LBE2027:
  64              	.LBE2026:
  65              		.loc 1 175 14 view .LVU14
  66 0014 4270     		strb	r2, [r0, #1]
 176:SCan/SC24/artifacts/MCB/c_source/Src/mcb.c ****     dst_p[1] |= pack_left_shift_u8(src_p->datetime_day, 4u, 0xf0u);
  67              		.loc 1 176 5 is_stmt 1 view .LVU15
  68              		.loc 1 176 17 is_stmt 0 view .LVU16
  69 0016 8B78     		ldrb	r3, [r1, #2]	@ zero_extendqisi2
  70              	.LVL4:
  71              	.LBB2028:
  72              	.LBI2028:
  35:SCan/SC24/artifacts/MCB/c_source/Src/mcb.c ****     uint8_t value,
  73              		.loc 1 35 23 is_stmt 1 view .LVU17
  74              	.LBB2029:
  40:SCan/SC24/artifacts/MCB/c_source/Src/mcb.c **** }
  75              		.loc 1 40 5 view .LVU18
  40:SCan/SC24/artifacts/MCB/c_source/Src/mcb.c **** }
  76              		.loc 1 40 38 is_stmt 0 view .LVU19
  77 0018 1B01     		lsls	r3, r3, #4
  78              	.LVL5:
  40:SCan/SC24/artifacts/MCB/c_source/Src/mcb.c **** }
  79              		.loc 1 40 12 view .LVU20
  80 001a 03F0F003 		and	r3, r3, #240
  81              	.LVL6:
  40:SCan/SC24/artifacts/MCB/c_source/Src/mcb.c **** }
  82              		.loc 1 40 12 view .LVU21
  83              	.LBE2029:
  84              	.LBE2028:
  85              		.loc 1 176 14 view .LVU22
  86 001e 1343     		orrs	r3, r3, r2
  87 0020 4370     		strb	r3, [r0, #1]
 177:SCan/SC24/artifacts/MCB/c_source/Src/mcb.c ****     dst_p[2] |= pack_right_shift_u8(src_p->datetime_day, 4u, 0x01u);
  88              		.loc 1 177 5 is_stmt 1 view .LVU23
  89              		.loc 1 177 17 is_stmt 0 view .LVU24
  90 0022 8B78     		ldrb	r3, [r1, #2]	@ zero_extendqisi2
  91              	.LVL7:
  92              	.LBB2030:
  93              	.LBI2030:
  67:SCan/SC24/artifacts/MCB/c_source/Src/mcb.c ****     uint8_t value,
  94              		.loc 1 67 23 is_stmt 1 view .LVU25
  95              	.LBB2031:
  72:SCan/SC24/artifacts/MCB/c_source/Src/mcb.c **** }
  96              		.loc 1 72 5 view .LVU26
  72:SCan/SC24/artifacts/MCB/c_source/Src/mcb.c **** }
ARM GAS  /tmp/ccQYM1B7.s 			page 6


  97              		.loc 1 72 12 is_stmt 0 view .LVU27
  98 0024 C3F30012 		ubfx	r2, r3, #4, #1
  99              	.LVL8:
  72:SCan/SC24/artifacts/MCB/c_source/Src/mcb.c **** }
 100              		.loc 1 72 12 view .LVU28
 101              	.LBE2031:
 102              	.LBE2030:
 103              		.loc 1 177 14 view .LVU29
 104 0028 8270     		strb	r2, [r0, #2]
 178:SCan/SC24/artifacts/MCB/c_source/Src/mcb.c ****     dst_p[2] |= pack_left_shift_u8(src_p->datetime_hours, 1u, 0x3eu);
 105              		.loc 1 178 5 is_stmt 1 view .LVU30
 106              		.loc 1 178 17 is_stmt 0 view .LVU31
 107 002a CB78     		ldrb	r3, [r1, #3]	@ zero_extendqisi2
 108              	.LVL9:
 109              	.LBB2032:
 110              	.LBI2032:
  35:SCan/SC24/artifacts/MCB/c_source/Src/mcb.c ****     uint8_t value,
 111              		.loc 1 35 23 is_stmt 1 view .LVU32
 112              	.LBB2033:
  40:SCan/SC24/artifacts/MCB/c_source/Src/mcb.c **** }
 113              		.loc 1 40 5 view .LVU33
  40:SCan/SC24/artifacts/MCB/c_source/Src/mcb.c **** }
 114              		.loc 1 40 38 is_stmt 0 view .LVU34
 115 002c 5B00     		lsls	r3, r3, #1
 116              	.LVL10:
  40:SCan/SC24/artifacts/MCB/c_source/Src/mcb.c **** }
 117              		.loc 1 40 12 view .LVU35
 118 002e 03F03E03 		and	r3, r3, #62
 119              	.LVL11:
  40:SCan/SC24/artifacts/MCB/c_source/Src/mcb.c **** }
 120              		.loc 1 40 12 view .LVU36
 121              	.LBE2033:
 122              	.LBE2032:
 123              		.loc 1 178 14 view .LVU37
 124 0032 1343     		orrs	r3, r3, r2
 125 0034 8370     		strb	r3, [r0, #2]
 179:SCan/SC24/artifacts/MCB/c_source/Src/mcb.c ****     dst_p[2] |= pack_left_shift_u8(src_p->datetime_minutes, 6u, 0xc0u);
 126              		.loc 1 179 5 is_stmt 1 view .LVU38
 127              		.loc 1 179 17 is_stmt 0 view .LVU39
 128 0036 0A79     		ldrb	r2, [r1, #4]	@ zero_extendqisi2
 129              	.LVL12:
 130              	.LBB2034:
 131              	.LBI2034:
  35:SCan/SC24/artifacts/MCB/c_source/Src/mcb.c ****     uint8_t value,
 132              		.loc 1 35 23 is_stmt 1 view .LVU40
 133              	.LBB2035:
  40:SCan/SC24/artifacts/MCB/c_source/Src/mcb.c **** }
 134              		.loc 1 40 5 view .LVU41
  40:SCan/SC24/artifacts/MCB/c_source/Src/mcb.c **** }
 135              		.loc 1 40 38 is_stmt 0 view .LVU42
 136 0038 9201     		lsls	r2, r2, #6
 137              	.LVL13:
  40:SCan/SC24/artifacts/MCB/c_source/Src/mcb.c **** }
 138              		.loc 1 40 12 view .LVU43
 139 003a 02F0C002 		and	r2, r2, #192
 140              	.LVL14:
  40:SCan/SC24/artifacts/MCB/c_source/Src/mcb.c **** }
ARM GAS  /tmp/ccQYM1B7.s 			page 7


 141              		.loc 1 40 12 view .LVU44
 142              	.LBE2035:
 143              	.LBE2034:
 144              		.loc 1 179 14 view .LVU45
 145 003e 1343     		orrs	r3, r3, r2
 146 0040 8370     		strb	r3, [r0, #2]
 180:SCan/SC24/artifacts/MCB/c_source/Src/mcb.c ****     dst_p[3] |= pack_right_shift_u8(src_p->datetime_minutes, 2u, 0x0fu);
 147              		.loc 1 180 5 is_stmt 1 view .LVU46
 148              		.loc 1 180 17 is_stmt 0 view .LVU47
 149 0042 0B79     		ldrb	r3, [r1, #4]	@ zero_extendqisi2
 150              	.LVL15:
 151              	.LBB2036:
 152              	.LBI2036:
  67:SCan/SC24/artifacts/MCB/c_source/Src/mcb.c ****     uint8_t value,
 153              		.loc 1 67 23 is_stmt 1 view .LVU48
 154              	.LBB2037:
  72:SCan/SC24/artifacts/MCB/c_source/Src/mcb.c **** }
 155              		.loc 1 72 5 view .LVU49
  72:SCan/SC24/artifacts/MCB/c_source/Src/mcb.c **** }
 156              		.loc 1 72 12 is_stmt 0 view .LVU50
 157 0044 C3F38302 		ubfx	r2, r3, #2, #4
 158              	.LVL16:
  72:SCan/SC24/artifacts/MCB/c_source/Src/mcb.c **** }
 159              		.loc 1 72 12 view .LVU51
 160              	.LBE2037:
 161              	.LBE2036:
 162              		.loc 1 180 14 view .LVU52
 163 0048 C270     		strb	r2, [r0, #3]
 181:SCan/SC24/artifacts/MCB/c_source/Src/mcb.c ****     dst_p[3] |= pack_left_shift_u8(src_p->datetime_seconds, 4u, 0xf0u);
 164              		.loc 1 181 5 is_stmt 1 view .LVU53
 165              		.loc 1 181 17 is_stmt 0 view .LVU54
 166 004a 4B79     		ldrb	r3, [r1, #5]	@ zero_extendqisi2
 167              	.LVL17:
 168              	.LBB2038:
 169              	.LBI2038:
  35:SCan/SC24/artifacts/MCB/c_source/Src/mcb.c ****     uint8_t value,
 170              		.loc 1 35 23 is_stmt 1 view .LVU55
 171              	.LBB2039:
  40:SCan/SC24/artifacts/MCB/c_source/Src/mcb.c **** }
 172              		.loc 1 40 5 view .LVU56
  40:SCan/SC24/artifacts/MCB/c_source/Src/mcb.c **** }
 173              		.loc 1 40 38 is_stmt 0 view .LVU57
 174 004c 1B01     		lsls	r3, r3, #4
 175              	.LVL18:
  40:SCan/SC24/artifacts/MCB/c_source/Src/mcb.c **** }
 176              		.loc 1 40 12 view .LVU58
 177 004e 03F0F003 		and	r3, r3, #240
 178              	.LVL19:
  40:SCan/SC24/artifacts/MCB/c_source/Src/mcb.c **** }
 179              		.loc 1 40 12 view .LVU59
 180              	.LBE2039:
 181              	.LBE2038:
 182              		.loc 1 181 14 view .LVU60
 183 0052 1343     		orrs	r3, r3, r2
 184 0054 C370     		strb	r3, [r0, #3]
 182:SCan/SC24/artifacts/MCB/c_source/Src/mcb.c ****     dst_p[4] |= pack_right_shift_u8(src_p->datetime_seconds, 4u, 0x03u);
 185              		.loc 1 182 5 is_stmt 1 view .LVU61
ARM GAS  /tmp/ccQYM1B7.s 			page 8


 186              		.loc 1 182 17 is_stmt 0 view .LVU62
 187 0056 4B79     		ldrb	r3, [r1, #5]	@ zero_extendqisi2
 188              	.LVL20:
 189              	.LBB2040:
 190              	.LBI2040:
  67:SCan/SC24/artifacts/MCB/c_source/Src/mcb.c ****     uint8_t value,
 191              		.loc 1 67 23 is_stmt 1 view .LVU63
 192              	.LBB2041:
  72:SCan/SC24/artifacts/MCB/c_source/Src/mcb.c **** }
 193              		.loc 1 72 5 view .LVU64
  72:SCan/SC24/artifacts/MCB/c_source/Src/mcb.c **** }
 194              		.loc 1 72 12 is_stmt 0 view .LVU65
 195 0058 C3F30112 		ubfx	r2, r3, #4, #2
 196              	.LVL21:
  72:SCan/SC24/artifacts/MCB/c_source/Src/mcb.c **** }
 197              		.loc 1 72 12 view .LVU66
 198              	.LBE2041:
 199              	.LBE2040:
 200              		.loc 1 182 14 view .LVU67
 201 005c 0271     		strb	r2, [r0, #4]
 183:SCan/SC24/artifacts/MCB/c_source/Src/mcb.c ****     dst_p[4] |= pack_left_shift_u8(src_p->datetime_houndres_of_a_seconds, 2u, 0xfcu);
 202              		.loc 1 183 5 is_stmt 1 view .LVU68
 203              		.loc 1 183 17 is_stmt 0 view .LVU69
 204 005e 8B79     		ldrb	r3, [r1, #6]	@ zero_extendqisi2
 205              	.LVL22:
 206              	.LBB2042:
 207              	.LBI2042:
  35:SCan/SC24/artifacts/MCB/c_source/Src/mcb.c ****     uint8_t value,
 208              		.loc 1 35 23 is_stmt 1 view .LVU70
 209              	.LBB2043:
  40:SCan/SC24/artifacts/MCB/c_source/Src/mcb.c **** }
 210              		.loc 1 40 5 view .LVU71
  40:SCan/SC24/artifacts/MCB/c_source/Src/mcb.c **** }
 211              		.loc 1 40 38 is_stmt 0 view .LVU72
 212 0060 9B00     		lsls	r3, r3, #2
 213              	.LVL23:
  40:SCan/SC24/artifacts/MCB/c_source/Src/mcb.c **** }
 214              		.loc 1 40 12 view .LVU73
 215 0062 03F0FC03 		and	r3, r3, #252
 216              	.LVL24:
  40:SCan/SC24/artifacts/MCB/c_source/Src/mcb.c **** }
 217              		.loc 1 40 12 view .LVU74
 218              	.LBE2043:
 219              	.LBE2042:
 220              		.loc 1 183 14 view .LVU75
 221 0066 1343     		orrs	r3, r3, r2
 222 0068 0371     		strb	r3, [r0, #4]
 184:SCan/SC24/artifacts/MCB/c_source/Src/mcb.c ****     dst_p[5] |= pack_right_shift_u8(src_p->datetime_houndres_of_a_seconds, 6u, 0x01u);
 223              		.loc 1 184 5 is_stmt 1 view .LVU76
 224              		.loc 1 184 17 is_stmt 0 view .LVU77
 225 006a 8B79     		ldrb	r3, [r1, #6]	@ zero_extendqisi2
 226              	.LVL25:
 227              	.LBB2044:
 228              	.LBI2044:
  67:SCan/SC24/artifacts/MCB/c_source/Src/mcb.c ****     uint8_t value,
 229              		.loc 1 67 23 is_stmt 1 view .LVU78
 230              	.LBB2045:
ARM GAS  /tmp/ccQYM1B7.s 			page 9


  72:SCan/SC24/artifacts/MCB/c_source/Src/mcb.c **** }
 231              		.loc 1 72 5 view .LVU79
  72:SCan/SC24/artifacts/MCB/c_source/Src/mcb.c **** }
 232              		.loc 1 72 12 is_stmt 0 view .LVU80
 233 006c C3F38013 		ubfx	r3, r3, #6, #1
 234              	.LVL26:
  72:SCan/SC24/artifacts/MCB/c_source/Src/mcb.c **** }
 235              		.loc 1 72 12 view .LVU81
 236              	.LBE2045:
 237              	.LBE2044:
 238              		.loc 1 184 14 view .LVU82
 239 0070 4371     		strb	r3, [r0, #5]
 185:SCan/SC24/artifacts/MCB/c_source/Src/mcb.c **** 
 186:SCan/SC24/artifacts/MCB/c_source/Src/mcb.c ****     return (6);
 240              		.loc 1 186 5 is_stmt 1 view .LVU83
 241              		.loc 1 186 12 is_stmt 0 view .LVU84
 242 0072 0620     		movs	r0, #6
 243              	.LVL27:
 244              		.loc 1 186 12 view .LVU85
 245 0074 7047     		bx	lr
 246              	.LVL28:
 247              	.L3:
 169:SCan/SC24/artifacts/MCB/c_source/Src/mcb.c ****     }
 248              		.loc 1 169 16 view .LVU86
 249 0076 6FF01500 		mvn	r0, #21
 250              	.LVL29:
 187:SCan/SC24/artifacts/MCB/c_source/Src/mcb.c **** }
 251              		.loc 1 187 1 view .LVU87
 252 007a 7047     		bx	lr
 253              		.cfi_endproc
 254              	.LFE16:
 256              		.section	.text.mcb_dspace_time_and_date_unpack,"ax",%progbits
 257              		.align	1
 258              		.global	mcb_dspace_time_and_date_unpack
 259              		.syntax unified
 260              		.thumb
 261              		.thumb_func
 262              		.fpu fpv4-sp-d16
 264              	mcb_dspace_time_and_date_unpack:
 265              	.LVL30:
 266              	.LFB17:
 188:SCan/SC24/artifacts/MCB/c_source/Src/mcb.c **** 
 189:SCan/SC24/artifacts/MCB/c_source/Src/mcb.c **** int mcb_dspace_time_and_date_unpack(
 190:SCan/SC24/artifacts/MCB/c_source/Src/mcb.c ****     struct mcb_dspace_time_and_date_t *dst_p,
 191:SCan/SC24/artifacts/MCB/c_source/Src/mcb.c ****     const uint8_t *src_p,
 192:SCan/SC24/artifacts/MCB/c_source/Src/mcb.c ****     size_t size)
 193:SCan/SC24/artifacts/MCB/c_source/Src/mcb.c **** {
 267              		.loc 1 193 1 is_stmt 1 view -0
 268              		.cfi_startproc
 269              		@ args = 0, pretend = 0, frame = 0
 270              		@ frame_needed = 0, uses_anonymous_args = 0
 271              		@ link register save eliminated.
 194:SCan/SC24/artifacts/MCB/c_source/Src/mcb.c ****     if (size < 6u) {
 272              		.loc 1 194 5 view .LVU89
 273              		.loc 1 194 8 is_stmt 0 view .LVU90
 274 0000 052A     		cmp	r2, #5
 275 0002 2FD9     		bls	.L6
ARM GAS  /tmp/ccQYM1B7.s 			page 10


 195:SCan/SC24/artifacts/MCB/c_source/Src/mcb.c ****         return (-EINVAL);
 196:SCan/SC24/artifacts/MCB/c_source/Src/mcb.c ****     }
 197:SCan/SC24/artifacts/MCB/c_source/Src/mcb.c **** 
 198:SCan/SC24/artifacts/MCB/c_source/Src/mcb.c ****     dst_p->datetime_year = unpack_right_shift_u8(src_p[0], 0u, 0xffu);
 276              		.loc 1 198 5 is_stmt 1 view .LVU91
 277              		.loc 1 198 28 is_stmt 0 view .LVU92
 278 0004 0B78     		ldrb	r3, [r1]	@ zero_extendqisi2
 279              	.LVL31:
 136:SCan/SC24/artifacts/MCB/c_source/Src/mcb.c **** }
 280              		.loc 1 136 5 is_stmt 1 view .LVU93
 281              		.loc 1 198 26 is_stmt 0 view .LVU94
 282 0006 0370     		strb	r3, [r0]
 199:SCan/SC24/artifacts/MCB/c_source/Src/mcb.c ****     dst_p->datetime_month = unpack_right_shift_u8(src_p[1], 0u, 0x0fu);
 283              		.loc 1 199 5 is_stmt 1 view .LVU95
 284              		.loc 1 199 29 is_stmt 0 view .LVU96
 285 0008 4B78     		ldrb	r3, [r1, #1]	@ zero_extendqisi2
 286              	.LVL32:
 287              	.LBB2046:
 288              	.LBI2046:
 131:SCan/SC24/artifacts/MCB/c_source/Src/mcb.c ****     uint8_t value,
 289              		.loc 1 131 23 is_stmt 1 view .LVU97
 290              	.LBB2047:
 136:SCan/SC24/artifacts/MCB/c_source/Src/mcb.c **** }
 291              		.loc 1 136 5 view .LVU98
 136:SCan/SC24/artifacts/MCB/c_source/Src/mcb.c **** }
 292              		.loc 1 136 22 is_stmt 0 view .LVU99
 293 000a 03F00F03 		and	r3, r3, #15
 294              	.LVL33:
 136:SCan/SC24/artifacts/MCB/c_source/Src/mcb.c **** }
 295              		.loc 1 136 22 view .LVU100
 296              	.LBE2047:
 297              	.LBE2046:
 298              		.loc 1 199 27 view .LVU101
 299 000e 4370     		strb	r3, [r0, #1]
 200:SCan/SC24/artifacts/MCB/c_source/Src/mcb.c ****     dst_p->datetime_day = unpack_right_shift_u8(src_p[1], 4u, 0xf0u);
 300              		.loc 1 200 5 is_stmt 1 view .LVU102
 301              		.loc 1 200 27 is_stmt 0 view .LVU103
 302 0010 4B78     		ldrb	r3, [r1, #1]	@ zero_extendqisi2
 303              	.LVL34:
 304              	.LBB2048:
 305              	.LBI2048:
 131:SCan/SC24/artifacts/MCB/c_source/Src/mcb.c ****     uint8_t value,
 306              		.loc 1 131 23 is_stmt 1 view .LVU104
 307              	.LBB2049:
 136:SCan/SC24/artifacts/MCB/c_source/Src/mcb.c **** }
 308              		.loc 1 136 5 view .LVU105
 136:SCan/SC24/artifacts/MCB/c_source/Src/mcb.c **** }
 309              		.loc 1 136 12 is_stmt 0 view .LVU106
 310 0012 1B09     		lsrs	r3, r3, #4
 311              	.LVL35:
 136:SCan/SC24/artifacts/MCB/c_source/Src/mcb.c **** }
 312              		.loc 1 136 12 view .LVU107
 313              	.LBE2049:
 314              	.LBE2048:
 315              		.loc 1 200 25 view .LVU108
 316 0014 8370     		strb	r3, [r0, #2]
 201:SCan/SC24/artifacts/MCB/c_source/Src/mcb.c ****     dst_p->datetime_day |= unpack_left_shift_u8(src_p[2], 4u, 0x01u);
ARM GAS  /tmp/ccQYM1B7.s 			page 11


 317              		.loc 1 201 5 is_stmt 1 view .LVU109
 318              		.loc 1 201 28 is_stmt 0 view .LVU110
 319 0016 8A78     		ldrb	r2, [r1, #2]	@ zero_extendqisi2
 320              	.LVL36:
 321              	.LBB2050:
 322              	.LBI2050:
  99:SCan/SC24/artifacts/MCB/c_source/Src/mcb.c ****     uint8_t value,
 323              		.loc 1 99 23 is_stmt 1 view .LVU111
 324              	.LBB2051:
 104:SCan/SC24/artifacts/MCB/c_source/Src/mcb.c **** }
 325              		.loc 1 104 5 view .LVU112
 104:SCan/SC24/artifacts/MCB/c_source/Src/mcb.c **** }
 326              		.loc 1 104 22 is_stmt 0 view .LVU113
 327 0018 02F00102 		and	r2, r2, #1
 328              	.LVL37:
 104:SCan/SC24/artifacts/MCB/c_source/Src/mcb.c **** }
 329              		.loc 1 104 22 view .LVU114
 330              	.LBE2051:
 331              	.LBE2050:
 332              		.loc 1 201 25 view .LVU115
 333 001c 43EA0213 		orr	r3, r3, r2, lsl #4
 334 0020 8370     		strb	r3, [r0, #2]
 202:SCan/SC24/artifacts/MCB/c_source/Src/mcb.c ****     dst_p->datetime_hours = unpack_right_shift_u8(src_p[2], 1u, 0x3eu);
 335              		.loc 1 202 5 is_stmt 1 view .LVU116
 336              		.loc 1 202 29 is_stmt 0 view .LVU117
 337 0022 8B78     		ldrb	r3, [r1, #2]	@ zero_extendqisi2
 338              	.LVL38:
 339              	.LBB2052:
 340              	.LBI2052:
 131:SCan/SC24/artifacts/MCB/c_source/Src/mcb.c ****     uint8_t value,
 341              		.loc 1 131 23 is_stmt 1 view .LVU118
 342              	.LBB2053:
 136:SCan/SC24/artifacts/MCB/c_source/Src/mcb.c **** }
 343              		.loc 1 136 5 view .LVU119
 136:SCan/SC24/artifacts/MCB/c_source/Src/mcb.c **** }
 344              		.loc 1 136 12 is_stmt 0 view .LVU120
 345 0024 C3F34403 		ubfx	r3, r3, #1, #5
 346              	.LVL39:
 136:SCan/SC24/artifacts/MCB/c_source/Src/mcb.c **** }
 347              		.loc 1 136 12 view .LVU121
 348              	.LBE2053:
 349              	.LBE2052:
 350              		.loc 1 202 27 view .LVU122
 351 0028 C370     		strb	r3, [r0, #3]
 203:SCan/SC24/artifacts/MCB/c_source/Src/mcb.c ****     dst_p->datetime_minutes = unpack_right_shift_u8(src_p[2], 6u, 0xc0u);
 352              		.loc 1 203 5 is_stmt 1 view .LVU123
 353              		.loc 1 203 31 is_stmt 0 view .LVU124
 354 002a 8B78     		ldrb	r3, [r1, #2]	@ zero_extendqisi2
 355              	.LVL40:
 356              	.LBB2054:
 357              	.LBI2054:
 131:SCan/SC24/artifacts/MCB/c_source/Src/mcb.c ****     uint8_t value,
 358              		.loc 1 131 23 is_stmt 1 view .LVU125
 359              	.LBB2055:
 136:SCan/SC24/artifacts/MCB/c_source/Src/mcb.c **** }
 360              		.loc 1 136 5 view .LVU126
 136:SCan/SC24/artifacts/MCB/c_source/Src/mcb.c **** }
ARM GAS  /tmp/ccQYM1B7.s 			page 12


 361              		.loc 1 136 12 is_stmt 0 view .LVU127
 362 002c 9B09     		lsrs	r3, r3, #6
 363              	.LVL41:
 136:SCan/SC24/artifacts/MCB/c_source/Src/mcb.c **** }
 364              		.loc 1 136 12 view .LVU128
 365              	.LBE2055:
 366              	.LBE2054:
 367              		.loc 1 203 29 view .LVU129
 368 002e 0371     		strb	r3, [r0, #4]
 204:SCan/SC24/artifacts/MCB/c_source/Src/mcb.c ****     dst_p->datetime_minutes |= unpack_left_shift_u8(src_p[3], 2u, 0x0fu);
 369              		.loc 1 204 5 is_stmt 1 view .LVU130
 370              		.loc 1 204 32 is_stmt 0 view .LVU131
 371 0030 CA78     		ldrb	r2, [r1, #3]	@ zero_extendqisi2
 372              	.LVL42:
 373              	.LBB2056:
 374              	.LBI2056:
  99:SCan/SC24/artifacts/MCB/c_source/Src/mcb.c ****     uint8_t value,
 375              		.loc 1 99 23 is_stmt 1 view .LVU132
 376              	.LBB2057:
 104:SCan/SC24/artifacts/MCB/c_source/Src/mcb.c **** }
 377              		.loc 1 104 5 view .LVU133
 104:SCan/SC24/artifacts/MCB/c_source/Src/mcb.c **** }
 378              		.loc 1 104 22 is_stmt 0 view .LVU134
 379 0032 02F00F02 		and	r2, r2, #15
 380              	.LVL43:
 104:SCan/SC24/artifacts/MCB/c_source/Src/mcb.c **** }
 381              		.loc 1 104 22 view .LVU135
 382              	.LBE2057:
 383              	.LBE2056:
 384              		.loc 1 204 29 view .LVU136
 385 0036 43EA8203 		orr	r3, r3, r2, lsl #2
 386 003a 0371     		strb	r3, [r0, #4]
 205:SCan/SC24/artifacts/MCB/c_source/Src/mcb.c ****     dst_p->datetime_seconds = unpack_right_shift_u8(src_p[3], 4u, 0xf0u);
 387              		.loc 1 205 5 is_stmt 1 view .LVU137
 388              		.loc 1 205 31 is_stmt 0 view .LVU138
 389 003c CB78     		ldrb	r3, [r1, #3]	@ zero_extendqisi2
 390              	.LVL44:
 391              	.LBB2058:
 392              	.LBI2058:
 131:SCan/SC24/artifacts/MCB/c_source/Src/mcb.c ****     uint8_t value,
 393              		.loc 1 131 23 is_stmt 1 view .LVU139
 394              	.LBB2059:
 136:SCan/SC24/artifacts/MCB/c_source/Src/mcb.c **** }
 395              		.loc 1 136 5 view .LVU140
 136:SCan/SC24/artifacts/MCB/c_source/Src/mcb.c **** }
 396              		.loc 1 136 12 is_stmt 0 view .LVU141
 397 003e 1B09     		lsrs	r3, r3, #4
 398              	.LVL45:
 136:SCan/SC24/artifacts/MCB/c_source/Src/mcb.c **** }
 399              		.loc 1 136 12 view .LVU142
 400              	.LBE2059:
 401              	.LBE2058:
 402              		.loc 1 205 29 view .LVU143
 403 0040 4371     		strb	r3, [r0, #5]
 206:SCan/SC24/artifacts/MCB/c_source/Src/mcb.c ****     dst_p->datetime_seconds |= unpack_left_shift_u8(src_p[4], 4u, 0x03u);
 404              		.loc 1 206 5 is_stmt 1 view .LVU144
 405              		.loc 1 206 32 is_stmt 0 view .LVU145
ARM GAS  /tmp/ccQYM1B7.s 			page 13


 406 0042 0A79     		ldrb	r2, [r1, #4]	@ zero_extendqisi2
 407              	.LVL46:
 408              	.LBB2060:
 409              	.LBI2060:
  99:SCan/SC24/artifacts/MCB/c_source/Src/mcb.c ****     uint8_t value,
 410              		.loc 1 99 23 is_stmt 1 view .LVU146
 411              	.LBB2061:
 104:SCan/SC24/artifacts/MCB/c_source/Src/mcb.c **** }
 412              		.loc 1 104 5 view .LVU147
 104:SCan/SC24/artifacts/MCB/c_source/Src/mcb.c **** }
 413              		.loc 1 104 22 is_stmt 0 view .LVU148
 414 0044 02F00302 		and	r2, r2, #3
 415              	.LVL47:
 104:SCan/SC24/artifacts/MCB/c_source/Src/mcb.c **** }
 416              		.loc 1 104 22 view .LVU149
 417              	.LBE2061:
 418              	.LBE2060:
 419              		.loc 1 206 29 view .LVU150
 420 0048 43EA0213 		orr	r3, r3, r2, lsl #4
 421 004c 4371     		strb	r3, [r0, #5]
 207:SCan/SC24/artifacts/MCB/c_source/Src/mcb.c ****     dst_p->datetime_houndres_of_a_seconds = unpack_right_shift_u8(src_p[4], 2u, 0xfcu);
 422              		.loc 1 207 5 is_stmt 1 view .LVU151
 423              		.loc 1 207 45 is_stmt 0 view .LVU152
 424 004e 0B79     		ldrb	r3, [r1, #4]	@ zero_extendqisi2
 425              	.LVL48:
 426              	.LBB2062:
 427              	.LBI2062:
 131:SCan/SC24/artifacts/MCB/c_source/Src/mcb.c ****     uint8_t value,
 428              		.loc 1 131 23 is_stmt 1 view .LVU153
 429              	.LBB2063:
 136:SCan/SC24/artifacts/MCB/c_source/Src/mcb.c **** }
 430              		.loc 1 136 5 view .LVU154
 136:SCan/SC24/artifacts/MCB/c_source/Src/mcb.c **** }
 431              		.loc 1 136 12 is_stmt 0 view .LVU155
 432 0050 9B08     		lsrs	r3, r3, #2
 433              	.LVL49:
 136:SCan/SC24/artifacts/MCB/c_source/Src/mcb.c **** }
 434              		.loc 1 136 12 view .LVU156
 435              	.LBE2063:
 436              	.LBE2062:
 437              		.loc 1 207 43 view .LVU157
 438 0052 8371     		strb	r3, [r0, #6]
 208:SCan/SC24/artifacts/MCB/c_source/Src/mcb.c ****     dst_p->datetime_houndres_of_a_seconds |= unpack_left_shift_u8(src_p[5], 6u, 0x01u);
 439              		.loc 1 208 5 is_stmt 1 view .LVU158
 440              		.loc 1 208 46 is_stmt 0 view .LVU159
 441 0054 4A79     		ldrb	r2, [r1, #5]	@ zero_extendqisi2
 442              	.LVL50:
 443              	.LBB2064:
 444              	.LBI2064:
  99:SCan/SC24/artifacts/MCB/c_source/Src/mcb.c ****     uint8_t value,
 445              		.loc 1 99 23 is_stmt 1 view .LVU160
 446              	.LBB2065:
 104:SCan/SC24/artifacts/MCB/c_source/Src/mcb.c **** }
 447              		.loc 1 104 5 view .LVU161
 104:SCan/SC24/artifacts/MCB/c_source/Src/mcb.c **** }
 448              		.loc 1 104 22 is_stmt 0 view .LVU162
 449 0056 02F00102 		and	r2, r2, #1
ARM GAS  /tmp/ccQYM1B7.s 			page 14


 450              	.LVL51:
 104:SCan/SC24/artifacts/MCB/c_source/Src/mcb.c **** }
 451              		.loc 1 104 22 view .LVU163
 452              	.LBE2065:
 453              	.LBE2064:
 454              		.loc 1 208 43 view .LVU164
 455 005a 43EA8213 		orr	r3, r3, r2, lsl #6
 456 005e 8371     		strb	r3, [r0, #6]
 209:SCan/SC24/artifacts/MCB/c_source/Src/mcb.c **** 
 210:SCan/SC24/artifacts/MCB/c_source/Src/mcb.c ****     return (0);
 457              		.loc 1 210 5 is_stmt 1 view .LVU165
 458              		.loc 1 210 12 is_stmt 0 view .LVU166
 459 0060 0020     		movs	r0, #0
 460              	.LVL52:
 461              		.loc 1 210 12 view .LVU167
 462 0062 7047     		bx	lr
 463              	.LVL53:
 464              	.L6:
 195:SCan/SC24/artifacts/MCB/c_source/Src/mcb.c ****     }
 465              		.loc 1 195 16 view .LVU168
 466 0064 6FF01500 		mvn	r0, #21
 467              	.LVL54:
 211:SCan/SC24/artifacts/MCB/c_source/Src/mcb.c **** }
 468              		.loc 1 211 1 view .LVU169
 469 0068 7047     		bx	lr
 470              		.cfi_endproc
 471              	.LFE17:
 473              		.section	.text.mcb_dspace_time_and_date_init,"ax",%progbits
 474              		.align	1
 475              		.global	mcb_dspace_time_and_date_init
 476              		.syntax unified
 477              		.thumb
 478              		.thumb_func
 479              		.fpu fpv4-sp-d16
 481              	mcb_dspace_time_and_date_init:
 482              	.LVL55:
 483              	.LFB18:
 212:SCan/SC24/artifacts/MCB/c_source/Src/mcb.c **** 
 213:SCan/SC24/artifacts/MCB/c_source/Src/mcb.c **** int mcb_dspace_time_and_date_init(struct mcb_dspace_time_and_date_t *msg_p)
 214:SCan/SC24/artifacts/MCB/c_source/Src/mcb.c **** {
 484              		.loc 1 214 1 is_stmt 1 view -0
 485              		.cfi_startproc
 486              		@ args = 0, pretend = 0, frame = 0
 487              		@ frame_needed = 0, uses_anonymous_args = 0
 488              		@ link register save eliminated.
 215:SCan/SC24/artifacts/MCB/c_source/Src/mcb.c ****     if (msg_p == NULL) return -1;
 489              		.loc 1 215 5 view .LVU171
 490              		.loc 1 215 8 is_stmt 0 view .LVU172
 491 0000 0346     		mov	r3, r0
 492 0002 20B1     		cbz	r0, .L9
 216:SCan/SC24/artifacts/MCB/c_source/Src/mcb.c **** 
 217:SCan/SC24/artifacts/MCB/c_source/Src/mcb.c ****     memset(msg_p, 0, sizeof(struct mcb_dspace_time_and_date_t));
 493              		.loc 1 217 5 is_stmt 1 view .LVU173
 494 0004 0020     		movs	r0, #0
 495              	.LVL56:
 496              		.loc 1 217 5 is_stmt 0 view .LVU174
 497 0006 1860     		str	r0, [r3]	@ unaligned
ARM GAS  /tmp/ccQYM1B7.s 			page 15


 498 0008 C3F80300 		str	r0, [r3, #3]	@ unaligned
 218:SCan/SC24/artifacts/MCB/c_source/Src/mcb.c **** 
 219:SCan/SC24/artifacts/MCB/c_source/Src/mcb.c ****     return 0;
 499              		.loc 1 219 5 is_stmt 1 view .LVU175
 500              		.loc 1 219 12 is_stmt 0 view .LVU176
 501 000c 7047     		bx	lr
 502              	.LVL57:
 503              	.L9:
 215:SCan/SC24/artifacts/MCB/c_source/Src/mcb.c **** 
 504              		.loc 1 215 31 view .LVU177
 505 000e 4FF0FF30 		mov	r0, #-1
 506              	.LVL58:
 220:SCan/SC24/artifacts/MCB/c_source/Src/mcb.c **** }
 507              		.loc 1 220 1 view .LVU178
 508 0012 7047     		bx	lr
 509              		.cfi_endproc
 510              	.LFE18:
 512              		.global	__aeabi_d2uiz
 513              		.section	.text.mcb_dspace_time_and_date_datetime_year_encode,"ax",%progbits
 514              		.align	1
 515              		.global	mcb_dspace_time_and_date_datetime_year_encode
 516              		.syntax unified
 517              		.thumb
 518              		.thumb_func
 519              		.fpu fpv4-sp-d16
 521              	mcb_dspace_time_and_date_datetime_year_encode:
 522              	.LVL59:
 523              	.LFB19:
 221:SCan/SC24/artifacts/MCB/c_source/Src/mcb.c **** 
 222:SCan/SC24/artifacts/MCB/c_source/Src/mcb.c **** uint8_t mcb_dspace_time_and_date_datetime_year_encode(double value)
 223:SCan/SC24/artifacts/MCB/c_source/Src/mcb.c **** {
 524              		.loc 1 223 1 is_stmt 1 view -0
 525              		.cfi_startproc
 526              		@ args = 0, pretend = 0, frame = 0
 527              		@ frame_needed = 0, uses_anonymous_args = 0
 528              		.loc 1 223 1 is_stmt 0 view .LVU180
 529 0000 08B5     		push	{r3, lr}
 530              	.LCFI0:
 531              		.cfi_def_cfa_offset 8
 532              		.cfi_offset 3, -8
 533              		.cfi_offset 14, -4
 534 0002 51EC100B 		vmov	r0, r1, d0
 224:SCan/SC24/artifacts/MCB/c_source/Src/mcb.c ****     return (uint8_t)(value);
 535              		.loc 1 224 5 is_stmt 1 view .LVU181
 536              		.loc 1 224 12 is_stmt 0 view .LVU182
 537 0006 FFF7FEFF 		bl	__aeabi_d2uiz
 538              	.LVL60:
 225:SCan/SC24/artifacts/MCB/c_source/Src/mcb.c **** }
 539              		.loc 1 225 1 view .LVU183
 540 000a C0B2     		uxtb	r0, r0
 541 000c 08BD     		pop	{r3, pc}
 542              		.cfi_endproc
 543              	.LFE19:
 545              		.global	__aeabi_ui2d
 546              		.section	.text.mcb_dspace_time_and_date_datetime_year_decode,"ax",%progbits
 547              		.align	1
 548              		.global	mcb_dspace_time_and_date_datetime_year_decode
ARM GAS  /tmp/ccQYM1B7.s 			page 16


 549              		.syntax unified
 550              		.thumb
 551              		.thumb_func
 552              		.fpu fpv4-sp-d16
 554              	mcb_dspace_time_and_date_datetime_year_decode:
 555              	.LVL61:
 556              	.LFB20:
 226:SCan/SC24/artifacts/MCB/c_source/Src/mcb.c **** 
 227:SCan/SC24/artifacts/MCB/c_source/Src/mcb.c **** double mcb_dspace_time_and_date_datetime_year_decode(uint8_t value)
 228:SCan/SC24/artifacts/MCB/c_source/Src/mcb.c **** {
 557              		.loc 1 228 1 is_stmt 1 view -0
 558              		.cfi_startproc
 559              		@ args = 0, pretend = 0, frame = 0
 560              		@ frame_needed = 0, uses_anonymous_args = 0
 561              		.loc 1 228 1 is_stmt 0 view .LVU185
 562 0000 08B5     		push	{r3, lr}
 563              	.LCFI1:
 564              		.cfi_def_cfa_offset 8
 565              		.cfi_offset 3, -8
 566              		.cfi_offset 14, -4
 229:SCan/SC24/artifacts/MCB/c_source/Src/mcb.c ****     return ((double)value);
 567              		.loc 1 229 5 is_stmt 1 view .LVU186
 568              		.loc 1 229 13 is_stmt 0 view .LVU187
 569 0002 FFF7FEFF 		bl	__aeabi_ui2d
 570              	.LVL62:
 230:SCan/SC24/artifacts/MCB/c_source/Src/mcb.c **** }
 571              		.loc 1 230 1 view .LVU188
 572 0006 41EC100B 		vmov	d0, r0, r1
 573 000a 08BD     		pop	{r3, pc}
 574              		.cfi_endproc
 575              	.LFE20:
 577              		.section	.text.mcb_dspace_time_and_date_datetime_year_is_in_range,"ax",%progbits
 578              		.align	1
 579              		.global	mcb_dspace_time_and_date_datetime_year_is_in_range
 580              		.syntax unified
 581              		.thumb
 582              		.thumb_func
 583              		.fpu fpv4-sp-d16
 585              	mcb_dspace_time_and_date_datetime_year_is_in_range:
 586              	.LVL63:
 587              	.LFB21:
 231:SCan/SC24/artifacts/MCB/c_source/Src/mcb.c **** 
 232:SCan/SC24/artifacts/MCB/c_source/Src/mcb.c **** bool mcb_dspace_time_and_date_datetime_year_is_in_range(uint8_t value)
 233:SCan/SC24/artifacts/MCB/c_source/Src/mcb.c **** {
 588              		.loc 1 233 1 is_stmt 1 view -0
 589              		.cfi_startproc
 590              		@ args = 0, pretend = 0, frame = 0
 591              		@ frame_needed = 0, uses_anonymous_args = 0
 592              		@ link register save eliminated.
 234:SCan/SC24/artifacts/MCB/c_source/Src/mcb.c ****     (void)value;
 593              		.loc 1 234 5 view .LVU190
 235:SCan/SC24/artifacts/MCB/c_source/Src/mcb.c **** 
 236:SCan/SC24/artifacts/MCB/c_source/Src/mcb.c ****     return (true);
 594              		.loc 1 236 5 view .LVU191
 237:SCan/SC24/artifacts/MCB/c_source/Src/mcb.c **** }
 595              		.loc 1 237 1 is_stmt 0 view .LVU192
 596 0000 0120     		movs	r0, #1
ARM GAS  /tmp/ccQYM1B7.s 			page 17


 597              	.LVL64:
 598              		.loc 1 237 1 view .LVU193
 599 0002 7047     		bx	lr
 600              		.cfi_endproc
 601              	.LFE21:
 603              		.section	.text.mcb_dspace_time_and_date_datetime_month_encode,"ax",%progbits
 604              		.align	1
 605              		.global	mcb_dspace_time_and_date_datetime_month_encode
 606              		.syntax unified
 607              		.thumb
 608              		.thumb_func
 609              		.fpu fpv4-sp-d16
 611              	mcb_dspace_time_and_date_datetime_month_encode:
 612              	.LVL65:
 613              	.LFB22:
 238:SCan/SC24/artifacts/MCB/c_source/Src/mcb.c **** 
 239:SCan/SC24/artifacts/MCB/c_source/Src/mcb.c **** uint8_t mcb_dspace_time_and_date_datetime_month_encode(double value)
 240:SCan/SC24/artifacts/MCB/c_source/Src/mcb.c **** {
 614              		.loc 1 240 1 is_stmt 1 view -0
 615              		.cfi_startproc
 616              		@ args = 0, pretend = 0, frame = 0
 617              		@ frame_needed = 0, uses_anonymous_args = 0
 618              		.loc 1 240 1 is_stmt 0 view .LVU195
 619 0000 08B5     		push	{r3, lr}
 620              	.LCFI2:
 621              		.cfi_def_cfa_offset 8
 622              		.cfi_offset 3, -8
 623              		.cfi_offset 14, -4
 624 0002 51EC100B 		vmov	r0, r1, d0
 241:SCan/SC24/artifacts/MCB/c_source/Src/mcb.c ****     return (uint8_t)(value);
 625              		.loc 1 241 5 is_stmt 1 view .LVU196
 626              		.loc 1 241 12 is_stmt 0 view .LVU197
 627 0006 FFF7FEFF 		bl	__aeabi_d2uiz
 628              	.LVL66:
 242:SCan/SC24/artifacts/MCB/c_source/Src/mcb.c **** }
 629              		.loc 1 242 1 view .LVU198
 630 000a C0B2     		uxtb	r0, r0
 631 000c 08BD     		pop	{r3, pc}
 632              		.cfi_endproc
 633              	.LFE22:
 635              		.section	.text.mcb_dspace_time_and_date_datetime_month_decode,"ax",%progbits
 636              		.align	1
 637              		.global	mcb_dspace_time_and_date_datetime_month_decode
 638              		.syntax unified
 639              		.thumb
 640              		.thumb_func
 641              		.fpu fpv4-sp-d16
 643              	mcb_dspace_time_and_date_datetime_month_decode:
 644              	.LVL67:
 645              	.LFB23:
 243:SCan/SC24/artifacts/MCB/c_source/Src/mcb.c **** 
 244:SCan/SC24/artifacts/MCB/c_source/Src/mcb.c **** double mcb_dspace_time_and_date_datetime_month_decode(uint8_t value)
 245:SCan/SC24/artifacts/MCB/c_source/Src/mcb.c **** {
 646              		.loc 1 245 1 is_stmt 1 view -0
 647              		.cfi_startproc
 648              		@ args = 0, pretend = 0, frame = 0
 649              		@ frame_needed = 0, uses_anonymous_args = 0
ARM GAS  /tmp/ccQYM1B7.s 			page 18


 650              		.loc 1 245 1 is_stmt 0 view .LVU200
 651 0000 08B5     		push	{r3, lr}
 652              	.LCFI3:
 653              		.cfi_def_cfa_offset 8
 654              		.cfi_offset 3, -8
 655              		.cfi_offset 14, -4
 246:SCan/SC24/artifacts/MCB/c_source/Src/mcb.c ****     return ((double)value);
 656              		.loc 1 246 5 is_stmt 1 view .LVU201
 657              		.loc 1 246 13 is_stmt 0 view .LVU202
 658 0002 FFF7FEFF 		bl	__aeabi_ui2d
 659              	.LVL68:
 247:SCan/SC24/artifacts/MCB/c_source/Src/mcb.c **** }
 660              		.loc 1 247 1 view .LVU203
 661 0006 41EC100B 		vmov	d0, r0, r1
 662 000a 08BD     		pop	{r3, pc}
 663              		.cfi_endproc
 664              	.LFE23:
 666              		.section	.text.mcb_dspace_time_and_date_datetime_month_is_in_range,"ax",%progbits
 667              		.align	1
 668              		.global	mcb_dspace_time_and_date_datetime_month_is_in_range
 669              		.syntax unified
 670              		.thumb
 671              		.thumb_func
 672              		.fpu fpv4-sp-d16
 674              	mcb_dspace_time_and_date_datetime_month_is_in_range:
 675              	.LVL69:
 676              	.LFB24:
 248:SCan/SC24/artifacts/MCB/c_source/Src/mcb.c **** 
 249:SCan/SC24/artifacts/MCB/c_source/Src/mcb.c **** bool mcb_dspace_time_and_date_datetime_month_is_in_range(uint8_t value)
 250:SCan/SC24/artifacts/MCB/c_source/Src/mcb.c **** {
 677              		.loc 1 250 1 is_stmt 1 view -0
 678              		.cfi_startproc
 679              		@ args = 0, pretend = 0, frame = 0
 680              		@ frame_needed = 0, uses_anonymous_args = 0
 681              		@ link register save eliminated.
 251:SCan/SC24/artifacts/MCB/c_source/Src/mcb.c ****     return (value <= 11u);
 682              		.loc 1 251 5 view .LVU205
 252:SCan/SC24/artifacts/MCB/c_source/Src/mcb.c **** }
 683              		.loc 1 252 1 is_stmt 0 view .LVU206
 684 0000 0B28     		cmp	r0, #11
 685 0002 8CBF     		ite	hi
 686 0004 0020     		movhi	r0, #0
 687              	.LVL70:
 688              		.loc 1 252 1 view .LVU207
 689 0006 0120     		movls	r0, #1
 690 0008 7047     		bx	lr
 691              		.cfi_endproc
 692              	.LFE24:
 694              		.section	.text.mcb_dspace_time_and_date_datetime_day_encode,"ax",%progbits
 695              		.align	1
 696              		.global	mcb_dspace_time_and_date_datetime_day_encode
 697              		.syntax unified
 698              		.thumb
 699              		.thumb_func
 700              		.fpu fpv4-sp-d16
 702              	mcb_dspace_time_and_date_datetime_day_encode:
 703              	.LVL71:
ARM GAS  /tmp/ccQYM1B7.s 			page 19


 704              	.LFB25:
 253:SCan/SC24/artifacts/MCB/c_source/Src/mcb.c **** 
 254:SCan/SC24/artifacts/MCB/c_source/Src/mcb.c **** uint8_t mcb_dspace_time_and_date_datetime_day_encode(double value)
 255:SCan/SC24/artifacts/MCB/c_source/Src/mcb.c **** {
 705              		.loc 1 255 1 is_stmt 1 view -0
 706              		.cfi_startproc
 707              		@ args = 0, pretend = 0, frame = 0
 708              		@ frame_needed = 0, uses_anonymous_args = 0
 709              		.loc 1 255 1 is_stmt 0 view .LVU209
 710 0000 08B5     		push	{r3, lr}
 711              	.LCFI4:
 712              		.cfi_def_cfa_offset 8
 713              		.cfi_offset 3, -8
 714              		.cfi_offset 14, -4
 715 0002 51EC100B 		vmov	r0, r1, d0
 256:SCan/SC24/artifacts/MCB/c_source/Src/mcb.c ****     return (uint8_t)(value);
 716              		.loc 1 256 5 is_stmt 1 view .LVU210
 717              		.loc 1 256 12 is_stmt 0 view .LVU211
 718 0006 FFF7FEFF 		bl	__aeabi_d2uiz
 719              	.LVL72:
 257:SCan/SC24/artifacts/MCB/c_source/Src/mcb.c **** }
 720              		.loc 1 257 1 view .LVU212
 721 000a C0B2     		uxtb	r0, r0
 722 000c 08BD     		pop	{r3, pc}
 723              		.cfi_endproc
 724              	.LFE25:
 726              		.section	.text.mcb_dspace_time_and_date_datetime_day_decode,"ax",%progbits
 727              		.align	1
 728              		.global	mcb_dspace_time_and_date_datetime_day_decode
 729              		.syntax unified
 730              		.thumb
 731              		.thumb_func
 732              		.fpu fpv4-sp-d16
 734              	mcb_dspace_time_and_date_datetime_day_decode:
 735              	.LVL73:
 736              	.LFB26:
 258:SCan/SC24/artifacts/MCB/c_source/Src/mcb.c **** 
 259:SCan/SC24/artifacts/MCB/c_source/Src/mcb.c **** double mcb_dspace_time_and_date_datetime_day_decode(uint8_t value)
 260:SCan/SC24/artifacts/MCB/c_source/Src/mcb.c **** {
 737              		.loc 1 260 1 is_stmt 1 view -0
 738              		.cfi_startproc
 739              		@ args = 0, pretend = 0, frame = 0
 740              		@ frame_needed = 0, uses_anonymous_args = 0
 741              		.loc 1 260 1 is_stmt 0 view .LVU214
 742 0000 08B5     		push	{r3, lr}
 743              	.LCFI5:
 744              		.cfi_def_cfa_offset 8
 745              		.cfi_offset 3, -8
 746              		.cfi_offset 14, -4
 261:SCan/SC24/artifacts/MCB/c_source/Src/mcb.c ****     return ((double)value);
 747              		.loc 1 261 5 is_stmt 1 view .LVU215
 748              		.loc 1 261 13 is_stmt 0 view .LVU216
 749 0002 FFF7FEFF 		bl	__aeabi_ui2d
 750              	.LVL74:
 262:SCan/SC24/artifacts/MCB/c_source/Src/mcb.c **** }
 751              		.loc 1 262 1 view .LVU217
 752 0006 41EC100B 		vmov	d0, r0, r1
ARM GAS  /tmp/ccQYM1B7.s 			page 20


 753 000a 08BD     		pop	{r3, pc}
 754              		.cfi_endproc
 755              	.LFE26:
 757              		.section	.text.mcb_dspace_time_and_date_datetime_day_is_in_range,"ax",%progbits
 758              		.align	1
 759              		.global	mcb_dspace_time_and_date_datetime_day_is_in_range
 760              		.syntax unified
 761              		.thumb
 762              		.thumb_func
 763              		.fpu fpv4-sp-d16
 765              	mcb_dspace_time_and_date_datetime_day_is_in_range:
 766              	.LVL75:
 767              	.LFB27:
 263:SCan/SC24/artifacts/MCB/c_source/Src/mcb.c **** 
 264:SCan/SC24/artifacts/MCB/c_source/Src/mcb.c **** bool mcb_dspace_time_and_date_datetime_day_is_in_range(uint8_t value)
 265:SCan/SC24/artifacts/MCB/c_source/Src/mcb.c **** {
 768              		.loc 1 265 1 is_stmt 1 view -0
 769              		.cfi_startproc
 770              		@ args = 0, pretend = 0, frame = 0
 771              		@ frame_needed = 0, uses_anonymous_args = 0
 772              		@ link register save eliminated.
 266:SCan/SC24/artifacts/MCB/c_source/Src/mcb.c ****     return ((value >= 1u) && (value <= 31u));
 773              		.loc 1 266 5 view .LVU219
 774              		.loc 1 266 27 is_stmt 0 view .LVU220
 775 0000 0138     		subs	r0, r0, #1
 776              	.LVL76:
 777              		.loc 1 266 27 view .LVU221
 778 0002 C0B2     		uxtb	r0, r0
 267:SCan/SC24/artifacts/MCB/c_source/Src/mcb.c **** }
 779              		.loc 1 267 1 view .LVU222
 780 0004 1E28     		cmp	r0, #30
 781 0006 8CBF     		ite	hi
 782 0008 0020     		movhi	r0, #0
 783 000a 0120     		movls	r0, #1
 784 000c 7047     		bx	lr
 785              		.cfi_endproc
 786              	.LFE27:
 788              		.section	.text.mcb_dspace_time_and_date_datetime_hours_encode,"ax",%progbits
 789              		.align	1
 790              		.global	mcb_dspace_time_and_date_datetime_hours_encode
 791              		.syntax unified
 792              		.thumb
 793              		.thumb_func
 794              		.fpu fpv4-sp-d16
 796              	mcb_dspace_time_and_date_datetime_hours_encode:
 797              	.LVL77:
 798              	.LFB28:
 268:SCan/SC24/artifacts/MCB/c_source/Src/mcb.c **** 
 269:SCan/SC24/artifacts/MCB/c_source/Src/mcb.c **** uint8_t mcb_dspace_time_and_date_datetime_hours_encode(double value)
 270:SCan/SC24/artifacts/MCB/c_source/Src/mcb.c **** {
 799              		.loc 1 270 1 is_stmt 1 view -0
 800              		.cfi_startproc
 801              		@ args = 0, pretend = 0, frame = 0
 802              		@ frame_needed = 0, uses_anonymous_args = 0
 803              		.loc 1 270 1 is_stmt 0 view .LVU224
 804 0000 08B5     		push	{r3, lr}
 805              	.LCFI6:
ARM GAS  /tmp/ccQYM1B7.s 			page 21


 806              		.cfi_def_cfa_offset 8
 807              		.cfi_offset 3, -8
 808              		.cfi_offset 14, -4
 809 0002 51EC100B 		vmov	r0, r1, d0
 271:SCan/SC24/artifacts/MCB/c_source/Src/mcb.c ****     return (uint8_t)(value);
 810              		.loc 1 271 5 is_stmt 1 view .LVU225
 811              		.loc 1 271 12 is_stmt 0 view .LVU226
 812 0006 FFF7FEFF 		bl	__aeabi_d2uiz
 813              	.LVL78:
 272:SCan/SC24/artifacts/MCB/c_source/Src/mcb.c **** }
 814              		.loc 1 272 1 view .LVU227
 815 000a C0B2     		uxtb	r0, r0
 816 000c 08BD     		pop	{r3, pc}
 817              		.cfi_endproc
 818              	.LFE28:
 820              		.section	.text.mcb_dspace_time_and_date_datetime_hours_decode,"ax",%progbits
 821              		.align	1
 822              		.global	mcb_dspace_time_and_date_datetime_hours_decode
 823              		.syntax unified
 824              		.thumb
 825              		.thumb_func
 826              		.fpu fpv4-sp-d16
 828              	mcb_dspace_time_and_date_datetime_hours_decode:
 829              	.LVL79:
 830              	.LFB29:
 273:SCan/SC24/artifacts/MCB/c_source/Src/mcb.c **** 
 274:SCan/SC24/artifacts/MCB/c_source/Src/mcb.c **** double mcb_dspace_time_and_date_datetime_hours_decode(uint8_t value)
 275:SCan/SC24/artifacts/MCB/c_source/Src/mcb.c **** {
 831              		.loc 1 275 1 is_stmt 1 view -0
 832              		.cfi_startproc
 833              		@ args = 0, pretend = 0, frame = 0
 834              		@ frame_needed = 0, uses_anonymous_args = 0
 835              		.loc 1 275 1 is_stmt 0 view .LVU229
 836 0000 08B5     		push	{r3, lr}
 837              	.LCFI7:
 838              		.cfi_def_cfa_offset 8
 839              		.cfi_offset 3, -8
 840              		.cfi_offset 14, -4
 276:SCan/SC24/artifacts/MCB/c_source/Src/mcb.c ****     return ((double)value);
 841              		.loc 1 276 5 is_stmt 1 view .LVU230
 842              		.loc 1 276 13 is_stmt 0 view .LVU231
 843 0002 FFF7FEFF 		bl	__aeabi_ui2d
 844              	.LVL80:
 277:SCan/SC24/artifacts/MCB/c_source/Src/mcb.c **** }
 845              		.loc 1 277 1 view .LVU232
 846 0006 41EC100B 		vmov	d0, r0, r1
 847 000a 08BD     		pop	{r3, pc}
 848              		.cfi_endproc
 849              	.LFE29:
 851              		.section	.text.mcb_dspace_time_and_date_datetime_hours_is_in_range,"ax",%progbits
 852              		.align	1
 853              		.global	mcb_dspace_time_and_date_datetime_hours_is_in_range
 854              		.syntax unified
 855              		.thumb
 856              		.thumb_func
 857              		.fpu fpv4-sp-d16
 859              	mcb_dspace_time_and_date_datetime_hours_is_in_range:
ARM GAS  /tmp/ccQYM1B7.s 			page 22


 860              	.LVL81:
 861              	.LFB30:
 278:SCan/SC24/artifacts/MCB/c_source/Src/mcb.c **** 
 279:SCan/SC24/artifacts/MCB/c_source/Src/mcb.c **** bool mcb_dspace_time_and_date_datetime_hours_is_in_range(uint8_t value)
 280:SCan/SC24/artifacts/MCB/c_source/Src/mcb.c **** {
 862              		.loc 1 280 1 is_stmt 1 view -0
 863              		.cfi_startproc
 864              		@ args = 0, pretend = 0, frame = 0
 865              		@ frame_needed = 0, uses_anonymous_args = 0
 866              		@ link register save eliminated.
 281:SCan/SC24/artifacts/MCB/c_source/Src/mcb.c ****     return (value <= 23u);
 867              		.loc 1 281 5 view .LVU234
 282:SCan/SC24/artifacts/MCB/c_source/Src/mcb.c **** }
 868              		.loc 1 282 1 is_stmt 0 view .LVU235
 869 0000 1728     		cmp	r0, #23
 870 0002 8CBF     		ite	hi
 871 0004 0020     		movhi	r0, #0
 872              	.LVL82:
 873              		.loc 1 282 1 view .LVU236
 874 0006 0120     		movls	r0, #1
 875 0008 7047     		bx	lr
 876              		.cfi_endproc
 877              	.LFE30:
 879              		.section	.text.mcb_dspace_time_and_date_datetime_minutes_encode,"ax",%progbits
 880              		.align	1
 881              		.global	mcb_dspace_time_and_date_datetime_minutes_encode
 882              		.syntax unified
 883              		.thumb
 884              		.thumb_func
 885              		.fpu fpv4-sp-d16
 887              	mcb_dspace_time_and_date_datetime_minutes_encode:
 888              	.LVL83:
 889              	.LFB31:
 283:SCan/SC24/artifacts/MCB/c_source/Src/mcb.c **** 
 284:SCan/SC24/artifacts/MCB/c_source/Src/mcb.c **** uint8_t mcb_dspace_time_and_date_datetime_minutes_encode(double value)
 285:SCan/SC24/artifacts/MCB/c_source/Src/mcb.c **** {
 890              		.loc 1 285 1 is_stmt 1 view -0
 891              		.cfi_startproc
 892              		@ args = 0, pretend = 0, frame = 0
 893              		@ frame_needed = 0, uses_anonymous_args = 0
 894              		.loc 1 285 1 is_stmt 0 view .LVU238
 895 0000 08B5     		push	{r3, lr}
 896              	.LCFI8:
 897              		.cfi_def_cfa_offset 8
 898              		.cfi_offset 3, -8
 899              		.cfi_offset 14, -4
 900 0002 51EC100B 		vmov	r0, r1, d0
 286:SCan/SC24/artifacts/MCB/c_source/Src/mcb.c ****     return (uint8_t)(value);
 901              		.loc 1 286 5 is_stmt 1 view .LVU239
 902              		.loc 1 286 12 is_stmt 0 view .LVU240
 903 0006 FFF7FEFF 		bl	__aeabi_d2uiz
 904              	.LVL84:
 287:SCan/SC24/artifacts/MCB/c_source/Src/mcb.c **** }
 905              		.loc 1 287 1 view .LVU241
 906 000a C0B2     		uxtb	r0, r0
 907 000c 08BD     		pop	{r3, pc}
 908              		.cfi_endproc
ARM GAS  /tmp/ccQYM1B7.s 			page 23


 909              	.LFE31:
 911              		.section	.text.mcb_dspace_time_and_date_datetime_minutes_decode,"ax",%progbits
 912              		.align	1
 913              		.global	mcb_dspace_time_and_date_datetime_minutes_decode
 914              		.syntax unified
 915              		.thumb
 916              		.thumb_func
 917              		.fpu fpv4-sp-d16
 919              	mcb_dspace_time_and_date_datetime_minutes_decode:
 920              	.LVL85:
 921              	.LFB32:
 288:SCan/SC24/artifacts/MCB/c_source/Src/mcb.c **** 
 289:SCan/SC24/artifacts/MCB/c_source/Src/mcb.c **** double mcb_dspace_time_and_date_datetime_minutes_decode(uint8_t value)
 290:SCan/SC24/artifacts/MCB/c_source/Src/mcb.c **** {
 922              		.loc 1 290 1 is_stmt 1 view -0
 923              		.cfi_startproc
 924              		@ args = 0, pretend = 0, frame = 0
 925              		@ frame_needed = 0, uses_anonymous_args = 0
 926              		.loc 1 290 1 is_stmt 0 view .LVU243
 927 0000 08B5     		push	{r3, lr}
 928              	.LCFI9:
 929              		.cfi_def_cfa_offset 8
 930              		.cfi_offset 3, -8
 931              		.cfi_offset 14, -4
 291:SCan/SC24/artifacts/MCB/c_source/Src/mcb.c ****     return ((double)value);
 932              		.loc 1 291 5 is_stmt 1 view .LVU244
 933              		.loc 1 291 13 is_stmt 0 view .LVU245
 934 0002 FFF7FEFF 		bl	__aeabi_ui2d
 935              	.LVL86:
 292:SCan/SC24/artifacts/MCB/c_source/Src/mcb.c **** }
 936              		.loc 1 292 1 view .LVU246
 937 0006 41EC100B 		vmov	d0, r0, r1
 938 000a 08BD     		pop	{r3, pc}
 939              		.cfi_endproc
 940              	.LFE32:
 942              		.section	.text.mcb_dspace_time_and_date_datetime_minutes_is_in_range,"ax",%progbits
 943              		.align	1
 944              		.global	mcb_dspace_time_and_date_datetime_minutes_is_in_range
 945              		.syntax unified
 946              		.thumb
 947              		.thumb_func
 948              		.fpu fpv4-sp-d16
 950              	mcb_dspace_time_and_date_datetime_minutes_is_in_range:
 951              	.LVL87:
 952              	.LFB33:
 293:SCan/SC24/artifacts/MCB/c_source/Src/mcb.c **** 
 294:SCan/SC24/artifacts/MCB/c_source/Src/mcb.c **** bool mcb_dspace_time_and_date_datetime_minutes_is_in_range(uint8_t value)
 295:SCan/SC24/artifacts/MCB/c_source/Src/mcb.c **** {
 953              		.loc 1 295 1 is_stmt 1 view -0
 954              		.cfi_startproc
 955              		@ args = 0, pretend = 0, frame = 0
 956              		@ frame_needed = 0, uses_anonymous_args = 0
 957              		@ link register save eliminated.
 296:SCan/SC24/artifacts/MCB/c_source/Src/mcb.c ****     return (value <= 59u);
 958              		.loc 1 296 5 view .LVU248
 297:SCan/SC24/artifacts/MCB/c_source/Src/mcb.c **** }
 959              		.loc 1 297 1 is_stmt 0 view .LVU249
ARM GAS  /tmp/ccQYM1B7.s 			page 24


 960 0000 3B28     		cmp	r0, #59
 961 0002 8CBF     		ite	hi
 962 0004 0020     		movhi	r0, #0
 963              	.LVL88:
 964              		.loc 1 297 1 view .LVU250
 965 0006 0120     		movls	r0, #1
 966 0008 7047     		bx	lr
 967              		.cfi_endproc
 968              	.LFE33:
 970              		.section	.text.mcb_dspace_time_and_date_datetime_seconds_encode,"ax",%progbits
 971              		.align	1
 972              		.global	mcb_dspace_time_and_date_datetime_seconds_encode
 973              		.syntax unified
 974              		.thumb
 975              		.thumb_func
 976              		.fpu fpv4-sp-d16
 978              	mcb_dspace_time_and_date_datetime_seconds_encode:
 979              	.LVL89:
 980              	.LFB34:
 298:SCan/SC24/artifacts/MCB/c_source/Src/mcb.c **** 
 299:SCan/SC24/artifacts/MCB/c_source/Src/mcb.c **** uint8_t mcb_dspace_time_and_date_datetime_seconds_encode(double value)
 300:SCan/SC24/artifacts/MCB/c_source/Src/mcb.c **** {
 981              		.loc 1 300 1 is_stmt 1 view -0
 982              		.cfi_startproc
 983              		@ args = 0, pretend = 0, frame = 0
 984              		@ frame_needed = 0, uses_anonymous_args = 0
 985              		.loc 1 300 1 is_stmt 0 view .LVU252
 986 0000 08B5     		push	{r3, lr}
 987              	.LCFI10:
 988              		.cfi_def_cfa_offset 8
 989              		.cfi_offset 3, -8
 990              		.cfi_offset 14, -4
 991 0002 51EC100B 		vmov	r0, r1, d0
 301:SCan/SC24/artifacts/MCB/c_source/Src/mcb.c ****     return (uint8_t)(value);
 992              		.loc 1 301 5 is_stmt 1 view .LVU253
 993              		.loc 1 301 12 is_stmt 0 view .LVU254
 994 0006 FFF7FEFF 		bl	__aeabi_d2uiz
 995              	.LVL90:
 302:SCan/SC24/artifacts/MCB/c_source/Src/mcb.c **** }
 996              		.loc 1 302 1 view .LVU255
 997 000a C0B2     		uxtb	r0, r0
 998 000c 08BD     		pop	{r3, pc}
 999              		.cfi_endproc
 1000              	.LFE34:
 1002              		.section	.text.mcb_dspace_time_and_date_datetime_seconds_decode,"ax",%progbits
 1003              		.align	1
 1004              		.global	mcb_dspace_time_and_date_datetime_seconds_decode
 1005              		.syntax unified
 1006              		.thumb
 1007              		.thumb_func
 1008              		.fpu fpv4-sp-d16
 1010              	mcb_dspace_time_and_date_datetime_seconds_decode:
 1011              	.LVL91:
 1012              	.LFB35:
 303:SCan/SC24/artifacts/MCB/c_source/Src/mcb.c **** 
 304:SCan/SC24/artifacts/MCB/c_source/Src/mcb.c **** double mcb_dspace_time_and_date_datetime_seconds_decode(uint8_t value)
 305:SCan/SC24/artifacts/MCB/c_source/Src/mcb.c **** {
ARM GAS  /tmp/ccQYM1B7.s 			page 25


 1013              		.loc 1 305 1 is_stmt 1 view -0
 1014              		.cfi_startproc
 1015              		@ args = 0, pretend = 0, frame = 0
 1016              		@ frame_needed = 0, uses_anonymous_args = 0
 1017              		.loc 1 305 1 is_stmt 0 view .LVU257
 1018 0000 08B5     		push	{r3, lr}
 1019              	.LCFI11:
 1020              		.cfi_def_cfa_offset 8
 1021              		.cfi_offset 3, -8
 1022              		.cfi_offset 14, -4
 306:SCan/SC24/artifacts/MCB/c_source/Src/mcb.c ****     return ((double)value);
 1023              		.loc 1 306 5 is_stmt 1 view .LVU258
 1024              		.loc 1 306 13 is_stmt 0 view .LVU259
 1025 0002 FFF7FEFF 		bl	__aeabi_ui2d
 1026              	.LVL92:
 307:SCan/SC24/artifacts/MCB/c_source/Src/mcb.c **** }
 1027              		.loc 1 307 1 view .LVU260
 1028 0006 41EC100B 		vmov	d0, r0, r1
 1029 000a 08BD     		pop	{r3, pc}
 1030              		.cfi_endproc
 1031              	.LFE35:
 1033              		.section	.text.mcb_dspace_time_and_date_datetime_seconds_is_in_range,"ax",%progbits
 1034              		.align	1
 1035              		.global	mcb_dspace_time_and_date_datetime_seconds_is_in_range
 1036              		.syntax unified
 1037              		.thumb
 1038              		.thumb_func
 1039              		.fpu fpv4-sp-d16
 1041              	mcb_dspace_time_and_date_datetime_seconds_is_in_range:
 1042              	.LVL93:
 1043              	.LFB36:
 308:SCan/SC24/artifacts/MCB/c_source/Src/mcb.c **** 
 309:SCan/SC24/artifacts/MCB/c_source/Src/mcb.c **** bool mcb_dspace_time_and_date_datetime_seconds_is_in_range(uint8_t value)
 310:SCan/SC24/artifacts/MCB/c_source/Src/mcb.c **** {
 1044              		.loc 1 310 1 is_stmt 1 view -0
 1045              		.cfi_startproc
 1046              		@ args = 0, pretend = 0, frame = 0
 1047              		@ frame_needed = 0, uses_anonymous_args = 0
 1048              		@ link register save eliminated.
 311:SCan/SC24/artifacts/MCB/c_source/Src/mcb.c ****     return (value <= 59u);
 1049              		.loc 1 311 5 view .LVU262
 312:SCan/SC24/artifacts/MCB/c_source/Src/mcb.c **** }
 1050              		.loc 1 312 1 is_stmt 0 view .LVU263
 1051 0000 3B28     		cmp	r0, #59
 1052 0002 8CBF     		ite	hi
 1053 0004 0020     		movhi	r0, #0
 1054              	.LVL94:
 1055              		.loc 1 312 1 view .LVU264
 1056 0006 0120     		movls	r0, #1
 1057 0008 7047     		bx	lr
 1058              		.cfi_endproc
 1059              	.LFE36:
 1061              		.section	.text.mcb_dspace_time_and_date_datetime_houndres_of_a_seconds_encode,"ax",%progbits
 1062              		.align	1
 1063              		.global	mcb_dspace_time_and_date_datetime_houndres_of_a_seconds_encode
 1064              		.syntax unified
 1065              		.thumb
ARM GAS  /tmp/ccQYM1B7.s 			page 26


 1066              		.thumb_func
 1067              		.fpu fpv4-sp-d16
 1069              	mcb_dspace_time_and_date_datetime_houndres_of_a_seconds_encode:
 1070              	.LVL95:
 1071              	.LFB37:
 313:SCan/SC24/artifacts/MCB/c_source/Src/mcb.c **** 
 314:SCan/SC24/artifacts/MCB/c_source/Src/mcb.c **** uint8_t mcb_dspace_time_and_date_datetime_houndres_of_a_seconds_encode(double value)
 315:SCan/SC24/artifacts/MCB/c_source/Src/mcb.c **** {
 1072              		.loc 1 315 1 is_stmt 1 view -0
 1073              		.cfi_startproc
 1074              		@ args = 0, pretend = 0, frame = 0
 1075              		@ frame_needed = 0, uses_anonymous_args = 0
 1076              		.loc 1 315 1 is_stmt 0 view .LVU266
 1077 0000 08B5     		push	{r3, lr}
 1078              	.LCFI12:
 1079              		.cfi_def_cfa_offset 8
 1080              		.cfi_offset 3, -8
 1081              		.cfi_offset 14, -4
 1082 0002 51EC100B 		vmov	r0, r1, d0
 316:SCan/SC24/artifacts/MCB/c_source/Src/mcb.c ****     return (uint8_t)(value);
 1083              		.loc 1 316 5 is_stmt 1 view .LVU267
 1084              		.loc 1 316 12 is_stmt 0 view .LVU268
 1085 0006 FFF7FEFF 		bl	__aeabi_d2uiz
 1086              	.LVL96:
 317:SCan/SC24/artifacts/MCB/c_source/Src/mcb.c **** }
 1087              		.loc 1 317 1 view .LVU269
 1088 000a C0B2     		uxtb	r0, r0
 1089 000c 08BD     		pop	{r3, pc}
 1090              		.cfi_endproc
 1091              	.LFE37:
 1093              		.section	.text.mcb_dspace_time_and_date_datetime_houndres_of_a_seconds_decode,"ax",%progbits
 1094              		.align	1
 1095              		.global	mcb_dspace_time_and_date_datetime_houndres_of_a_seconds_decode
 1096              		.syntax unified
 1097              		.thumb
 1098              		.thumb_func
 1099              		.fpu fpv4-sp-d16
 1101              	mcb_dspace_time_and_date_datetime_houndres_of_a_seconds_decode:
 1102              	.LVL97:
 1103              	.LFB38:
 318:SCan/SC24/artifacts/MCB/c_source/Src/mcb.c **** 
 319:SCan/SC24/artifacts/MCB/c_source/Src/mcb.c **** double mcb_dspace_time_and_date_datetime_houndres_of_a_seconds_decode(uint8_t value)
 320:SCan/SC24/artifacts/MCB/c_source/Src/mcb.c **** {
 1104              		.loc 1 320 1 is_stmt 1 view -0
 1105              		.cfi_startproc
 1106              		@ args = 0, pretend = 0, frame = 0
 1107              		@ frame_needed = 0, uses_anonymous_args = 0
 1108              		.loc 1 320 1 is_stmt 0 view .LVU271
 1109 0000 08B5     		push	{r3, lr}
 1110              	.LCFI13:
 1111              		.cfi_def_cfa_offset 8
 1112              		.cfi_offset 3, -8
 1113              		.cfi_offset 14, -4
 321:SCan/SC24/artifacts/MCB/c_source/Src/mcb.c ****     return ((double)value);
 1114              		.loc 1 321 5 is_stmt 1 view .LVU272
 1115              		.loc 1 321 13 is_stmt 0 view .LVU273
 1116 0002 FFF7FEFF 		bl	__aeabi_ui2d
ARM GAS  /tmp/ccQYM1B7.s 			page 27


 1117              	.LVL98:
 322:SCan/SC24/artifacts/MCB/c_source/Src/mcb.c **** }
 1118              		.loc 1 322 1 view .LVU274
 1119 0006 41EC100B 		vmov	d0, r0, r1
 1120 000a 08BD     		pop	{r3, pc}
 1121              		.cfi_endproc
 1122              	.LFE38:
 1124              		.section	.text.mcb_dspace_time_and_date_datetime_houndres_of_a_seconds_is_in_range,"ax",%progbits
 1125              		.align	1
 1126              		.global	mcb_dspace_time_and_date_datetime_houndres_of_a_seconds_is_in_range
 1127              		.syntax unified
 1128              		.thumb
 1129              		.thumb_func
 1130              		.fpu fpv4-sp-d16
 1132              	mcb_dspace_time_and_date_datetime_houndres_of_a_seconds_is_in_range:
 1133              	.LVL99:
 1134              	.LFB39:
 323:SCan/SC24/artifacts/MCB/c_source/Src/mcb.c **** 
 324:SCan/SC24/artifacts/MCB/c_source/Src/mcb.c **** bool mcb_dspace_time_and_date_datetime_houndres_of_a_seconds_is_in_range(uint8_t value)
 325:SCan/SC24/artifacts/MCB/c_source/Src/mcb.c **** {
 1135              		.loc 1 325 1 is_stmt 1 view -0
 1136              		.cfi_startproc
 1137              		@ args = 0, pretend = 0, frame = 0
 1138              		@ frame_needed = 0, uses_anonymous_args = 0
 1139              		@ link register save eliminated.
 326:SCan/SC24/artifacts/MCB/c_source/Src/mcb.c ****     return (value <= 99u);
 1140              		.loc 1 326 5 view .LVU276
 327:SCan/SC24/artifacts/MCB/c_source/Src/mcb.c **** }
 1141              		.loc 1 327 1 is_stmt 0 view .LVU277
 1142 0000 6328     		cmp	r0, #99
 1143 0002 8CBF     		ite	hi
 1144 0004 0020     		movhi	r0, #0
 1145              	.LVL100:
 1146              		.loc 1 327 1 view .LVU278
 1147 0006 0120     		movls	r0, #1
 1148 0008 7047     		bx	lr
 1149              		.cfi_endproc
 1150              	.LFE39:
 1152              		.section	.text.mcb_tlb_bat_signals_status_pack,"ax",%progbits
 1153              		.align	1
 1154              		.global	mcb_tlb_bat_signals_status_pack
 1155              		.syntax unified
 1156              		.thumb
 1157              		.thumb_func
 1158              		.fpu fpv4-sp-d16
 1160              	mcb_tlb_bat_signals_status_pack:
 1161              	.LVL101:
 1162              	.LFB40:
 328:SCan/SC24/artifacts/MCB/c_source/Src/mcb.c **** 
 329:SCan/SC24/artifacts/MCB/c_source/Src/mcb.c **** int mcb_tlb_bat_signals_status_pack(
 330:SCan/SC24/artifacts/MCB/c_source/Src/mcb.c ****     uint8_t *dst_p,
 331:SCan/SC24/artifacts/MCB/c_source/Src/mcb.c ****     const struct mcb_tlb_bat_signals_status_t *src_p,
 332:SCan/SC24/artifacts/MCB/c_source/Src/mcb.c ****     size_t size)
 333:SCan/SC24/artifacts/MCB/c_source/Src/mcb.c **** {
 1163              		.loc 1 333 1 is_stmt 1 view -0
 1164              		.cfi_startproc
 1165              		@ args = 0, pretend = 0, frame = 0
ARM GAS  /tmp/ccQYM1B7.s 			page 28


 1166              		@ frame_needed = 0, uses_anonymous_args = 0
 1167              		@ link register save eliminated.
 334:SCan/SC24/artifacts/MCB/c_source/Src/mcb.c ****     if (size < 4u) {
 1168              		.loc 1 334 5 view .LVU280
 1169              		.loc 1 334 8 is_stmt 0 view .LVU281
 1170 0000 032A     		cmp	r2, #3
 1171 0002 59D9     		bls	.L47
 335:SCan/SC24/artifacts/MCB/c_source/Src/mcb.c ****         return (-EINVAL);
 336:SCan/SC24/artifacts/MCB/c_source/Src/mcb.c ****     }
 337:SCan/SC24/artifacts/MCB/c_source/Src/mcb.c **** 
 338:SCan/SC24/artifacts/MCB/c_source/Src/mcb.c ****     memset(&dst_p[0], 0, 4);
 1172              		.loc 1 338 5 is_stmt 1 view .LVU282
 1173 0004 0023     		movs	r3, #0
 1174 0006 0360     		str	r3, [r0]	@ unaligned
 339:SCan/SC24/artifacts/MCB/c_source/Src/mcb.c **** 
 340:SCan/SC24/artifacts/MCB/c_source/Src/mcb.c ****     dst_p[0] |= pack_left_shift_u8(src_p->air_pos_cmd_is_active, 0u, 0x01u);
 1175              		.loc 1 340 5 view .LVU283
 1176              		.loc 1 340 17 is_stmt 0 view .LVU284
 1177 0008 0B78     		ldrb	r3, [r1]	@ zero_extendqisi2
 1178              	.LVL102:
 1179              	.LBB2066:
 1180              	.LBI2066:
  35:SCan/SC24/artifacts/MCB/c_source/Src/mcb.c ****     uint8_t value,
 1181              		.loc 1 35 23 is_stmt 1 view .LVU285
 1182              	.LBB2067:
  40:SCan/SC24/artifacts/MCB/c_source/Src/mcb.c **** }
 1183              		.loc 1 40 5 view .LVU286
  40:SCan/SC24/artifacts/MCB/c_source/Src/mcb.c **** }
 1184              		.loc 1 40 12 is_stmt 0 view .LVU287
 1185 000a 03F00102 		and	r2, r3, #1
 1186              	.LVL103:
  40:SCan/SC24/artifacts/MCB/c_source/Src/mcb.c **** }
 1187              		.loc 1 40 12 view .LVU288
 1188              	.LBE2067:
 1189              	.LBE2066:
 1190              		.loc 1 340 14 view .LVU289
 1191 000e 0270     		strb	r2, [r0]
 341:SCan/SC24/artifacts/MCB/c_source/Src/mcb.c ****     dst_p[0] |= pack_left_shift_u8(src_p->air_pos_is_closed, 1u, 0x02u);
 1192              		.loc 1 341 5 is_stmt 1 view .LVU290
 1193              		.loc 1 341 17 is_stmt 0 view .LVU291
 1194 0010 4B78     		ldrb	r3, [r1, #1]	@ zero_extendqisi2
 1195              	.LVL104:
 1196              	.LBB2068:
 1197              	.LBI2068:
  35:SCan/SC24/artifacts/MCB/c_source/Src/mcb.c ****     uint8_t value,
 1198              		.loc 1 35 23 is_stmt 1 view .LVU292
 1199              	.LBB2069:
  40:SCan/SC24/artifacts/MCB/c_source/Src/mcb.c **** }
 1200              		.loc 1 40 5 view .LVU293
  40:SCan/SC24/artifacts/MCB/c_source/Src/mcb.c **** }
 1201              		.loc 1 40 38 is_stmt 0 view .LVU294
 1202 0012 5B00     		lsls	r3, r3, #1
 1203              	.LVL105:
  40:SCan/SC24/artifacts/MCB/c_source/Src/mcb.c **** }
 1204              		.loc 1 40 12 view .LVU295
 1205 0014 03F00203 		and	r3, r3, #2
 1206              	.LVL106:
ARM GAS  /tmp/ccQYM1B7.s 			page 29


  40:SCan/SC24/artifacts/MCB/c_source/Src/mcb.c **** }
 1207              		.loc 1 40 12 view .LVU296
 1208              	.LBE2069:
 1209              	.LBE2068:
 1210              		.loc 1 341 14 view .LVU297
 1211 0018 1343     		orrs	r3, r3, r2
 1212 001a 0370     		strb	r3, [r0]
 342:SCan/SC24/artifacts/MCB/c_source/Src/mcb.c ****     dst_p[0] |= pack_left_shift_u8(src_p->air_neg_cmd_is_active, 2u, 0x04u);
 1213              		.loc 1 342 5 is_stmt 1 view .LVU298
 1214              		.loc 1 342 17 is_stmt 0 view .LVU299
 1215 001c 8A78     		ldrb	r2, [r1, #2]	@ zero_extendqisi2
 1216              	.LVL107:
 1217              	.LBB2070:
 1218              	.LBI2070:
  35:SCan/SC24/artifacts/MCB/c_source/Src/mcb.c ****     uint8_t value,
 1219              		.loc 1 35 23 is_stmt 1 view .LVU300
 1220              	.LBB2071:
  40:SCan/SC24/artifacts/MCB/c_source/Src/mcb.c **** }
 1221              		.loc 1 40 5 view .LVU301
  40:SCan/SC24/artifacts/MCB/c_source/Src/mcb.c **** }
 1222              		.loc 1 40 38 is_stmt 0 view .LVU302
 1223 001e 9200     		lsls	r2, r2, #2
 1224              	.LVL108:
  40:SCan/SC24/artifacts/MCB/c_source/Src/mcb.c **** }
 1225              		.loc 1 40 12 view .LVU303
 1226 0020 02F00402 		and	r2, r2, #4
 1227              	.LVL109:
  40:SCan/SC24/artifacts/MCB/c_source/Src/mcb.c **** }
 1228              		.loc 1 40 12 view .LVU304
 1229              	.LBE2071:
 1230              	.LBE2070:
 1231              		.loc 1 342 14 view .LVU305
 1232 0024 1343     		orrs	r3, r3, r2
 1233 0026 0370     		strb	r3, [r0]
 343:SCan/SC24/artifacts/MCB/c_source/Src/mcb.c ****     dst_p[0] |= pack_left_shift_u8(src_p->air_neg_is_closed, 3u, 0x08u);
 1234              		.loc 1 343 5 is_stmt 1 view .LVU306
 1235              		.loc 1 343 17 is_stmt 0 view .LVU307
 1236 0028 CA78     		ldrb	r2, [r1, #3]	@ zero_extendqisi2
 1237              	.LVL110:
 1238              	.LBB2072:
 1239              	.LBI2072:
  35:SCan/SC24/artifacts/MCB/c_source/Src/mcb.c ****     uint8_t value,
 1240              		.loc 1 35 23 is_stmt 1 view .LVU308
 1241              	.LBB2073:
  40:SCan/SC24/artifacts/MCB/c_source/Src/mcb.c **** }
 1242              		.loc 1 40 5 view .LVU309
  40:SCan/SC24/artifacts/MCB/c_source/Src/mcb.c **** }
 1243              		.loc 1 40 38 is_stmt 0 view .LVU310
 1244 002a D200     		lsls	r2, r2, #3
 1245              	.LVL111:
  40:SCan/SC24/artifacts/MCB/c_source/Src/mcb.c **** }
 1246              		.loc 1 40 12 view .LVU311
 1247 002c 02F00802 		and	r2, r2, #8
 1248              	.LVL112:
  40:SCan/SC24/artifacts/MCB/c_source/Src/mcb.c **** }
 1249              		.loc 1 40 12 view .LVU312
 1250              	.LBE2073:
ARM GAS  /tmp/ccQYM1B7.s 			page 30


 1251              	.LBE2072:
 1252              		.loc 1 343 14 view .LVU313
 1253 0030 1343     		orrs	r3, r3, r2
 1254 0032 0370     		strb	r3, [r0]
 344:SCan/SC24/artifacts/MCB/c_source/Src/mcb.c ****     dst_p[0] |= pack_left_shift_u8(src_p->dcbus_prech_rly_cmd_is_active, 4u, 0x10u);
 1255              		.loc 1 344 5 is_stmt 1 view .LVU314
 1256              		.loc 1 344 17 is_stmt 0 view .LVU315
 1257 0034 0A79     		ldrb	r2, [r1, #4]	@ zero_extendqisi2
 1258              	.LVL113:
 1259              	.LBB2074:
 1260              	.LBI2074:
  35:SCan/SC24/artifacts/MCB/c_source/Src/mcb.c ****     uint8_t value,
 1261              		.loc 1 35 23 is_stmt 1 view .LVU316
 1262              	.LBB2075:
  40:SCan/SC24/artifacts/MCB/c_source/Src/mcb.c **** }
 1263              		.loc 1 40 5 view .LVU317
  40:SCan/SC24/artifacts/MCB/c_source/Src/mcb.c **** }
 1264              		.loc 1 40 38 is_stmt 0 view .LVU318
 1265 0036 1201     		lsls	r2, r2, #4
 1266              	.LVL114:
  40:SCan/SC24/artifacts/MCB/c_source/Src/mcb.c **** }
 1267              		.loc 1 40 12 view .LVU319
 1268 0038 02F01002 		and	r2, r2, #16
 1269              	.LVL115:
  40:SCan/SC24/artifacts/MCB/c_source/Src/mcb.c **** }
 1270              		.loc 1 40 12 view .LVU320
 1271              	.LBE2075:
 1272              	.LBE2074:
 1273              		.loc 1 344 14 view .LVU321
 1274 003c 1343     		orrs	r3, r3, r2
 1275 003e 0370     		strb	r3, [r0]
 345:SCan/SC24/artifacts/MCB/c_source/Src/mcb.c ****     dst_p[0] |= pack_left_shift_u8(src_p->dcbus_prech_rly_is_closed, 5u, 0x20u);
 1276              		.loc 1 345 5 is_stmt 1 view .LVU322
 1277              		.loc 1 345 17 is_stmt 0 view .LVU323
 1278 0040 4A79     		ldrb	r2, [r1, #5]	@ zero_extendqisi2
 1279              	.LVL116:
 1280              	.LBB2076:
 1281              	.LBI2076:
  35:SCan/SC24/artifacts/MCB/c_source/Src/mcb.c ****     uint8_t value,
 1282              		.loc 1 35 23 is_stmt 1 view .LVU324
 1283              	.LBB2077:
  40:SCan/SC24/artifacts/MCB/c_source/Src/mcb.c **** }
 1284              		.loc 1 40 5 view .LVU325
  40:SCan/SC24/artifacts/MCB/c_source/Src/mcb.c **** }
 1285              		.loc 1 40 38 is_stmt 0 view .LVU326
 1286 0042 5201     		lsls	r2, r2, #5
 1287              	.LVL117:
  40:SCan/SC24/artifacts/MCB/c_source/Src/mcb.c **** }
 1288              		.loc 1 40 12 view .LVU327
 1289 0044 02F02002 		and	r2, r2, #32
 1290              	.LVL118:
  40:SCan/SC24/artifacts/MCB/c_source/Src/mcb.c **** }
 1291              		.loc 1 40 12 view .LVU328
 1292              	.LBE2077:
 1293              	.LBE2076:
 1294              		.loc 1 345 14 view .LVU329
 1295 0048 1343     		orrs	r3, r3, r2
ARM GAS  /tmp/ccQYM1B7.s 			page 31


 1296 004a 0370     		strb	r3, [r0]
 346:SCan/SC24/artifacts/MCB/c_source/Src/mcb.c ****     dst_p[0] |= pack_left_shift_u8(src_p->ams_err_is_active, 6u, 0x40u);
 1297              		.loc 1 346 5 is_stmt 1 view .LVU330
 1298              		.loc 1 346 17 is_stmt 0 view .LVU331
 1299 004c 8A79     		ldrb	r2, [r1, #6]	@ zero_extendqisi2
 1300              	.LVL119:
 1301              	.LBB2078:
 1302              	.LBI2078:
  35:SCan/SC24/artifacts/MCB/c_source/Src/mcb.c ****     uint8_t value,
 1303              		.loc 1 35 23 is_stmt 1 view .LVU332
 1304              	.LBB2079:
  40:SCan/SC24/artifacts/MCB/c_source/Src/mcb.c **** }
 1305              		.loc 1 40 5 view .LVU333
  40:SCan/SC24/artifacts/MCB/c_source/Src/mcb.c **** }
 1306              		.loc 1 40 38 is_stmt 0 view .LVU334
 1307 004e 9201     		lsls	r2, r2, #6
 1308              	.LVL120:
  40:SCan/SC24/artifacts/MCB/c_source/Src/mcb.c **** }
 1309              		.loc 1 40 12 view .LVU335
 1310 0050 02F04002 		and	r2, r2, #64
 1311              	.LVL121:
  40:SCan/SC24/artifacts/MCB/c_source/Src/mcb.c **** }
 1312              		.loc 1 40 12 view .LVU336
 1313              	.LBE2079:
 1314              	.LBE2078:
 1315              		.loc 1 346 14 view .LVU337
 1316 0054 1343     		orrs	r3, r3, r2
 1317 0056 0370     		strb	r3, [r0]
 347:SCan/SC24/artifacts/MCB/c_source/Src/mcb.c ****     dst_p[0] |= pack_left_shift_u8(src_p->imd_err_is_active, 7u, 0x80u);
 1318              		.loc 1 347 5 is_stmt 1 view .LVU338
 1319              		.loc 1 347 17 is_stmt 0 view .LVU339
 1320 0058 CA79     		ldrb	r2, [r1, #7]	@ zero_extendqisi2
 1321              	.LVL122:
 1322              	.LBB2080:
 1323              	.LBI2080:
  35:SCan/SC24/artifacts/MCB/c_source/Src/mcb.c ****     uint8_t value,
 1324              		.loc 1 35 23 is_stmt 1 view .LVU340
 1325              	.LBB2081:
  40:SCan/SC24/artifacts/MCB/c_source/Src/mcb.c **** }
 1326              		.loc 1 40 5 view .LVU341
  40:SCan/SC24/artifacts/MCB/c_source/Src/mcb.c **** }
 1327              		.loc 1 40 38 is_stmt 0 view .LVU342
 1328 005a D201     		lsls	r2, r2, #7
 1329              	.LVL123:
  40:SCan/SC24/artifacts/MCB/c_source/Src/mcb.c **** }
 1330              		.loc 1 40 12 view .LVU343
 1331 005c 02F08002 		and	r2, r2, #128
 1332              	.LVL124:
  40:SCan/SC24/artifacts/MCB/c_source/Src/mcb.c **** }
 1333              		.loc 1 40 12 view .LVU344
 1334              	.LBE2081:
 1335              	.LBE2080:
 1336              		.loc 1 347 14 view .LVU345
 1337 0060 1343     		orrs	r3, r3, r2
 1338 0062 0370     		strb	r3, [r0]
 348:SCan/SC24/artifacts/MCB/c_source/Src/mcb.c ****     dst_p[1] |= pack_left_shift_u8(src_p->tsal_green_is_active, 0u, 0x01u);
 1339              		.loc 1 348 5 is_stmt 1 view .LVU346
ARM GAS  /tmp/ccQYM1B7.s 			page 32


 1340              		.loc 1 348 17 is_stmt 0 view .LVU347
 1341 0064 0B7A     		ldrb	r3, [r1, #8]	@ zero_extendqisi2
 1342              	.LVL125:
 1343              	.LBB2082:
 1344              	.LBI2082:
  35:SCan/SC24/artifacts/MCB/c_source/Src/mcb.c ****     uint8_t value,
 1345              		.loc 1 35 23 is_stmt 1 view .LVU348
 1346              	.LBB2083:
  40:SCan/SC24/artifacts/MCB/c_source/Src/mcb.c **** }
 1347              		.loc 1 40 5 view .LVU349
  40:SCan/SC24/artifacts/MCB/c_source/Src/mcb.c **** }
 1348              		.loc 1 40 12 is_stmt 0 view .LVU350
 1349 0066 03F00102 		and	r2, r3, #1
 1350              	.LVL126:
  40:SCan/SC24/artifacts/MCB/c_source/Src/mcb.c **** }
 1351              		.loc 1 40 12 view .LVU351
 1352              	.LBE2083:
 1353              	.LBE2082:
 1354              		.loc 1 348 14 view .LVU352
 1355 006a 4270     		strb	r2, [r0, #1]
 349:SCan/SC24/artifacts/MCB/c_source/Src/mcb.c ****     dst_p[1] |= pack_left_shift_u8(src_p->dcbus_is_over60_v, 1u, 0x02u);
 1356              		.loc 1 349 5 is_stmt 1 view .LVU353
 1357              		.loc 1 349 17 is_stmt 0 view .LVU354
 1358 006c 4B7A     		ldrb	r3, [r1, #9]	@ zero_extendqisi2
 1359              	.LVL127:
 1360              	.LBB2084:
 1361              	.LBI2084:
  35:SCan/SC24/artifacts/MCB/c_source/Src/mcb.c ****     uint8_t value,
 1362              		.loc 1 35 23 is_stmt 1 view .LVU355
 1363              	.LBB2085:
  40:SCan/SC24/artifacts/MCB/c_source/Src/mcb.c **** }
 1364              		.loc 1 40 5 view .LVU356
  40:SCan/SC24/artifacts/MCB/c_source/Src/mcb.c **** }
 1365              		.loc 1 40 38 is_stmt 0 view .LVU357
 1366 006e 5B00     		lsls	r3, r3, #1
 1367              	.LVL128:
  40:SCan/SC24/artifacts/MCB/c_source/Src/mcb.c **** }
 1368              		.loc 1 40 12 view .LVU358
 1369 0070 03F00203 		and	r3, r3, #2
 1370              	.LVL129:
  40:SCan/SC24/artifacts/MCB/c_source/Src/mcb.c **** }
 1371              		.loc 1 40 12 view .LVU359
 1372              	.LBE2085:
 1373              	.LBE2084:
 1374              		.loc 1 349 14 view .LVU360
 1375 0074 1343     		orrs	r3, r3, r2
 1376 0076 4370     		strb	r3, [r0, #1]
 350:SCan/SC24/artifacts/MCB/c_source/Src/mcb.c ****     dst_p[1] |= pack_left_shift_u8(src_p->imp_any_is_active, 2u, 0x04u);
 1377              		.loc 1 350 5 is_stmt 1 view .LVU361
 1378              		.loc 1 350 17 is_stmt 0 view .LVU362
 1379 0078 8A7A     		ldrb	r2, [r1, #10]	@ zero_extendqisi2
 1380              	.LVL130:
 1381              	.LBB2086:
 1382              	.LBI2086:
  35:SCan/SC24/artifacts/MCB/c_source/Src/mcb.c ****     uint8_t value,
 1383              		.loc 1 35 23 is_stmt 1 view .LVU363
 1384              	.LBB2087:
ARM GAS  /tmp/ccQYM1B7.s 			page 33


  40:SCan/SC24/artifacts/MCB/c_source/Src/mcb.c **** }
 1385              		.loc 1 40 5 view .LVU364
  40:SCan/SC24/artifacts/MCB/c_source/Src/mcb.c **** }
 1386              		.loc 1 40 38 is_stmt 0 view .LVU365
 1387 007a 9200     		lsls	r2, r2, #2
 1388              	.LVL131:
  40:SCan/SC24/artifacts/MCB/c_source/Src/mcb.c **** }
 1389              		.loc 1 40 12 view .LVU366
 1390 007c 02F00402 		and	r2, r2, #4
 1391              	.LVL132:
  40:SCan/SC24/artifacts/MCB/c_source/Src/mcb.c **** }
 1392              		.loc 1 40 12 view .LVU367
 1393              	.LBE2087:
 1394              	.LBE2086:
 1395              		.loc 1 350 14 view .LVU368
 1396 0080 1343     		orrs	r3, r3, r2
 1397 0082 4370     		strb	r3, [r0, #1]
 351:SCan/SC24/artifacts/MCB/c_source/Src/mcb.c ****     dst_p[1] |= pack_left_shift_u8(src_p->imp_hv_relays_state_is_active, 3u, 0x08u);
 1398              		.loc 1 351 5 is_stmt 1 view .LVU369
 1399              		.loc 1 351 17 is_stmt 0 view .LVU370
 1400 0084 CA7A     		ldrb	r2, [r1, #11]	@ zero_extendqisi2
 1401              	.LVL133:
 1402              	.LBB2088:
 1403              	.LBI2088:
  35:SCan/SC24/artifacts/MCB/c_source/Src/mcb.c ****     uint8_t value,
 1404              		.loc 1 35 23 is_stmt 1 view .LVU371
 1405              	.LBB2089:
  40:SCan/SC24/artifacts/MCB/c_source/Src/mcb.c **** }
 1406              		.loc 1 40 5 view .LVU372
  40:SCan/SC24/artifacts/MCB/c_source/Src/mcb.c **** }
 1407              		.loc 1 40 38 is_stmt 0 view .LVU373
 1408 0086 D200     		lsls	r2, r2, #3
 1409              	.LVL134:
  40:SCan/SC24/artifacts/MCB/c_source/Src/mcb.c **** }
 1410              		.loc 1 40 12 view .LVU374
 1411 0088 02F00802 		and	r2, r2, #8
 1412              	.LVL135:
  40:SCan/SC24/artifacts/MCB/c_source/Src/mcb.c **** }
 1413              		.loc 1 40 12 view .LVU375
 1414              	.LBE2089:
 1415              	.LBE2088:
 1416              		.loc 1 351 14 view .LVU376
 1417 008c 1343     		orrs	r3, r3, r2
 1418 008e 4370     		strb	r3, [r0, #1]
 352:SCan/SC24/artifacts/MCB/c_source/Src/mcb.c ****     dst_p[1] |= pack_left_shift_u8(src_p->imp_dcbus_is_active, 4u, 0x10u);
 1419              		.loc 1 352 5 is_stmt 1 view .LVU377
 1420              		.loc 1 352 17 is_stmt 0 view .LVU378
 1421 0090 0A7B     		ldrb	r2, [r1, #12]	@ zero_extendqisi2
 1422              	.LVL136:
 1423              	.LBB2090:
 1424              	.LBI2090:
  35:SCan/SC24/artifacts/MCB/c_source/Src/mcb.c ****     uint8_t value,
 1425              		.loc 1 35 23 is_stmt 1 view .LVU379
 1426              	.LBB2091:
  40:SCan/SC24/artifacts/MCB/c_source/Src/mcb.c **** }
 1427              		.loc 1 40 5 view .LVU380
  40:SCan/SC24/artifacts/MCB/c_source/Src/mcb.c **** }
ARM GAS  /tmp/ccQYM1B7.s 			page 34


 1428              		.loc 1 40 38 is_stmt 0 view .LVU381
 1429 0092 1201     		lsls	r2, r2, #4
 1430              	.LVL137:
  40:SCan/SC24/artifacts/MCB/c_source/Src/mcb.c **** }
 1431              		.loc 1 40 12 view .LVU382
 1432 0094 02F01002 		and	r2, r2, #16
 1433              	.LVL138:
  40:SCan/SC24/artifacts/MCB/c_source/Src/mcb.c **** }
 1434              		.loc 1 40 12 view .LVU383
 1435              	.LBE2091:
 1436              	.LBE2090:
 1437              		.loc 1 352 14 view .LVU384
 1438 0098 1343     		orrs	r3, r3, r2
 1439 009a 4370     		strb	r3, [r0, #1]
 353:SCan/SC24/artifacts/MCB/c_source/Src/mcb.c ****     dst_p[1] |= pack_left_shift_u8(src_p->air_pos_stg_mech_state_signal_is_active, 5u, 0x20u);
 1440              		.loc 1 353 5 is_stmt 1 view .LVU385
 1441              		.loc 1 353 17 is_stmt 0 view .LVU386
 1442 009c 4A7B     		ldrb	r2, [r1, #13]	@ zero_extendqisi2
 1443              	.LVL139:
 1444              	.LBB2092:
 1445              	.LBI2092:
  35:SCan/SC24/artifacts/MCB/c_source/Src/mcb.c ****     uint8_t value,
 1446              		.loc 1 35 23 is_stmt 1 view .LVU387
 1447              	.LBB2093:
  40:SCan/SC24/artifacts/MCB/c_source/Src/mcb.c **** }
 1448              		.loc 1 40 5 view .LVU388
  40:SCan/SC24/artifacts/MCB/c_source/Src/mcb.c **** }
 1449              		.loc 1 40 38 is_stmt 0 view .LVU389
 1450 009e 5201     		lsls	r2, r2, #5
 1451              	.LVL140:
  40:SCan/SC24/artifacts/MCB/c_source/Src/mcb.c **** }
 1452              		.loc 1 40 12 view .LVU390
 1453 00a0 02F02002 		and	r2, r2, #32
 1454              	.LVL141:
  40:SCan/SC24/artifacts/MCB/c_source/Src/mcb.c **** }
 1455              		.loc 1 40 12 view .LVU391
 1456              	.LBE2093:
 1457              	.LBE2092:
 1458              		.loc 1 353 14 view .LVU392
 1459 00a4 1343     		orrs	r3, r3, r2
 1460 00a6 4370     		strb	r3, [r0, #1]
 354:SCan/SC24/artifacts/MCB/c_source/Src/mcb.c ****     dst_p[1] |= pack_left_shift_u8(src_p->air_neg_stg_mech_state_signal_is_active, 6u, 0x40u);
 1461              		.loc 1 354 5 is_stmt 1 view .LVU393
 1462              		.loc 1 354 17 is_stmt 0 view .LVU394
 1463 00a8 8A7B     		ldrb	r2, [r1, #14]	@ zero_extendqisi2
 1464              	.LVL142:
 1465              	.LBB2094:
 1466              	.LBI2094:
  35:SCan/SC24/artifacts/MCB/c_source/Src/mcb.c ****     uint8_t value,
 1467              		.loc 1 35 23 is_stmt 1 view .LVU395
 1468              	.LBB2095:
  40:SCan/SC24/artifacts/MCB/c_source/Src/mcb.c **** }
 1469              		.loc 1 40 5 view .LVU396
  40:SCan/SC24/artifacts/MCB/c_source/Src/mcb.c **** }
 1470              		.loc 1 40 38 is_stmt 0 view .LVU397
 1471 00aa 9201     		lsls	r2, r2, #6
 1472              	.LVL143:
ARM GAS  /tmp/ccQYM1B7.s 			page 35


  40:SCan/SC24/artifacts/MCB/c_source/Src/mcb.c **** }
 1473              		.loc 1 40 12 view .LVU398
 1474 00ac 02F04002 		and	r2, r2, #64
 1475              	.LVL144:
  40:SCan/SC24/artifacts/MCB/c_source/Src/mcb.c **** }
 1476              		.loc 1 40 12 view .LVU399
 1477              	.LBE2095:
 1478              	.LBE2094:
 1479              		.loc 1 354 14 view .LVU400
 1480 00b0 1343     		orrs	r3, r3, r2
 1481 00b2 4370     		strb	r3, [r0, #1]
 355:SCan/SC24/artifacts/MCB/c_source/Src/mcb.c **** 
 356:SCan/SC24/artifacts/MCB/c_source/Src/mcb.c ****     return (4);
 1482              		.loc 1 356 5 is_stmt 1 view .LVU401
 1483              		.loc 1 356 12 is_stmt 0 view .LVU402
 1484 00b4 0420     		movs	r0, #4
 1485              	.LVL145:
 1486              		.loc 1 356 12 view .LVU403
 1487 00b6 7047     		bx	lr
 1488              	.LVL146:
 1489              	.L47:
 335:SCan/SC24/artifacts/MCB/c_source/Src/mcb.c ****     }
 1490              		.loc 1 335 16 view .LVU404
 1491 00b8 6FF01500 		mvn	r0, #21
 1492              	.LVL147:
 357:SCan/SC24/artifacts/MCB/c_source/Src/mcb.c **** }
 1493              		.loc 1 357 1 view .LVU405
 1494 00bc 7047     		bx	lr
 1495              		.cfi_endproc
 1496              	.LFE40:
 1498              		.section	.text.mcb_tlb_bat_signals_status_unpack,"ax",%progbits
 1499              		.align	1
 1500              		.global	mcb_tlb_bat_signals_status_unpack
 1501              		.syntax unified
 1502              		.thumb
 1503              		.thumb_func
 1504              		.fpu fpv4-sp-d16
 1506              	mcb_tlb_bat_signals_status_unpack:
 1507              	.LVL148:
 1508              	.LFB41:
 358:SCan/SC24/artifacts/MCB/c_source/Src/mcb.c **** 
 359:SCan/SC24/artifacts/MCB/c_source/Src/mcb.c **** int mcb_tlb_bat_signals_status_unpack(
 360:SCan/SC24/artifacts/MCB/c_source/Src/mcb.c ****     struct mcb_tlb_bat_signals_status_t *dst_p,
 361:SCan/SC24/artifacts/MCB/c_source/Src/mcb.c ****     const uint8_t *src_p,
 362:SCan/SC24/artifacts/MCB/c_source/Src/mcb.c ****     size_t size)
 363:SCan/SC24/artifacts/MCB/c_source/Src/mcb.c **** {
 1509              		.loc 1 363 1 is_stmt 1 view -0
 1510              		.cfi_startproc
 1511              		@ args = 0, pretend = 0, frame = 0
 1512              		@ frame_needed = 0, uses_anonymous_args = 0
 1513              		@ link register save eliminated.
 364:SCan/SC24/artifacts/MCB/c_source/Src/mcb.c ****     if (size < 4u) {
 1514              		.loc 1 364 5 view .LVU407
 1515              		.loc 1 364 8 is_stmt 0 view .LVU408
 1516 0000 032A     		cmp	r2, #3
 1517 0002 3CD9     		bls	.L50
 365:SCan/SC24/artifacts/MCB/c_source/Src/mcb.c ****         return (-EINVAL);
ARM GAS  /tmp/ccQYM1B7.s 			page 36


 366:SCan/SC24/artifacts/MCB/c_source/Src/mcb.c ****     }
 367:SCan/SC24/artifacts/MCB/c_source/Src/mcb.c **** 
 368:SCan/SC24/artifacts/MCB/c_source/Src/mcb.c ****     dst_p->air_pos_cmd_is_active = unpack_right_shift_u8(src_p[0], 0u, 0x01u);
 1518              		.loc 1 368 5 is_stmt 1 view .LVU409
 1519              		.loc 1 368 36 is_stmt 0 view .LVU410
 1520 0004 0B78     		ldrb	r3, [r1]	@ zero_extendqisi2
 1521              	.LVL149:
 1522              	.LBB2096:
 1523              	.LBI2096:
 131:SCan/SC24/artifacts/MCB/c_source/Src/mcb.c ****     uint8_t value,
 1524              		.loc 1 131 23 is_stmt 1 view .LVU411
 1525              	.LBB2097:
 136:SCan/SC24/artifacts/MCB/c_source/Src/mcb.c **** }
 1526              		.loc 1 136 5 view .LVU412
 136:SCan/SC24/artifacts/MCB/c_source/Src/mcb.c **** }
 1527              		.loc 1 136 22 is_stmt 0 view .LVU413
 1528 0006 03F00103 		and	r3, r3, #1
 1529              	.LVL150:
 136:SCan/SC24/artifacts/MCB/c_source/Src/mcb.c **** }
 1530              		.loc 1 136 22 view .LVU414
 1531              	.LBE2097:
 1532              	.LBE2096:
 1533              		.loc 1 368 34 view .LVU415
 1534 000a 0370     		strb	r3, [r0]
 369:SCan/SC24/artifacts/MCB/c_source/Src/mcb.c ****     dst_p->air_pos_is_closed = unpack_right_shift_u8(src_p[0], 1u, 0x02u);
 1535              		.loc 1 369 5 is_stmt 1 view .LVU416
 1536              		.loc 1 369 32 is_stmt 0 view .LVU417
 1537 000c 0B78     		ldrb	r3, [r1]	@ zero_extendqisi2
 1538              	.LVL151:
 1539              	.LBB2098:
 1540              	.LBI2098:
 131:SCan/SC24/artifacts/MCB/c_source/Src/mcb.c ****     uint8_t value,
 1541              		.loc 1 131 23 is_stmt 1 view .LVU418
 1542              	.LBB2099:
 136:SCan/SC24/artifacts/MCB/c_source/Src/mcb.c **** }
 1543              		.loc 1 136 5 view .LVU419
 136:SCan/SC24/artifacts/MCB/c_source/Src/mcb.c **** }
 1544              		.loc 1 136 12 is_stmt 0 view .LVU420
 1545 000e C3F34003 		ubfx	r3, r3, #1, #1
 1546              	.LVL152:
 136:SCan/SC24/artifacts/MCB/c_source/Src/mcb.c **** }
 1547              		.loc 1 136 12 view .LVU421
 1548              	.LBE2099:
 1549              	.LBE2098:
 1550              		.loc 1 369 30 view .LVU422
 1551 0012 4370     		strb	r3, [r0, #1]
 370:SCan/SC24/artifacts/MCB/c_source/Src/mcb.c ****     dst_p->air_neg_cmd_is_active = unpack_right_shift_u8(src_p[0], 2u, 0x04u);
 1552              		.loc 1 370 5 is_stmt 1 view .LVU423
 1553              		.loc 1 370 36 is_stmt 0 view .LVU424
 1554 0014 0B78     		ldrb	r3, [r1]	@ zero_extendqisi2
 1555              	.LVL153:
 1556              	.LBB2100:
 1557              	.LBI2100:
 131:SCan/SC24/artifacts/MCB/c_source/Src/mcb.c ****     uint8_t value,
 1558              		.loc 1 131 23 is_stmt 1 view .LVU425
 1559              	.LBB2101:
 136:SCan/SC24/artifacts/MCB/c_source/Src/mcb.c **** }
ARM GAS  /tmp/ccQYM1B7.s 			page 37


 1560              		.loc 1 136 5 view .LVU426
 136:SCan/SC24/artifacts/MCB/c_source/Src/mcb.c **** }
 1561              		.loc 1 136 12 is_stmt 0 view .LVU427
 1562 0016 C3F38003 		ubfx	r3, r3, #2, #1
 1563              	.LVL154:
 136:SCan/SC24/artifacts/MCB/c_source/Src/mcb.c **** }
 1564              		.loc 1 136 12 view .LVU428
 1565              	.LBE2101:
 1566              	.LBE2100:
 1567              		.loc 1 370 34 view .LVU429
 1568 001a 8370     		strb	r3, [r0, #2]
 371:SCan/SC24/artifacts/MCB/c_source/Src/mcb.c ****     dst_p->air_neg_is_closed = unpack_right_shift_u8(src_p[0], 3u, 0x08u);
 1569              		.loc 1 371 5 is_stmt 1 view .LVU430
 1570              		.loc 1 371 32 is_stmt 0 view .LVU431
 1571 001c 0B78     		ldrb	r3, [r1]	@ zero_extendqisi2
 1572              	.LVL155:
 1573              	.LBB2102:
 1574              	.LBI2102:
 131:SCan/SC24/artifacts/MCB/c_source/Src/mcb.c ****     uint8_t value,
 1575              		.loc 1 131 23 is_stmt 1 view .LVU432
 1576              	.LBB2103:
 136:SCan/SC24/artifacts/MCB/c_source/Src/mcb.c **** }
 1577              		.loc 1 136 5 view .LVU433
 136:SCan/SC24/artifacts/MCB/c_source/Src/mcb.c **** }
 1578              		.loc 1 136 12 is_stmt 0 view .LVU434
 1579 001e C3F3C003 		ubfx	r3, r3, #3, #1
 1580              	.LVL156:
 136:SCan/SC24/artifacts/MCB/c_source/Src/mcb.c **** }
 1581              		.loc 1 136 12 view .LVU435
 1582              	.LBE2103:
 1583              	.LBE2102:
 1584              		.loc 1 371 30 view .LVU436
 1585 0022 C370     		strb	r3, [r0, #3]
 372:SCan/SC24/artifacts/MCB/c_source/Src/mcb.c ****     dst_p->dcbus_prech_rly_cmd_is_active = unpack_right_shift_u8(src_p[0], 4u, 0x10u);
 1586              		.loc 1 372 5 is_stmt 1 view .LVU437
 1587              		.loc 1 372 44 is_stmt 0 view .LVU438
 1588 0024 0B78     		ldrb	r3, [r1]	@ zero_extendqisi2
 1589              	.LVL157:
 1590              	.LBB2104:
 1591              	.LBI2104:
 131:SCan/SC24/artifacts/MCB/c_source/Src/mcb.c ****     uint8_t value,
 1592              		.loc 1 131 23 is_stmt 1 view .LVU439
 1593              	.LBB2105:
 136:SCan/SC24/artifacts/MCB/c_source/Src/mcb.c **** }
 1594              		.loc 1 136 5 view .LVU440
 136:SCan/SC24/artifacts/MCB/c_source/Src/mcb.c **** }
 1595              		.loc 1 136 12 is_stmt 0 view .LVU441
 1596 0026 C3F30013 		ubfx	r3, r3, #4, #1
 1597              	.LVL158:
 136:SCan/SC24/artifacts/MCB/c_source/Src/mcb.c **** }
 1598              		.loc 1 136 12 view .LVU442
 1599              	.LBE2105:
 1600              	.LBE2104:
 1601              		.loc 1 372 42 view .LVU443
 1602 002a 0371     		strb	r3, [r0, #4]
 373:SCan/SC24/artifacts/MCB/c_source/Src/mcb.c ****     dst_p->dcbus_prech_rly_is_closed = unpack_right_shift_u8(src_p[0], 5u, 0x20u);
 1603              		.loc 1 373 5 is_stmt 1 view .LVU444
ARM GAS  /tmp/ccQYM1B7.s 			page 38


 1604              		.loc 1 373 40 is_stmt 0 view .LVU445
 1605 002c 0B78     		ldrb	r3, [r1]	@ zero_extendqisi2
 1606              	.LVL159:
 1607              	.LBB2106:
 1608              	.LBI2106:
 131:SCan/SC24/artifacts/MCB/c_source/Src/mcb.c ****     uint8_t value,
 1609              		.loc 1 131 23 is_stmt 1 view .LVU446
 1610              	.LBB2107:
 136:SCan/SC24/artifacts/MCB/c_source/Src/mcb.c **** }
 1611              		.loc 1 136 5 view .LVU447
 136:SCan/SC24/artifacts/MCB/c_source/Src/mcb.c **** }
 1612              		.loc 1 136 12 is_stmt 0 view .LVU448
 1613 002e C3F34013 		ubfx	r3, r3, #5, #1
 1614              	.LVL160:
 136:SCan/SC24/artifacts/MCB/c_source/Src/mcb.c **** }
 1615              		.loc 1 136 12 view .LVU449
 1616              	.LBE2107:
 1617              	.LBE2106:
 1618              		.loc 1 373 38 view .LVU450
 1619 0032 4371     		strb	r3, [r0, #5]
 374:SCan/SC24/artifacts/MCB/c_source/Src/mcb.c ****     dst_p->ams_err_is_active = unpack_right_shift_u8(src_p[0], 6u, 0x40u);
 1620              		.loc 1 374 5 is_stmt 1 view .LVU451
 1621              		.loc 1 374 32 is_stmt 0 view .LVU452
 1622 0034 0B78     		ldrb	r3, [r1]	@ zero_extendqisi2
 1623              	.LVL161:
 1624              	.LBB2108:
 1625              	.LBI2108:
 131:SCan/SC24/artifacts/MCB/c_source/Src/mcb.c ****     uint8_t value,
 1626              		.loc 1 131 23 is_stmt 1 view .LVU453
 1627              	.LBB2109:
 136:SCan/SC24/artifacts/MCB/c_source/Src/mcb.c **** }
 1628              		.loc 1 136 5 view .LVU454
 136:SCan/SC24/artifacts/MCB/c_source/Src/mcb.c **** }
 1629              		.loc 1 136 12 is_stmt 0 view .LVU455
 1630 0036 C3F38013 		ubfx	r3, r3, #6, #1
 1631              	.LVL162:
 136:SCan/SC24/artifacts/MCB/c_source/Src/mcb.c **** }
 1632              		.loc 1 136 12 view .LVU456
 1633              	.LBE2109:
 1634              	.LBE2108:
 1635              		.loc 1 374 30 view .LVU457
 1636 003a 8371     		strb	r3, [r0, #6]
 375:SCan/SC24/artifacts/MCB/c_source/Src/mcb.c ****     dst_p->imd_err_is_active = unpack_right_shift_u8(src_p[0], 7u, 0x80u);
 1637              		.loc 1 375 5 is_stmt 1 view .LVU458
 1638              		.loc 1 375 32 is_stmt 0 view .LVU459
 1639 003c 0B78     		ldrb	r3, [r1]	@ zero_extendqisi2
 1640              	.LVL163:
 1641              	.LBB2110:
 1642              	.LBI2110:
 131:SCan/SC24/artifacts/MCB/c_source/Src/mcb.c ****     uint8_t value,
 1643              		.loc 1 131 23 is_stmt 1 view .LVU460
 1644              	.LBB2111:
 136:SCan/SC24/artifacts/MCB/c_source/Src/mcb.c **** }
 1645              		.loc 1 136 5 view .LVU461
 136:SCan/SC24/artifacts/MCB/c_source/Src/mcb.c **** }
 1646              		.loc 1 136 12 is_stmt 0 view .LVU462
 1647 003e DB09     		lsrs	r3, r3, #7
ARM GAS  /tmp/ccQYM1B7.s 			page 39


 1648              	.LVL164:
 136:SCan/SC24/artifacts/MCB/c_source/Src/mcb.c **** }
 1649              		.loc 1 136 12 view .LVU463
 1650              	.LBE2111:
 1651              	.LBE2110:
 1652              		.loc 1 375 30 view .LVU464
 1653 0040 C371     		strb	r3, [r0, #7]
 376:SCan/SC24/artifacts/MCB/c_source/Src/mcb.c ****     dst_p->tsal_green_is_active = unpack_right_shift_u8(src_p[1], 0u, 0x01u);
 1654              		.loc 1 376 5 is_stmt 1 view .LVU465
 1655              		.loc 1 376 35 is_stmt 0 view .LVU466
 1656 0042 4B78     		ldrb	r3, [r1, #1]	@ zero_extendqisi2
 1657              	.LVL165:
 1658              	.LBB2112:
 1659              	.LBI2112:
 131:SCan/SC24/artifacts/MCB/c_source/Src/mcb.c ****     uint8_t value,
 1660              		.loc 1 131 23 is_stmt 1 view .LVU467
 1661              	.LBB2113:
 136:SCan/SC24/artifacts/MCB/c_source/Src/mcb.c **** }
 1662              		.loc 1 136 5 view .LVU468
 136:SCan/SC24/artifacts/MCB/c_source/Src/mcb.c **** }
 1663              		.loc 1 136 22 is_stmt 0 view .LVU469
 1664 0044 03F00103 		and	r3, r3, #1
 1665              	.LVL166:
 136:SCan/SC24/artifacts/MCB/c_source/Src/mcb.c **** }
 1666              		.loc 1 136 22 view .LVU470
 1667              	.LBE2113:
 1668              	.LBE2112:
 1669              		.loc 1 376 33 view .LVU471
 1670 0048 0372     		strb	r3, [r0, #8]
 377:SCan/SC24/artifacts/MCB/c_source/Src/mcb.c ****     dst_p->dcbus_is_over60_v = unpack_right_shift_u8(src_p[1], 1u, 0x02u);
 1671              		.loc 1 377 5 is_stmt 1 view .LVU472
 1672              		.loc 1 377 32 is_stmt 0 view .LVU473
 1673 004a 4B78     		ldrb	r3, [r1, #1]	@ zero_extendqisi2
 1674              	.LVL167:
 1675              	.LBB2114:
 1676              	.LBI2114:
 131:SCan/SC24/artifacts/MCB/c_source/Src/mcb.c ****     uint8_t value,
 1677              		.loc 1 131 23 is_stmt 1 view .LVU474
 1678              	.LBB2115:
 136:SCan/SC24/artifacts/MCB/c_source/Src/mcb.c **** }
 1679              		.loc 1 136 5 view .LVU475
 136:SCan/SC24/artifacts/MCB/c_source/Src/mcb.c **** }
 1680              		.loc 1 136 12 is_stmt 0 view .LVU476
 1681 004c C3F34003 		ubfx	r3, r3, #1, #1
 1682              	.LVL168:
 136:SCan/SC24/artifacts/MCB/c_source/Src/mcb.c **** }
 1683              		.loc 1 136 12 view .LVU477
 1684              	.LBE2115:
 1685              	.LBE2114:
 1686              		.loc 1 377 30 view .LVU478
 1687 0050 4372     		strb	r3, [r0, #9]
 378:SCan/SC24/artifacts/MCB/c_source/Src/mcb.c ****     dst_p->imp_any_is_active = unpack_right_shift_u8(src_p[1], 2u, 0x04u);
 1688              		.loc 1 378 5 is_stmt 1 view .LVU479
 1689              		.loc 1 378 32 is_stmt 0 view .LVU480
 1690 0052 4B78     		ldrb	r3, [r1, #1]	@ zero_extendqisi2
 1691              	.LVL169:
 1692              	.LBB2116:
ARM GAS  /tmp/ccQYM1B7.s 			page 40


 1693              	.LBI2116:
 131:SCan/SC24/artifacts/MCB/c_source/Src/mcb.c ****     uint8_t value,
 1694              		.loc 1 131 23 is_stmt 1 view .LVU481
 1695              	.LBB2117:
 136:SCan/SC24/artifacts/MCB/c_source/Src/mcb.c **** }
 1696              		.loc 1 136 5 view .LVU482
 136:SCan/SC24/artifacts/MCB/c_source/Src/mcb.c **** }
 1697              		.loc 1 136 12 is_stmt 0 view .LVU483
 1698 0054 C3F38003 		ubfx	r3, r3, #2, #1
 1699              	.LVL170:
 136:SCan/SC24/artifacts/MCB/c_source/Src/mcb.c **** }
 1700              		.loc 1 136 12 view .LVU484
 1701              	.LBE2117:
 1702              	.LBE2116:
 1703              		.loc 1 378 30 view .LVU485
 1704 0058 8372     		strb	r3, [r0, #10]
 379:SCan/SC24/artifacts/MCB/c_source/Src/mcb.c ****     dst_p->imp_hv_relays_state_is_active = unpack_right_shift_u8(src_p[1], 3u, 0x08u);
 1705              		.loc 1 379 5 is_stmt 1 view .LVU486
 1706              		.loc 1 379 44 is_stmt 0 view .LVU487
 1707 005a 4B78     		ldrb	r3, [r1, #1]	@ zero_extendqisi2
 1708              	.LVL171:
 1709              	.LBB2118:
 1710              	.LBI2118:
 131:SCan/SC24/artifacts/MCB/c_source/Src/mcb.c ****     uint8_t value,
 1711              		.loc 1 131 23 is_stmt 1 view .LVU488
 1712              	.LBB2119:
 136:SCan/SC24/artifacts/MCB/c_source/Src/mcb.c **** }
 1713              		.loc 1 136 5 view .LVU489
 136:SCan/SC24/artifacts/MCB/c_source/Src/mcb.c **** }
 1714              		.loc 1 136 12 is_stmt 0 view .LVU490
 1715 005c C3F3C003 		ubfx	r3, r3, #3, #1
 1716              	.LVL172:
 136:SCan/SC24/artifacts/MCB/c_source/Src/mcb.c **** }
 1717              		.loc 1 136 12 view .LVU491
 1718              	.LBE2119:
 1719              	.LBE2118:
 1720              		.loc 1 379 42 view .LVU492
 1721 0060 C372     		strb	r3, [r0, #11]
 380:SCan/SC24/artifacts/MCB/c_source/Src/mcb.c ****     dst_p->imp_dcbus_is_active = unpack_right_shift_u8(src_p[1], 4u, 0x10u);
 1722              		.loc 1 380 5 is_stmt 1 view .LVU493
 1723              		.loc 1 380 34 is_stmt 0 view .LVU494
 1724 0062 4B78     		ldrb	r3, [r1, #1]	@ zero_extendqisi2
 1725              	.LVL173:
 1726              	.LBB2120:
 1727              	.LBI2120:
 131:SCan/SC24/artifacts/MCB/c_source/Src/mcb.c ****     uint8_t value,
 1728              		.loc 1 131 23 is_stmt 1 view .LVU495
 1729              	.LBB2121:
 136:SCan/SC24/artifacts/MCB/c_source/Src/mcb.c **** }
 1730              		.loc 1 136 5 view .LVU496
 136:SCan/SC24/artifacts/MCB/c_source/Src/mcb.c **** }
 1731              		.loc 1 136 12 is_stmt 0 view .LVU497
 1732 0064 C3F30013 		ubfx	r3, r3, #4, #1
 1733              	.LVL174:
 136:SCan/SC24/artifacts/MCB/c_source/Src/mcb.c **** }
 1734              		.loc 1 136 12 view .LVU498
 1735              	.LBE2121:
ARM GAS  /tmp/ccQYM1B7.s 			page 41


 1736              	.LBE2120:
 1737              		.loc 1 380 32 view .LVU499
 1738 0068 0373     		strb	r3, [r0, #12]
 381:SCan/SC24/artifacts/MCB/c_source/Src/mcb.c ****     dst_p->air_pos_stg_mech_state_signal_is_active = unpack_right_shift_u8(src_p[1], 5u, 0x20u);
 1739              		.loc 1 381 5 is_stmt 1 view .LVU500
 1740              		.loc 1 381 54 is_stmt 0 view .LVU501
 1741 006a 4B78     		ldrb	r3, [r1, #1]	@ zero_extendqisi2
 1742              	.LVL175:
 1743              	.LBB2122:
 1744              	.LBI2122:
 131:SCan/SC24/artifacts/MCB/c_source/Src/mcb.c ****     uint8_t value,
 1745              		.loc 1 131 23 is_stmt 1 view .LVU502
 1746              	.LBB2123:
 136:SCan/SC24/artifacts/MCB/c_source/Src/mcb.c **** }
 1747              		.loc 1 136 5 view .LVU503
 136:SCan/SC24/artifacts/MCB/c_source/Src/mcb.c **** }
 1748              		.loc 1 136 12 is_stmt 0 view .LVU504
 1749 006c C3F34013 		ubfx	r3, r3, #5, #1
 1750              	.LVL176:
 136:SCan/SC24/artifacts/MCB/c_source/Src/mcb.c **** }
 1751              		.loc 1 136 12 view .LVU505
 1752              	.LBE2123:
 1753              	.LBE2122:
 1754              		.loc 1 381 52 view .LVU506
 1755 0070 4373     		strb	r3, [r0, #13]
 382:SCan/SC24/artifacts/MCB/c_source/Src/mcb.c ****     dst_p->air_neg_stg_mech_state_signal_is_active = unpack_right_shift_u8(src_p[1], 6u, 0x40u);
 1756              		.loc 1 382 5 is_stmt 1 view .LVU507
 1757              		.loc 1 382 54 is_stmt 0 view .LVU508
 1758 0072 4B78     		ldrb	r3, [r1, #1]	@ zero_extendqisi2
 1759              	.LVL177:
 1760              	.LBB2124:
 1761              	.LBI2124:
 131:SCan/SC24/artifacts/MCB/c_source/Src/mcb.c ****     uint8_t value,
 1762              		.loc 1 131 23 is_stmt 1 view .LVU509
 1763              	.LBB2125:
 136:SCan/SC24/artifacts/MCB/c_source/Src/mcb.c **** }
 1764              		.loc 1 136 5 view .LVU510
 136:SCan/SC24/artifacts/MCB/c_source/Src/mcb.c **** }
 1765              		.loc 1 136 12 is_stmt 0 view .LVU511
 1766 0074 C3F38013 		ubfx	r3, r3, #6, #1
 1767              	.LVL178:
 136:SCan/SC24/artifacts/MCB/c_source/Src/mcb.c **** }
 1768              		.loc 1 136 12 view .LVU512
 1769              	.LBE2125:
 1770              	.LBE2124:
 1771              		.loc 1 382 52 view .LVU513
 1772 0078 8373     		strb	r3, [r0, #14]
 383:SCan/SC24/artifacts/MCB/c_source/Src/mcb.c **** 
 384:SCan/SC24/artifacts/MCB/c_source/Src/mcb.c ****     return (0);
 1773              		.loc 1 384 5 is_stmt 1 view .LVU514
 1774              		.loc 1 384 12 is_stmt 0 view .LVU515
 1775 007a 0020     		movs	r0, #0
 1776              	.LVL179:
 1777              		.loc 1 384 12 view .LVU516
 1778 007c 7047     		bx	lr
 1779              	.LVL180:
 1780              	.L50:
ARM GAS  /tmp/ccQYM1B7.s 			page 42


 365:SCan/SC24/artifacts/MCB/c_source/Src/mcb.c ****     }
 1781              		.loc 1 365 16 view .LVU517
 1782 007e 6FF01500 		mvn	r0, #21
 1783              	.LVL181:
 385:SCan/SC24/artifacts/MCB/c_source/Src/mcb.c **** }
 1784              		.loc 1 385 1 view .LVU518
 1785 0082 7047     		bx	lr
 1786              		.cfi_endproc
 1787              	.LFE41:
 1789              		.section	.text.mcb_tlb_bat_signals_status_init,"ax",%progbits
 1790              		.align	1
 1791              		.global	mcb_tlb_bat_signals_status_init
 1792              		.syntax unified
 1793              		.thumb
 1794              		.thumb_func
 1795              		.fpu fpv4-sp-d16
 1797              	mcb_tlb_bat_signals_status_init:
 1798              	.LVL182:
 1799              	.LFB42:
 386:SCan/SC24/artifacts/MCB/c_source/Src/mcb.c **** 
 387:SCan/SC24/artifacts/MCB/c_source/Src/mcb.c **** int mcb_tlb_bat_signals_status_init(struct mcb_tlb_bat_signals_status_t *msg_p)
 388:SCan/SC24/artifacts/MCB/c_source/Src/mcb.c **** {
 1800              		.loc 1 388 1 is_stmt 1 view -0
 1801              		.cfi_startproc
 1802              		@ args = 0, pretend = 0, frame = 0
 1803              		@ frame_needed = 0, uses_anonymous_args = 0
 1804              		@ link register save eliminated.
 389:SCan/SC24/artifacts/MCB/c_source/Src/mcb.c ****     if (msg_p == NULL) return -1;
 1805              		.loc 1 389 5 view .LVU520
 1806              		.loc 1 389 8 is_stmt 0 view .LVU521
 1807 0000 0346     		mov	r3, r0
 1808 0002 30B1     		cbz	r0, .L53
 390:SCan/SC24/artifacts/MCB/c_source/Src/mcb.c **** 
 391:SCan/SC24/artifacts/MCB/c_source/Src/mcb.c ****     memset(msg_p, 0, sizeof(struct mcb_tlb_bat_signals_status_t));
 1809              		.loc 1 391 5 is_stmt 1 view .LVU522
 1810 0004 0020     		movs	r0, #0
 1811              	.LVL183:
 1812              		.loc 1 391 5 is_stmt 0 view .LVU523
 1813 0006 1860     		str	r0, [r3]	@ unaligned
 1814 0008 5860     		str	r0, [r3, #4]	@ unaligned
 1815 000a 9860     		str	r0, [r3, #8]	@ unaligned
 1816 000c C3F80B00 		str	r0, [r3, #11]	@ unaligned
 392:SCan/SC24/artifacts/MCB/c_source/Src/mcb.c **** 
 393:SCan/SC24/artifacts/MCB/c_source/Src/mcb.c ****     return 0;
 1817              		.loc 1 393 5 is_stmt 1 view .LVU524
 1818              		.loc 1 393 12 is_stmt 0 view .LVU525
 1819 0010 7047     		bx	lr
 1820              	.LVL184:
 1821              	.L53:
 389:SCan/SC24/artifacts/MCB/c_source/Src/mcb.c **** 
 1822              		.loc 1 389 31 view .LVU526
 1823 0012 4FF0FF30 		mov	r0, #-1
 1824              	.LVL185:
 394:SCan/SC24/artifacts/MCB/c_source/Src/mcb.c **** }
 1825              		.loc 1 394 1 view .LVU527
 1826 0016 7047     		bx	lr
 1827              		.cfi_endproc
ARM GAS  /tmp/ccQYM1B7.s 			page 43


 1828              	.LFE42:
 1830              		.section	.text.mcb_tlb_bat_signals_status_air_pos_cmd_is_active_encode,"ax",%progbits
 1831              		.align	1
 1832              		.global	mcb_tlb_bat_signals_status_air_pos_cmd_is_active_encode
 1833              		.syntax unified
 1834              		.thumb
 1835              		.thumb_func
 1836              		.fpu fpv4-sp-d16
 1838              	mcb_tlb_bat_signals_status_air_pos_cmd_is_active_encode:
 1839              	.LVL186:
 1840              	.LFB43:
 395:SCan/SC24/artifacts/MCB/c_source/Src/mcb.c **** 
 396:SCan/SC24/artifacts/MCB/c_source/Src/mcb.c **** uint8_t mcb_tlb_bat_signals_status_air_pos_cmd_is_active_encode(double value)
 397:SCan/SC24/artifacts/MCB/c_source/Src/mcb.c **** {
 1841              		.loc 1 397 1 is_stmt 1 view -0
 1842              		.cfi_startproc
 1843              		@ args = 0, pretend = 0, frame = 0
 1844              		@ frame_needed = 0, uses_anonymous_args = 0
 1845              		.loc 1 397 1 is_stmt 0 view .LVU529
 1846 0000 08B5     		push	{r3, lr}
 1847              	.LCFI14:
 1848              		.cfi_def_cfa_offset 8
 1849              		.cfi_offset 3, -8
 1850              		.cfi_offset 14, -4
 1851 0002 51EC100B 		vmov	r0, r1, d0
 398:SCan/SC24/artifacts/MCB/c_source/Src/mcb.c ****     return (uint8_t)(value);
 1852              		.loc 1 398 5 is_stmt 1 view .LVU530
 1853              		.loc 1 398 12 is_stmt 0 view .LVU531
 1854 0006 FFF7FEFF 		bl	__aeabi_d2uiz
 1855              	.LVL187:
 399:SCan/SC24/artifacts/MCB/c_source/Src/mcb.c **** }
 1856              		.loc 1 399 1 view .LVU532
 1857 000a C0B2     		uxtb	r0, r0
 1858 000c 08BD     		pop	{r3, pc}
 1859              		.cfi_endproc
 1860              	.LFE43:
 1862              		.section	.text.mcb_tlb_bat_signals_status_air_pos_cmd_is_active_decode,"ax",%progbits
 1863              		.align	1
 1864              		.global	mcb_tlb_bat_signals_status_air_pos_cmd_is_active_decode
 1865              		.syntax unified
 1866              		.thumb
 1867              		.thumb_func
 1868              		.fpu fpv4-sp-d16
 1870              	mcb_tlb_bat_signals_status_air_pos_cmd_is_active_decode:
 1871              	.LVL188:
 1872              	.LFB44:
 400:SCan/SC24/artifacts/MCB/c_source/Src/mcb.c **** 
 401:SCan/SC24/artifacts/MCB/c_source/Src/mcb.c **** double mcb_tlb_bat_signals_status_air_pos_cmd_is_active_decode(uint8_t value)
 402:SCan/SC24/artifacts/MCB/c_source/Src/mcb.c **** {
 1873              		.loc 1 402 1 is_stmt 1 view -0
 1874              		.cfi_startproc
 1875              		@ args = 0, pretend = 0, frame = 0
 1876              		@ frame_needed = 0, uses_anonymous_args = 0
 1877              		.loc 1 402 1 is_stmt 0 view .LVU534
 1878 0000 08B5     		push	{r3, lr}
 1879              	.LCFI15:
 1880              		.cfi_def_cfa_offset 8
ARM GAS  /tmp/ccQYM1B7.s 			page 44


 1881              		.cfi_offset 3, -8
 1882              		.cfi_offset 14, -4
 403:SCan/SC24/artifacts/MCB/c_source/Src/mcb.c ****     return ((double)value);
 1883              		.loc 1 403 5 is_stmt 1 view .LVU535
 1884              		.loc 1 403 13 is_stmt 0 view .LVU536
 1885 0002 FFF7FEFF 		bl	__aeabi_ui2d
 1886              	.LVL189:
 404:SCan/SC24/artifacts/MCB/c_source/Src/mcb.c **** }
 1887              		.loc 1 404 1 view .LVU537
 1888 0006 41EC100B 		vmov	d0, r0, r1
 1889 000a 08BD     		pop	{r3, pc}
 1890              		.cfi_endproc
 1891              	.LFE44:
 1893              		.section	.text.mcb_tlb_bat_signals_status_air_pos_cmd_is_active_is_in_range,"ax",%progbits
 1894              		.align	1
 1895              		.global	mcb_tlb_bat_signals_status_air_pos_cmd_is_active_is_in_range
 1896              		.syntax unified
 1897              		.thumb
 1898              		.thumb_func
 1899              		.fpu fpv4-sp-d16
 1901              	mcb_tlb_bat_signals_status_air_pos_cmd_is_active_is_in_range:
 1902              	.LVL190:
 1903              	.LFB45:
 405:SCan/SC24/artifacts/MCB/c_source/Src/mcb.c **** 
 406:SCan/SC24/artifacts/MCB/c_source/Src/mcb.c **** bool mcb_tlb_bat_signals_status_air_pos_cmd_is_active_is_in_range(uint8_t value)
 407:SCan/SC24/artifacts/MCB/c_source/Src/mcb.c **** {
 1904              		.loc 1 407 1 is_stmt 1 view -0
 1905              		.cfi_startproc
 1906              		@ args = 0, pretend = 0, frame = 0
 1907              		@ frame_needed = 0, uses_anonymous_args = 0
 1908              		@ link register save eliminated.
 408:SCan/SC24/artifacts/MCB/c_source/Src/mcb.c ****     return (value <= 1u);
 1909              		.loc 1 408 5 view .LVU539
 409:SCan/SC24/artifacts/MCB/c_source/Src/mcb.c **** }
 1910              		.loc 1 409 1 is_stmt 0 view .LVU540
 1911 0000 0128     		cmp	r0, #1
 1912 0002 8CBF     		ite	hi
 1913 0004 0020     		movhi	r0, #0
 1914              	.LVL191:
 1915              		.loc 1 409 1 view .LVU541
 1916 0006 0120     		movls	r0, #1
 1917 0008 7047     		bx	lr
 1918              		.cfi_endproc
 1919              	.LFE45:
 1921              		.section	.text.mcb_tlb_bat_signals_status_air_pos_is_closed_encode,"ax",%progbits
 1922              		.align	1
 1923              		.global	mcb_tlb_bat_signals_status_air_pos_is_closed_encode
 1924              		.syntax unified
 1925              		.thumb
 1926              		.thumb_func
 1927              		.fpu fpv4-sp-d16
 1929              	mcb_tlb_bat_signals_status_air_pos_is_closed_encode:
 1930              	.LVL192:
 1931              	.LFB46:
 410:SCan/SC24/artifacts/MCB/c_source/Src/mcb.c **** 
 411:SCan/SC24/artifacts/MCB/c_source/Src/mcb.c **** uint8_t mcb_tlb_bat_signals_status_air_pos_is_closed_encode(double value)
 412:SCan/SC24/artifacts/MCB/c_source/Src/mcb.c **** {
ARM GAS  /tmp/ccQYM1B7.s 			page 45


 1932              		.loc 1 412 1 is_stmt 1 view -0
 1933              		.cfi_startproc
 1934              		@ args = 0, pretend = 0, frame = 0
 1935              		@ frame_needed = 0, uses_anonymous_args = 0
 1936              		.loc 1 412 1 is_stmt 0 view .LVU543
 1937 0000 08B5     		push	{r3, lr}
 1938              	.LCFI16:
 1939              		.cfi_def_cfa_offset 8
 1940              		.cfi_offset 3, -8
 1941              		.cfi_offset 14, -4
 1942 0002 51EC100B 		vmov	r0, r1, d0
 413:SCan/SC24/artifacts/MCB/c_source/Src/mcb.c ****     return (uint8_t)(value);
 1943              		.loc 1 413 5 is_stmt 1 view .LVU544
 1944              		.loc 1 413 12 is_stmt 0 view .LVU545
 1945 0006 FFF7FEFF 		bl	__aeabi_d2uiz
 1946              	.LVL193:
 414:SCan/SC24/artifacts/MCB/c_source/Src/mcb.c **** }
 1947              		.loc 1 414 1 view .LVU546
 1948 000a C0B2     		uxtb	r0, r0
 1949 000c 08BD     		pop	{r3, pc}
 1950              		.cfi_endproc
 1951              	.LFE46:
 1953              		.section	.text.mcb_tlb_bat_signals_status_air_pos_is_closed_decode,"ax",%progbits
 1954              		.align	1
 1955              		.global	mcb_tlb_bat_signals_status_air_pos_is_closed_decode
 1956              		.syntax unified
 1957              		.thumb
 1958              		.thumb_func
 1959              		.fpu fpv4-sp-d16
 1961              	mcb_tlb_bat_signals_status_air_pos_is_closed_decode:
 1962              	.LVL194:
 1963              	.LFB47:
 415:SCan/SC24/artifacts/MCB/c_source/Src/mcb.c **** 
 416:SCan/SC24/artifacts/MCB/c_source/Src/mcb.c **** double mcb_tlb_bat_signals_status_air_pos_is_closed_decode(uint8_t value)
 417:SCan/SC24/artifacts/MCB/c_source/Src/mcb.c **** {
 1964              		.loc 1 417 1 is_stmt 1 view -0
 1965              		.cfi_startproc
 1966              		@ args = 0, pretend = 0, frame = 0
 1967              		@ frame_needed = 0, uses_anonymous_args = 0
 1968              		.loc 1 417 1 is_stmt 0 view .LVU548
 1969 0000 08B5     		push	{r3, lr}
 1970              	.LCFI17:
 1971              		.cfi_def_cfa_offset 8
 1972              		.cfi_offset 3, -8
 1973              		.cfi_offset 14, -4
 418:SCan/SC24/artifacts/MCB/c_source/Src/mcb.c ****     return ((double)value);
 1974              		.loc 1 418 5 is_stmt 1 view .LVU549
 1975              		.loc 1 418 13 is_stmt 0 view .LVU550
 1976 0002 FFF7FEFF 		bl	__aeabi_ui2d
 1977              	.LVL195:
 419:SCan/SC24/artifacts/MCB/c_source/Src/mcb.c **** }
 1978              		.loc 1 419 1 view .LVU551
 1979 0006 41EC100B 		vmov	d0, r0, r1
 1980 000a 08BD     		pop	{r3, pc}
 1981              		.cfi_endproc
 1982              	.LFE47:
 1984              		.section	.text.mcb_tlb_bat_signals_status_air_pos_is_closed_is_in_range,"ax",%progbits
ARM GAS  /tmp/ccQYM1B7.s 			page 46


 1985              		.align	1
 1986              		.global	mcb_tlb_bat_signals_status_air_pos_is_closed_is_in_range
 1987              		.syntax unified
 1988              		.thumb
 1989              		.thumb_func
 1990              		.fpu fpv4-sp-d16
 1992              	mcb_tlb_bat_signals_status_air_pos_is_closed_is_in_range:
 1993              	.LVL196:
 1994              	.LFB48:
 420:SCan/SC24/artifacts/MCB/c_source/Src/mcb.c **** 
 421:SCan/SC24/artifacts/MCB/c_source/Src/mcb.c **** bool mcb_tlb_bat_signals_status_air_pos_is_closed_is_in_range(uint8_t value)
 422:SCan/SC24/artifacts/MCB/c_source/Src/mcb.c **** {
 1995              		.loc 1 422 1 is_stmt 1 view -0
 1996              		.cfi_startproc
 1997              		@ args = 0, pretend = 0, frame = 0
 1998              		@ frame_needed = 0, uses_anonymous_args = 0
 1999              		@ link register save eliminated.
 423:SCan/SC24/artifacts/MCB/c_source/Src/mcb.c ****     return (value <= 1u);
 2000              		.loc 1 423 5 view .LVU553
 424:SCan/SC24/artifacts/MCB/c_source/Src/mcb.c **** }
 2001              		.loc 1 424 1 is_stmt 0 view .LVU554
 2002 0000 0128     		cmp	r0, #1
 2003 0002 8CBF     		ite	hi
 2004 0004 0020     		movhi	r0, #0
 2005              	.LVL197:
 2006              		.loc 1 424 1 view .LVU555
 2007 0006 0120     		movls	r0, #1
 2008 0008 7047     		bx	lr
 2009              		.cfi_endproc
 2010              	.LFE48:
 2012              		.section	.text.mcb_tlb_bat_signals_status_air_neg_cmd_is_active_encode,"ax",%progbits
 2013              		.align	1
 2014              		.global	mcb_tlb_bat_signals_status_air_neg_cmd_is_active_encode
 2015              		.syntax unified
 2016              		.thumb
 2017              		.thumb_func
 2018              		.fpu fpv4-sp-d16
 2020              	mcb_tlb_bat_signals_status_air_neg_cmd_is_active_encode:
 2021              	.LVL198:
 2022              	.LFB49:
 425:SCan/SC24/artifacts/MCB/c_source/Src/mcb.c **** 
 426:SCan/SC24/artifacts/MCB/c_source/Src/mcb.c **** uint8_t mcb_tlb_bat_signals_status_air_neg_cmd_is_active_encode(double value)
 427:SCan/SC24/artifacts/MCB/c_source/Src/mcb.c **** {
 2023              		.loc 1 427 1 is_stmt 1 view -0
 2024              		.cfi_startproc
 2025              		@ args = 0, pretend = 0, frame = 0
 2026              		@ frame_needed = 0, uses_anonymous_args = 0
 2027              		.loc 1 427 1 is_stmt 0 view .LVU557
 2028 0000 08B5     		push	{r3, lr}
 2029              	.LCFI18:
 2030              		.cfi_def_cfa_offset 8
 2031              		.cfi_offset 3, -8
 2032              		.cfi_offset 14, -4
 2033 0002 51EC100B 		vmov	r0, r1, d0
 428:SCan/SC24/artifacts/MCB/c_source/Src/mcb.c ****     return (uint8_t)(value);
 2034              		.loc 1 428 5 is_stmt 1 view .LVU558
 2035              		.loc 1 428 12 is_stmt 0 view .LVU559
ARM GAS  /tmp/ccQYM1B7.s 			page 47


 2036 0006 FFF7FEFF 		bl	__aeabi_d2uiz
 2037              	.LVL199:
 429:SCan/SC24/artifacts/MCB/c_source/Src/mcb.c **** }
 2038              		.loc 1 429 1 view .LVU560
 2039 000a C0B2     		uxtb	r0, r0
 2040 000c 08BD     		pop	{r3, pc}
 2041              		.cfi_endproc
 2042              	.LFE49:
 2044              		.section	.text.mcb_tlb_bat_signals_status_air_neg_cmd_is_active_decode,"ax",%progbits
 2045              		.align	1
 2046              		.global	mcb_tlb_bat_signals_status_air_neg_cmd_is_active_decode
 2047              		.syntax unified
 2048              		.thumb
 2049              		.thumb_func
 2050              		.fpu fpv4-sp-d16
 2052              	mcb_tlb_bat_signals_status_air_neg_cmd_is_active_decode:
 2053              	.LVL200:
 2054              	.LFB50:
 430:SCan/SC24/artifacts/MCB/c_source/Src/mcb.c **** 
 431:SCan/SC24/artifacts/MCB/c_source/Src/mcb.c **** double mcb_tlb_bat_signals_status_air_neg_cmd_is_active_decode(uint8_t value)
 432:SCan/SC24/artifacts/MCB/c_source/Src/mcb.c **** {
 2055              		.loc 1 432 1 is_stmt 1 view -0
 2056              		.cfi_startproc
 2057              		@ args = 0, pretend = 0, frame = 0
 2058              		@ frame_needed = 0, uses_anonymous_args = 0
 2059              		.loc 1 432 1 is_stmt 0 view .LVU562
 2060 0000 08B5     		push	{r3, lr}
 2061              	.LCFI19:
 2062              		.cfi_def_cfa_offset 8
 2063              		.cfi_offset 3, -8
 2064              		.cfi_offset 14, -4
 433:SCan/SC24/artifacts/MCB/c_source/Src/mcb.c ****     return ((double)value);
 2065              		.loc 1 433 5 is_stmt 1 view .LVU563
 2066              		.loc 1 433 13 is_stmt 0 view .LVU564
 2067 0002 FFF7FEFF 		bl	__aeabi_ui2d
 2068              	.LVL201:
 434:SCan/SC24/artifacts/MCB/c_source/Src/mcb.c **** }
 2069              		.loc 1 434 1 view .LVU565
 2070 0006 41EC100B 		vmov	d0, r0, r1
 2071 000a 08BD     		pop	{r3, pc}
 2072              		.cfi_endproc
 2073              	.LFE50:
 2075              		.section	.text.mcb_tlb_bat_signals_status_air_neg_cmd_is_active_is_in_range,"ax",%progbits
 2076              		.align	1
 2077              		.global	mcb_tlb_bat_signals_status_air_neg_cmd_is_active_is_in_range
 2078              		.syntax unified
 2079              		.thumb
 2080              		.thumb_func
 2081              		.fpu fpv4-sp-d16
 2083              	mcb_tlb_bat_signals_status_air_neg_cmd_is_active_is_in_range:
 2084              	.LVL202:
 2085              	.LFB51:
 435:SCan/SC24/artifacts/MCB/c_source/Src/mcb.c **** 
 436:SCan/SC24/artifacts/MCB/c_source/Src/mcb.c **** bool mcb_tlb_bat_signals_status_air_neg_cmd_is_active_is_in_range(uint8_t value)
 437:SCan/SC24/artifacts/MCB/c_source/Src/mcb.c **** {
 2086              		.loc 1 437 1 is_stmt 1 view -0
 2087              		.cfi_startproc
ARM GAS  /tmp/ccQYM1B7.s 			page 48


 2088              		@ args = 0, pretend = 0, frame = 0
 2089              		@ frame_needed = 0, uses_anonymous_args = 0
 2090              		@ link register save eliminated.
 438:SCan/SC24/artifacts/MCB/c_source/Src/mcb.c ****     return (value <= 1u);
 2091              		.loc 1 438 5 view .LVU567
 439:SCan/SC24/artifacts/MCB/c_source/Src/mcb.c **** }
 2092              		.loc 1 439 1 is_stmt 0 view .LVU568
 2093 0000 0128     		cmp	r0, #1
 2094 0002 8CBF     		ite	hi
 2095 0004 0020     		movhi	r0, #0
 2096              	.LVL203:
 2097              		.loc 1 439 1 view .LVU569
 2098 0006 0120     		movls	r0, #1
 2099 0008 7047     		bx	lr
 2100              		.cfi_endproc
 2101              	.LFE51:
 2103              		.section	.text.mcb_tlb_bat_signals_status_air_neg_is_closed_encode,"ax",%progbits
 2104              		.align	1
 2105              		.global	mcb_tlb_bat_signals_status_air_neg_is_closed_encode
 2106              		.syntax unified
 2107              		.thumb
 2108              		.thumb_func
 2109              		.fpu fpv4-sp-d16
 2111              	mcb_tlb_bat_signals_status_air_neg_is_closed_encode:
 2112              	.LVL204:
 2113              	.LFB52:
 440:SCan/SC24/artifacts/MCB/c_source/Src/mcb.c **** 
 441:SCan/SC24/artifacts/MCB/c_source/Src/mcb.c **** uint8_t mcb_tlb_bat_signals_status_air_neg_is_closed_encode(double value)
 442:SCan/SC24/artifacts/MCB/c_source/Src/mcb.c **** {
 2114              		.loc 1 442 1 is_stmt 1 view -0
 2115              		.cfi_startproc
 2116              		@ args = 0, pretend = 0, frame = 0
 2117              		@ frame_needed = 0, uses_anonymous_args = 0
 2118              		.loc 1 442 1 is_stmt 0 view .LVU571
 2119 0000 08B5     		push	{r3, lr}
 2120              	.LCFI20:
 2121              		.cfi_def_cfa_offset 8
 2122              		.cfi_offset 3, -8
 2123              		.cfi_offset 14, -4
 2124 0002 51EC100B 		vmov	r0, r1, d0
 443:SCan/SC24/artifacts/MCB/c_source/Src/mcb.c ****     return (uint8_t)(value);
 2125              		.loc 1 443 5 is_stmt 1 view .LVU572
 2126              		.loc 1 443 12 is_stmt 0 view .LVU573
 2127 0006 FFF7FEFF 		bl	__aeabi_d2uiz
 2128              	.LVL205:
 444:SCan/SC24/artifacts/MCB/c_source/Src/mcb.c **** }
 2129              		.loc 1 444 1 view .LVU574
 2130 000a C0B2     		uxtb	r0, r0
 2131 000c 08BD     		pop	{r3, pc}
 2132              		.cfi_endproc
 2133              	.LFE52:
 2135              		.section	.text.mcb_tlb_bat_signals_status_air_neg_is_closed_decode,"ax",%progbits
 2136              		.align	1
 2137              		.global	mcb_tlb_bat_signals_status_air_neg_is_closed_decode
 2138              		.syntax unified
 2139              		.thumb
 2140              		.thumb_func
ARM GAS  /tmp/ccQYM1B7.s 			page 49


 2141              		.fpu fpv4-sp-d16
 2143              	mcb_tlb_bat_signals_status_air_neg_is_closed_decode:
 2144              	.LVL206:
 2145              	.LFB53:
 445:SCan/SC24/artifacts/MCB/c_source/Src/mcb.c **** 
 446:SCan/SC24/artifacts/MCB/c_source/Src/mcb.c **** double mcb_tlb_bat_signals_status_air_neg_is_closed_decode(uint8_t value)
 447:SCan/SC24/artifacts/MCB/c_source/Src/mcb.c **** {
 2146              		.loc 1 447 1 is_stmt 1 view -0
 2147              		.cfi_startproc
 2148              		@ args = 0, pretend = 0, frame = 0
 2149              		@ frame_needed = 0, uses_anonymous_args = 0
 2150              		.loc 1 447 1 is_stmt 0 view .LVU576
 2151 0000 08B5     		push	{r3, lr}
 2152              	.LCFI21:
 2153              		.cfi_def_cfa_offset 8
 2154              		.cfi_offset 3, -8
 2155              		.cfi_offset 14, -4
 448:SCan/SC24/artifacts/MCB/c_source/Src/mcb.c ****     return ((double)value);
 2156              		.loc 1 448 5 is_stmt 1 view .LVU577
 2157              		.loc 1 448 13 is_stmt 0 view .LVU578
 2158 0002 FFF7FEFF 		bl	__aeabi_ui2d
 2159              	.LVL207:
 449:SCan/SC24/artifacts/MCB/c_source/Src/mcb.c **** }
 2160              		.loc 1 449 1 view .LVU579
 2161 0006 41EC100B 		vmov	d0, r0, r1
 2162 000a 08BD     		pop	{r3, pc}
 2163              		.cfi_endproc
 2164              	.LFE53:
 2166              		.section	.text.mcb_tlb_bat_signals_status_air_neg_is_closed_is_in_range,"ax",%progbits
 2167              		.align	1
 2168              		.global	mcb_tlb_bat_signals_status_air_neg_is_closed_is_in_range
 2169              		.syntax unified
 2170              		.thumb
 2171              		.thumb_func
 2172              		.fpu fpv4-sp-d16
 2174              	mcb_tlb_bat_signals_status_air_neg_is_closed_is_in_range:
 2175              	.LVL208:
 2176              	.LFB54:
 450:SCan/SC24/artifacts/MCB/c_source/Src/mcb.c **** 
 451:SCan/SC24/artifacts/MCB/c_source/Src/mcb.c **** bool mcb_tlb_bat_signals_status_air_neg_is_closed_is_in_range(uint8_t value)
 452:SCan/SC24/artifacts/MCB/c_source/Src/mcb.c **** {
 2177              		.loc 1 452 1 is_stmt 1 view -0
 2178              		.cfi_startproc
 2179              		@ args = 0, pretend = 0, frame = 0
 2180              		@ frame_needed = 0, uses_anonymous_args = 0
 2181              		@ link register save eliminated.
 453:SCan/SC24/artifacts/MCB/c_source/Src/mcb.c ****     return (value <= 1u);
 2182              		.loc 1 453 5 view .LVU581
 454:SCan/SC24/artifacts/MCB/c_source/Src/mcb.c **** }
 2183              		.loc 1 454 1 is_stmt 0 view .LVU582
 2184 0000 0128     		cmp	r0, #1
 2185 0002 8CBF     		ite	hi
 2186 0004 0020     		movhi	r0, #0
 2187              	.LVL209:
 2188              		.loc 1 454 1 view .LVU583
 2189 0006 0120     		movls	r0, #1
 2190 0008 7047     		bx	lr
ARM GAS  /tmp/ccQYM1B7.s 			page 50


 2191              		.cfi_endproc
 2192              	.LFE54:
 2194              		.section	.text.mcb_tlb_bat_signals_status_dcbus_prech_rly_cmd_is_active_encode,"ax",%progbits
 2195              		.align	1
 2196              		.global	mcb_tlb_bat_signals_status_dcbus_prech_rly_cmd_is_active_encode
 2197              		.syntax unified
 2198              		.thumb
 2199              		.thumb_func
 2200              		.fpu fpv4-sp-d16
 2202              	mcb_tlb_bat_signals_status_dcbus_prech_rly_cmd_is_active_encode:
 2203              	.LVL210:
 2204              	.LFB55:
 455:SCan/SC24/artifacts/MCB/c_source/Src/mcb.c **** 
 456:SCan/SC24/artifacts/MCB/c_source/Src/mcb.c **** uint8_t mcb_tlb_bat_signals_status_dcbus_prech_rly_cmd_is_active_encode(double value)
 457:SCan/SC24/artifacts/MCB/c_source/Src/mcb.c **** {
 2205              		.loc 1 457 1 is_stmt 1 view -0
 2206              		.cfi_startproc
 2207              		@ args = 0, pretend = 0, frame = 0
 2208              		@ frame_needed = 0, uses_anonymous_args = 0
 2209              		.loc 1 457 1 is_stmt 0 view .LVU585
 2210 0000 08B5     		push	{r3, lr}
 2211              	.LCFI22:
 2212              		.cfi_def_cfa_offset 8
 2213              		.cfi_offset 3, -8
 2214              		.cfi_offset 14, -4
 2215 0002 51EC100B 		vmov	r0, r1, d0
 458:SCan/SC24/artifacts/MCB/c_source/Src/mcb.c ****     return (uint8_t)(value);
 2216              		.loc 1 458 5 is_stmt 1 view .LVU586
 2217              		.loc 1 458 12 is_stmt 0 view .LVU587
 2218 0006 FFF7FEFF 		bl	__aeabi_d2uiz
 2219              	.LVL211:
 459:SCan/SC24/artifacts/MCB/c_source/Src/mcb.c **** }
 2220              		.loc 1 459 1 view .LVU588
 2221 000a C0B2     		uxtb	r0, r0
 2222 000c 08BD     		pop	{r3, pc}
 2223              		.cfi_endproc
 2224              	.LFE55:
 2226              		.section	.text.mcb_tlb_bat_signals_status_dcbus_prech_rly_cmd_is_active_decode,"ax",%progbits
 2227              		.align	1
 2228              		.global	mcb_tlb_bat_signals_status_dcbus_prech_rly_cmd_is_active_decode
 2229              		.syntax unified
 2230              		.thumb
 2231              		.thumb_func
 2232              		.fpu fpv4-sp-d16
 2234              	mcb_tlb_bat_signals_status_dcbus_prech_rly_cmd_is_active_decode:
 2235              	.LVL212:
 2236              	.LFB56:
 460:SCan/SC24/artifacts/MCB/c_source/Src/mcb.c **** 
 461:SCan/SC24/artifacts/MCB/c_source/Src/mcb.c **** double mcb_tlb_bat_signals_status_dcbus_prech_rly_cmd_is_active_decode(uint8_t value)
 462:SCan/SC24/artifacts/MCB/c_source/Src/mcb.c **** {
 2237              		.loc 1 462 1 is_stmt 1 view -0
 2238              		.cfi_startproc
 2239              		@ args = 0, pretend = 0, frame = 0
 2240              		@ frame_needed = 0, uses_anonymous_args = 0
 2241              		.loc 1 462 1 is_stmt 0 view .LVU590
 2242 0000 08B5     		push	{r3, lr}
 2243              	.LCFI23:
ARM GAS  /tmp/ccQYM1B7.s 			page 51


 2244              		.cfi_def_cfa_offset 8
 2245              		.cfi_offset 3, -8
 2246              		.cfi_offset 14, -4
 463:SCan/SC24/artifacts/MCB/c_source/Src/mcb.c ****     return ((double)value);
 2247              		.loc 1 463 5 is_stmt 1 view .LVU591
 2248              		.loc 1 463 13 is_stmt 0 view .LVU592
 2249 0002 FFF7FEFF 		bl	__aeabi_ui2d
 2250              	.LVL213:
 464:SCan/SC24/artifacts/MCB/c_source/Src/mcb.c **** }
 2251              		.loc 1 464 1 view .LVU593
 2252 0006 41EC100B 		vmov	d0, r0, r1
 2253 000a 08BD     		pop	{r3, pc}
 2254              		.cfi_endproc
 2255              	.LFE56:
 2257              		.section	.text.mcb_tlb_bat_signals_status_dcbus_prech_rly_cmd_is_active_is_in_range,"ax",%progbits
 2258              		.align	1
 2259              		.global	mcb_tlb_bat_signals_status_dcbus_prech_rly_cmd_is_active_is_in_range
 2260              		.syntax unified
 2261              		.thumb
 2262              		.thumb_func
 2263              		.fpu fpv4-sp-d16
 2265              	mcb_tlb_bat_signals_status_dcbus_prech_rly_cmd_is_active_is_in_range:
 2266              	.LVL214:
 2267              	.LFB57:
 465:SCan/SC24/artifacts/MCB/c_source/Src/mcb.c **** 
 466:SCan/SC24/artifacts/MCB/c_source/Src/mcb.c **** bool mcb_tlb_bat_signals_status_dcbus_prech_rly_cmd_is_active_is_in_range(uint8_t value)
 467:SCan/SC24/artifacts/MCB/c_source/Src/mcb.c **** {
 2268              		.loc 1 467 1 is_stmt 1 view -0
 2269              		.cfi_startproc
 2270              		@ args = 0, pretend = 0, frame = 0
 2271              		@ frame_needed = 0, uses_anonymous_args = 0
 2272              		@ link register save eliminated.
 468:SCan/SC24/artifacts/MCB/c_source/Src/mcb.c ****     return (value <= 1u);
 2273              		.loc 1 468 5 view .LVU595
 469:SCan/SC24/artifacts/MCB/c_source/Src/mcb.c **** }
 2274              		.loc 1 469 1 is_stmt 0 view .LVU596
 2275 0000 0128     		cmp	r0, #1
 2276 0002 8CBF     		ite	hi
 2277 0004 0020     		movhi	r0, #0
 2278              	.LVL215:
 2279              		.loc 1 469 1 view .LVU597
 2280 0006 0120     		movls	r0, #1
 2281 0008 7047     		bx	lr
 2282              		.cfi_endproc
 2283              	.LFE57:
 2285              		.section	.text.mcb_tlb_bat_signals_status_dcbus_prech_rly_is_closed_encode,"ax",%progbits
 2286              		.align	1
 2287              		.global	mcb_tlb_bat_signals_status_dcbus_prech_rly_is_closed_encode
 2288              		.syntax unified
 2289              		.thumb
 2290              		.thumb_func
 2291              		.fpu fpv4-sp-d16
 2293              	mcb_tlb_bat_signals_status_dcbus_prech_rly_is_closed_encode:
 2294              	.LVL216:
 2295              	.LFB58:
 470:SCan/SC24/artifacts/MCB/c_source/Src/mcb.c **** 
 471:SCan/SC24/artifacts/MCB/c_source/Src/mcb.c **** uint8_t mcb_tlb_bat_signals_status_dcbus_prech_rly_is_closed_encode(double value)
ARM GAS  /tmp/ccQYM1B7.s 			page 52


 472:SCan/SC24/artifacts/MCB/c_source/Src/mcb.c **** {
 2296              		.loc 1 472 1 is_stmt 1 view -0
 2297              		.cfi_startproc
 2298              		@ args = 0, pretend = 0, frame = 0
 2299              		@ frame_needed = 0, uses_anonymous_args = 0
 2300              		.loc 1 472 1 is_stmt 0 view .LVU599
 2301 0000 08B5     		push	{r3, lr}
 2302              	.LCFI24:
 2303              		.cfi_def_cfa_offset 8
 2304              		.cfi_offset 3, -8
 2305              		.cfi_offset 14, -4
 2306 0002 51EC100B 		vmov	r0, r1, d0
 473:SCan/SC24/artifacts/MCB/c_source/Src/mcb.c ****     return (uint8_t)(value);
 2307              		.loc 1 473 5 is_stmt 1 view .LVU600
 2308              		.loc 1 473 12 is_stmt 0 view .LVU601
 2309 0006 FFF7FEFF 		bl	__aeabi_d2uiz
 2310              	.LVL217:
 474:SCan/SC24/artifacts/MCB/c_source/Src/mcb.c **** }
 2311              		.loc 1 474 1 view .LVU602
 2312 000a C0B2     		uxtb	r0, r0
 2313 000c 08BD     		pop	{r3, pc}
 2314              		.cfi_endproc
 2315              	.LFE58:
 2317              		.section	.text.mcb_tlb_bat_signals_status_dcbus_prech_rly_is_closed_decode,"ax",%progbits
 2318              		.align	1
 2319              		.global	mcb_tlb_bat_signals_status_dcbus_prech_rly_is_closed_decode
 2320              		.syntax unified
 2321              		.thumb
 2322              		.thumb_func
 2323              		.fpu fpv4-sp-d16
 2325              	mcb_tlb_bat_signals_status_dcbus_prech_rly_is_closed_decode:
 2326              	.LVL218:
 2327              	.LFB59:
 475:SCan/SC24/artifacts/MCB/c_source/Src/mcb.c **** 
 476:SCan/SC24/artifacts/MCB/c_source/Src/mcb.c **** double mcb_tlb_bat_signals_status_dcbus_prech_rly_is_closed_decode(uint8_t value)
 477:SCan/SC24/artifacts/MCB/c_source/Src/mcb.c **** {
 2328              		.loc 1 477 1 is_stmt 1 view -0
 2329              		.cfi_startproc
 2330              		@ args = 0, pretend = 0, frame = 0
 2331              		@ frame_needed = 0, uses_anonymous_args = 0
 2332              		.loc 1 477 1 is_stmt 0 view .LVU604
 2333 0000 08B5     		push	{r3, lr}
 2334              	.LCFI25:
 2335              		.cfi_def_cfa_offset 8
 2336              		.cfi_offset 3, -8
 2337              		.cfi_offset 14, -4
 478:SCan/SC24/artifacts/MCB/c_source/Src/mcb.c ****     return ((double)value);
 2338              		.loc 1 478 5 is_stmt 1 view .LVU605
 2339              		.loc 1 478 13 is_stmt 0 view .LVU606
 2340 0002 FFF7FEFF 		bl	__aeabi_ui2d
 2341              	.LVL219:
 479:SCan/SC24/artifacts/MCB/c_source/Src/mcb.c **** }
 2342              		.loc 1 479 1 view .LVU607
 2343 0006 41EC100B 		vmov	d0, r0, r1
 2344 000a 08BD     		pop	{r3, pc}
 2345              		.cfi_endproc
 2346              	.LFE59:
ARM GAS  /tmp/ccQYM1B7.s 			page 53


 2348              		.section	.text.mcb_tlb_bat_signals_status_dcbus_prech_rly_is_closed_is_in_range,"ax",%progbits
 2349              		.align	1
 2350              		.global	mcb_tlb_bat_signals_status_dcbus_prech_rly_is_closed_is_in_range
 2351              		.syntax unified
 2352              		.thumb
 2353              		.thumb_func
 2354              		.fpu fpv4-sp-d16
 2356              	mcb_tlb_bat_signals_status_dcbus_prech_rly_is_closed_is_in_range:
 2357              	.LVL220:
 2358              	.LFB60:
 480:SCan/SC24/artifacts/MCB/c_source/Src/mcb.c **** 
 481:SCan/SC24/artifacts/MCB/c_source/Src/mcb.c **** bool mcb_tlb_bat_signals_status_dcbus_prech_rly_is_closed_is_in_range(uint8_t value)
 482:SCan/SC24/artifacts/MCB/c_source/Src/mcb.c **** {
 2359              		.loc 1 482 1 is_stmt 1 view -0
 2360              		.cfi_startproc
 2361              		@ args = 0, pretend = 0, frame = 0
 2362              		@ frame_needed = 0, uses_anonymous_args = 0
 2363              		@ link register save eliminated.
 483:SCan/SC24/artifacts/MCB/c_source/Src/mcb.c ****     return (value <= 1u);
 2364              		.loc 1 483 5 view .LVU609
 484:SCan/SC24/artifacts/MCB/c_source/Src/mcb.c **** }
 2365              		.loc 1 484 1 is_stmt 0 view .LVU610
 2366 0000 0128     		cmp	r0, #1
 2367 0002 8CBF     		ite	hi
 2368 0004 0020     		movhi	r0, #0
 2369              	.LVL221:
 2370              		.loc 1 484 1 view .LVU611
 2371 0006 0120     		movls	r0, #1
 2372 0008 7047     		bx	lr
 2373              		.cfi_endproc
 2374              	.LFE60:
 2376              		.section	.text.mcb_tlb_bat_signals_status_ams_err_is_active_encode,"ax",%progbits
 2377              		.align	1
 2378              		.global	mcb_tlb_bat_signals_status_ams_err_is_active_encode
 2379              		.syntax unified
 2380              		.thumb
 2381              		.thumb_func
 2382              		.fpu fpv4-sp-d16
 2384              	mcb_tlb_bat_signals_status_ams_err_is_active_encode:
 2385              	.LVL222:
 2386              	.LFB61:
 485:SCan/SC24/artifacts/MCB/c_source/Src/mcb.c **** 
 486:SCan/SC24/artifacts/MCB/c_source/Src/mcb.c **** uint8_t mcb_tlb_bat_signals_status_ams_err_is_active_encode(double value)
 487:SCan/SC24/artifacts/MCB/c_source/Src/mcb.c **** {
 2387              		.loc 1 487 1 is_stmt 1 view -0
 2388              		.cfi_startproc
 2389              		@ args = 0, pretend = 0, frame = 0
 2390              		@ frame_needed = 0, uses_anonymous_args = 0
 2391              		.loc 1 487 1 is_stmt 0 view .LVU613
 2392 0000 08B5     		push	{r3, lr}
 2393              	.LCFI26:
 2394              		.cfi_def_cfa_offset 8
 2395              		.cfi_offset 3, -8
 2396              		.cfi_offset 14, -4
 2397 0002 51EC100B 		vmov	r0, r1, d0
 488:SCan/SC24/artifacts/MCB/c_source/Src/mcb.c ****     return (uint8_t)(value);
 2398              		.loc 1 488 5 is_stmt 1 view .LVU614
ARM GAS  /tmp/ccQYM1B7.s 			page 54


 2399              		.loc 1 488 12 is_stmt 0 view .LVU615
 2400 0006 FFF7FEFF 		bl	__aeabi_d2uiz
 2401              	.LVL223:
 489:SCan/SC24/artifacts/MCB/c_source/Src/mcb.c **** }
 2402              		.loc 1 489 1 view .LVU616
 2403 000a C0B2     		uxtb	r0, r0
 2404 000c 08BD     		pop	{r3, pc}
 2405              		.cfi_endproc
 2406              	.LFE61:
 2408              		.section	.text.mcb_tlb_bat_signals_status_ams_err_is_active_decode,"ax",%progbits
 2409              		.align	1
 2410              		.global	mcb_tlb_bat_signals_status_ams_err_is_active_decode
 2411              		.syntax unified
 2412              		.thumb
 2413              		.thumb_func
 2414              		.fpu fpv4-sp-d16
 2416              	mcb_tlb_bat_signals_status_ams_err_is_active_decode:
 2417              	.LVL224:
 2418              	.LFB62:
 490:SCan/SC24/artifacts/MCB/c_source/Src/mcb.c **** 
 491:SCan/SC24/artifacts/MCB/c_source/Src/mcb.c **** double mcb_tlb_bat_signals_status_ams_err_is_active_decode(uint8_t value)
 492:SCan/SC24/artifacts/MCB/c_source/Src/mcb.c **** {
 2419              		.loc 1 492 1 is_stmt 1 view -0
 2420              		.cfi_startproc
 2421              		@ args = 0, pretend = 0, frame = 0
 2422              		@ frame_needed = 0, uses_anonymous_args = 0
 2423              		.loc 1 492 1 is_stmt 0 view .LVU618
 2424 0000 08B5     		push	{r3, lr}
 2425              	.LCFI27:
 2426              		.cfi_def_cfa_offset 8
 2427              		.cfi_offset 3, -8
 2428              		.cfi_offset 14, -4
 493:SCan/SC24/artifacts/MCB/c_source/Src/mcb.c ****     return ((double)value);
 2429              		.loc 1 493 5 is_stmt 1 view .LVU619
 2430              		.loc 1 493 13 is_stmt 0 view .LVU620
 2431 0002 FFF7FEFF 		bl	__aeabi_ui2d
 2432              	.LVL225:
 494:SCan/SC24/artifacts/MCB/c_source/Src/mcb.c **** }
 2433              		.loc 1 494 1 view .LVU621
 2434 0006 41EC100B 		vmov	d0, r0, r1
 2435 000a 08BD     		pop	{r3, pc}
 2436              		.cfi_endproc
 2437              	.LFE62:
 2439              		.section	.text.mcb_tlb_bat_signals_status_ams_err_is_active_is_in_range,"ax",%progbits
 2440              		.align	1
 2441              		.global	mcb_tlb_bat_signals_status_ams_err_is_active_is_in_range
 2442              		.syntax unified
 2443              		.thumb
 2444              		.thumb_func
 2445              		.fpu fpv4-sp-d16
 2447              	mcb_tlb_bat_signals_status_ams_err_is_active_is_in_range:
 2448              	.LVL226:
 2449              	.LFB63:
 495:SCan/SC24/artifacts/MCB/c_source/Src/mcb.c **** 
 496:SCan/SC24/artifacts/MCB/c_source/Src/mcb.c **** bool mcb_tlb_bat_signals_status_ams_err_is_active_is_in_range(uint8_t value)
 497:SCan/SC24/artifacts/MCB/c_source/Src/mcb.c **** {
 2450              		.loc 1 497 1 is_stmt 1 view -0
ARM GAS  /tmp/ccQYM1B7.s 			page 55


 2451              		.cfi_startproc
 2452              		@ args = 0, pretend = 0, frame = 0
 2453              		@ frame_needed = 0, uses_anonymous_args = 0
 2454              		@ link register save eliminated.
 498:SCan/SC24/artifacts/MCB/c_source/Src/mcb.c ****     return (value <= 1u);
 2455              		.loc 1 498 5 view .LVU623
 499:SCan/SC24/artifacts/MCB/c_source/Src/mcb.c **** }
 2456              		.loc 1 499 1 is_stmt 0 view .LVU624
 2457 0000 0128     		cmp	r0, #1
 2458 0002 8CBF     		ite	hi
 2459 0004 0020     		movhi	r0, #0
 2460              	.LVL227:
 2461              		.loc 1 499 1 view .LVU625
 2462 0006 0120     		movls	r0, #1
 2463 0008 7047     		bx	lr
 2464              		.cfi_endproc
 2465              	.LFE63:
 2467              		.section	.text.mcb_tlb_bat_signals_status_imd_err_is_active_encode,"ax",%progbits
 2468              		.align	1
 2469              		.global	mcb_tlb_bat_signals_status_imd_err_is_active_encode
 2470              		.syntax unified
 2471              		.thumb
 2472              		.thumb_func
 2473              		.fpu fpv4-sp-d16
 2475              	mcb_tlb_bat_signals_status_imd_err_is_active_encode:
 2476              	.LVL228:
 2477              	.LFB64:
 500:SCan/SC24/artifacts/MCB/c_source/Src/mcb.c **** 
 501:SCan/SC24/artifacts/MCB/c_source/Src/mcb.c **** uint8_t mcb_tlb_bat_signals_status_imd_err_is_active_encode(double value)
 502:SCan/SC24/artifacts/MCB/c_source/Src/mcb.c **** {
 2478              		.loc 1 502 1 is_stmt 1 view -0
 2479              		.cfi_startproc
 2480              		@ args = 0, pretend = 0, frame = 0
 2481              		@ frame_needed = 0, uses_anonymous_args = 0
 2482              		.loc 1 502 1 is_stmt 0 view .LVU627
 2483 0000 08B5     		push	{r3, lr}
 2484              	.LCFI28:
 2485              		.cfi_def_cfa_offset 8
 2486              		.cfi_offset 3, -8
 2487              		.cfi_offset 14, -4
 2488 0002 51EC100B 		vmov	r0, r1, d0
 503:SCan/SC24/artifacts/MCB/c_source/Src/mcb.c ****     return (uint8_t)(value);
 2489              		.loc 1 503 5 is_stmt 1 view .LVU628
 2490              		.loc 1 503 12 is_stmt 0 view .LVU629
 2491 0006 FFF7FEFF 		bl	__aeabi_d2uiz
 2492              	.LVL229:
 504:SCan/SC24/artifacts/MCB/c_source/Src/mcb.c **** }
 2493              		.loc 1 504 1 view .LVU630
 2494 000a C0B2     		uxtb	r0, r0
 2495 000c 08BD     		pop	{r3, pc}
 2496              		.cfi_endproc
 2497              	.LFE64:
 2499              		.section	.text.mcb_tlb_bat_signals_status_imd_err_is_active_decode,"ax",%progbits
 2500              		.align	1
 2501              		.global	mcb_tlb_bat_signals_status_imd_err_is_active_decode
 2502              		.syntax unified
 2503              		.thumb
ARM GAS  /tmp/ccQYM1B7.s 			page 56


 2504              		.thumb_func
 2505              		.fpu fpv4-sp-d16
 2507              	mcb_tlb_bat_signals_status_imd_err_is_active_decode:
 2508              	.LVL230:
 2509              	.LFB65:
 505:SCan/SC24/artifacts/MCB/c_source/Src/mcb.c **** 
 506:SCan/SC24/artifacts/MCB/c_source/Src/mcb.c **** double mcb_tlb_bat_signals_status_imd_err_is_active_decode(uint8_t value)
 507:SCan/SC24/artifacts/MCB/c_source/Src/mcb.c **** {
 2510              		.loc 1 507 1 is_stmt 1 view -0
 2511              		.cfi_startproc
 2512              		@ args = 0, pretend = 0, frame = 0
 2513              		@ frame_needed = 0, uses_anonymous_args = 0
 2514              		.loc 1 507 1 is_stmt 0 view .LVU632
 2515 0000 08B5     		push	{r3, lr}
 2516              	.LCFI29:
 2517              		.cfi_def_cfa_offset 8
 2518              		.cfi_offset 3, -8
 2519              		.cfi_offset 14, -4
 508:SCan/SC24/artifacts/MCB/c_source/Src/mcb.c ****     return ((double)value);
 2520              		.loc 1 508 5 is_stmt 1 view .LVU633
 2521              		.loc 1 508 13 is_stmt 0 view .LVU634
 2522 0002 FFF7FEFF 		bl	__aeabi_ui2d
 2523              	.LVL231:
 509:SCan/SC24/artifacts/MCB/c_source/Src/mcb.c **** }
 2524              		.loc 1 509 1 view .LVU635
 2525 0006 41EC100B 		vmov	d0, r0, r1
 2526 000a 08BD     		pop	{r3, pc}
 2527              		.cfi_endproc
 2528              	.LFE65:
 2530              		.section	.text.mcb_tlb_bat_signals_status_imd_err_is_active_is_in_range,"ax",%progbits
 2531              		.align	1
 2532              		.global	mcb_tlb_bat_signals_status_imd_err_is_active_is_in_range
 2533              		.syntax unified
 2534              		.thumb
 2535              		.thumb_func
 2536              		.fpu fpv4-sp-d16
 2538              	mcb_tlb_bat_signals_status_imd_err_is_active_is_in_range:
 2539              	.LVL232:
 2540              	.LFB66:
 510:SCan/SC24/artifacts/MCB/c_source/Src/mcb.c **** 
 511:SCan/SC24/artifacts/MCB/c_source/Src/mcb.c **** bool mcb_tlb_bat_signals_status_imd_err_is_active_is_in_range(uint8_t value)
 512:SCan/SC24/artifacts/MCB/c_source/Src/mcb.c **** {
 2541              		.loc 1 512 1 is_stmt 1 view -0
 2542              		.cfi_startproc
 2543              		@ args = 0, pretend = 0, frame = 0
 2544              		@ frame_needed = 0, uses_anonymous_args = 0
 2545              		@ link register save eliminated.
 513:SCan/SC24/artifacts/MCB/c_source/Src/mcb.c ****     return (value <= 1u);
 2546              		.loc 1 513 5 view .LVU637
 514:SCan/SC24/artifacts/MCB/c_source/Src/mcb.c **** }
 2547              		.loc 1 514 1 is_stmt 0 view .LVU638
 2548 0000 0128     		cmp	r0, #1
 2549 0002 8CBF     		ite	hi
 2550 0004 0020     		movhi	r0, #0
 2551              	.LVL233:
 2552              		.loc 1 514 1 view .LVU639
 2553 0006 0120     		movls	r0, #1
ARM GAS  /tmp/ccQYM1B7.s 			page 57


 2554 0008 7047     		bx	lr
 2555              		.cfi_endproc
 2556              	.LFE66:
 2558              		.section	.text.mcb_tlb_bat_signals_status_tsal_green_is_active_encode,"ax",%progbits
 2559              		.align	1
 2560              		.global	mcb_tlb_bat_signals_status_tsal_green_is_active_encode
 2561              		.syntax unified
 2562              		.thumb
 2563              		.thumb_func
 2564              		.fpu fpv4-sp-d16
 2566              	mcb_tlb_bat_signals_status_tsal_green_is_active_encode:
 2567              	.LVL234:
 2568              	.LFB67:
 515:SCan/SC24/artifacts/MCB/c_source/Src/mcb.c **** 
 516:SCan/SC24/artifacts/MCB/c_source/Src/mcb.c **** uint8_t mcb_tlb_bat_signals_status_tsal_green_is_active_encode(double value)
 517:SCan/SC24/artifacts/MCB/c_source/Src/mcb.c **** {
 2569              		.loc 1 517 1 is_stmt 1 view -0
 2570              		.cfi_startproc
 2571              		@ args = 0, pretend = 0, frame = 0
 2572              		@ frame_needed = 0, uses_anonymous_args = 0
 2573              		.loc 1 517 1 is_stmt 0 view .LVU641
 2574 0000 08B5     		push	{r3, lr}
 2575              	.LCFI30:
 2576              		.cfi_def_cfa_offset 8
 2577              		.cfi_offset 3, -8
 2578              		.cfi_offset 14, -4
 2579 0002 51EC100B 		vmov	r0, r1, d0
 518:SCan/SC24/artifacts/MCB/c_source/Src/mcb.c ****     return (uint8_t)(value);
 2580              		.loc 1 518 5 is_stmt 1 view .LVU642
 2581              		.loc 1 518 12 is_stmt 0 view .LVU643
 2582 0006 FFF7FEFF 		bl	__aeabi_d2uiz
 2583              	.LVL235:
 519:SCan/SC24/artifacts/MCB/c_source/Src/mcb.c **** }
 2584              		.loc 1 519 1 view .LVU644
 2585 000a C0B2     		uxtb	r0, r0
 2586 000c 08BD     		pop	{r3, pc}
 2587              		.cfi_endproc
 2588              	.LFE67:
 2590              		.section	.text.mcb_tlb_bat_signals_status_tsal_green_is_active_decode,"ax",%progbits
 2591              		.align	1
 2592              		.global	mcb_tlb_bat_signals_status_tsal_green_is_active_decode
 2593              		.syntax unified
 2594              		.thumb
 2595              		.thumb_func
 2596              		.fpu fpv4-sp-d16
 2598              	mcb_tlb_bat_signals_status_tsal_green_is_active_decode:
 2599              	.LVL236:
 2600              	.LFB68:
 520:SCan/SC24/artifacts/MCB/c_source/Src/mcb.c **** 
 521:SCan/SC24/artifacts/MCB/c_source/Src/mcb.c **** double mcb_tlb_bat_signals_status_tsal_green_is_active_decode(uint8_t value)
 522:SCan/SC24/artifacts/MCB/c_source/Src/mcb.c **** {
 2601              		.loc 1 522 1 is_stmt 1 view -0
 2602              		.cfi_startproc
 2603              		@ args = 0, pretend = 0, frame = 0
 2604              		@ frame_needed = 0, uses_anonymous_args = 0
 2605              		.loc 1 522 1 is_stmt 0 view .LVU646
 2606 0000 08B5     		push	{r3, lr}
ARM GAS  /tmp/ccQYM1B7.s 			page 58


 2607              	.LCFI31:
 2608              		.cfi_def_cfa_offset 8
 2609              		.cfi_offset 3, -8
 2610              		.cfi_offset 14, -4
 523:SCan/SC24/artifacts/MCB/c_source/Src/mcb.c ****     return ((double)value);
 2611              		.loc 1 523 5 is_stmt 1 view .LVU647
 2612              		.loc 1 523 13 is_stmt 0 view .LVU648
 2613 0002 FFF7FEFF 		bl	__aeabi_ui2d
 2614              	.LVL237:
 524:SCan/SC24/artifacts/MCB/c_source/Src/mcb.c **** }
 2615              		.loc 1 524 1 view .LVU649
 2616 0006 41EC100B 		vmov	d0, r0, r1
 2617 000a 08BD     		pop	{r3, pc}
 2618              		.cfi_endproc
 2619              	.LFE68:
 2621              		.section	.text.mcb_tlb_bat_signals_status_tsal_green_is_active_is_in_range,"ax",%progbits
 2622              		.align	1
 2623              		.global	mcb_tlb_bat_signals_status_tsal_green_is_active_is_in_range
 2624              		.syntax unified
 2625              		.thumb
 2626              		.thumb_func
 2627              		.fpu fpv4-sp-d16
 2629              	mcb_tlb_bat_signals_status_tsal_green_is_active_is_in_range:
 2630              	.LVL238:
 2631              	.LFB69:
 525:SCan/SC24/artifacts/MCB/c_source/Src/mcb.c **** 
 526:SCan/SC24/artifacts/MCB/c_source/Src/mcb.c **** bool mcb_tlb_bat_signals_status_tsal_green_is_active_is_in_range(uint8_t value)
 527:SCan/SC24/artifacts/MCB/c_source/Src/mcb.c **** {
 2632              		.loc 1 527 1 is_stmt 1 view -0
 2633              		.cfi_startproc
 2634              		@ args = 0, pretend = 0, frame = 0
 2635              		@ frame_needed = 0, uses_anonymous_args = 0
 2636              		@ link register save eliminated.
 528:SCan/SC24/artifacts/MCB/c_source/Src/mcb.c ****     return (value <= 1u);
 2637              		.loc 1 528 5 view .LVU651
 529:SCan/SC24/artifacts/MCB/c_source/Src/mcb.c **** }
 2638              		.loc 1 529 1 is_stmt 0 view .LVU652
 2639 0000 0128     		cmp	r0, #1
 2640 0002 8CBF     		ite	hi
 2641 0004 0020     		movhi	r0, #0
 2642              	.LVL239:
 2643              		.loc 1 529 1 view .LVU653
 2644 0006 0120     		movls	r0, #1
 2645 0008 7047     		bx	lr
 2646              		.cfi_endproc
 2647              	.LFE69:
 2649              		.section	.text.mcb_tlb_bat_signals_status_dcbus_is_over60_v_encode,"ax",%progbits
 2650              		.align	1
 2651              		.global	mcb_tlb_bat_signals_status_dcbus_is_over60_v_encode
 2652              		.syntax unified
 2653              		.thumb
 2654              		.thumb_func
 2655              		.fpu fpv4-sp-d16
 2657              	mcb_tlb_bat_signals_status_dcbus_is_over60_v_encode:
 2658              	.LVL240:
 2659              	.LFB70:
 530:SCan/SC24/artifacts/MCB/c_source/Src/mcb.c **** 
ARM GAS  /tmp/ccQYM1B7.s 			page 59


 531:SCan/SC24/artifacts/MCB/c_source/Src/mcb.c **** uint8_t mcb_tlb_bat_signals_status_dcbus_is_over60_v_encode(double value)
 532:SCan/SC24/artifacts/MCB/c_source/Src/mcb.c **** {
 2660              		.loc 1 532 1 is_stmt 1 view -0
 2661              		.cfi_startproc
 2662              		@ args = 0, pretend = 0, frame = 0
 2663              		@ frame_needed = 0, uses_anonymous_args = 0
 2664              		.loc 1 532 1 is_stmt 0 view .LVU655
 2665 0000 08B5     		push	{r3, lr}
 2666              	.LCFI32:
 2667              		.cfi_def_cfa_offset 8
 2668              		.cfi_offset 3, -8
 2669              		.cfi_offset 14, -4
 2670 0002 51EC100B 		vmov	r0, r1, d0
 533:SCan/SC24/artifacts/MCB/c_source/Src/mcb.c ****     return (uint8_t)(value);
 2671              		.loc 1 533 5 is_stmt 1 view .LVU656
 2672              		.loc 1 533 12 is_stmt 0 view .LVU657
 2673 0006 FFF7FEFF 		bl	__aeabi_d2uiz
 2674              	.LVL241:
 534:SCan/SC24/artifacts/MCB/c_source/Src/mcb.c **** }
 2675              		.loc 1 534 1 view .LVU658
 2676 000a C0B2     		uxtb	r0, r0
 2677 000c 08BD     		pop	{r3, pc}
 2678              		.cfi_endproc
 2679              	.LFE70:
 2681              		.section	.text.mcb_tlb_bat_signals_status_dcbus_is_over60_v_decode,"ax",%progbits
 2682              		.align	1
 2683              		.global	mcb_tlb_bat_signals_status_dcbus_is_over60_v_decode
 2684              		.syntax unified
 2685              		.thumb
 2686              		.thumb_func
 2687              		.fpu fpv4-sp-d16
 2689              	mcb_tlb_bat_signals_status_dcbus_is_over60_v_decode:
 2690              	.LVL242:
 2691              	.LFB71:
 535:SCan/SC24/artifacts/MCB/c_source/Src/mcb.c **** 
 536:SCan/SC24/artifacts/MCB/c_source/Src/mcb.c **** double mcb_tlb_bat_signals_status_dcbus_is_over60_v_decode(uint8_t value)
 537:SCan/SC24/artifacts/MCB/c_source/Src/mcb.c **** {
 2692              		.loc 1 537 1 is_stmt 1 view -0
 2693              		.cfi_startproc
 2694              		@ args = 0, pretend = 0, frame = 0
 2695              		@ frame_needed = 0, uses_anonymous_args = 0
 2696              		.loc 1 537 1 is_stmt 0 view .LVU660
 2697 0000 08B5     		push	{r3, lr}
 2698              	.LCFI33:
 2699              		.cfi_def_cfa_offset 8
 2700              		.cfi_offset 3, -8
 2701              		.cfi_offset 14, -4
 538:SCan/SC24/artifacts/MCB/c_source/Src/mcb.c ****     return ((double)value);
 2702              		.loc 1 538 5 is_stmt 1 view .LVU661
 2703              		.loc 1 538 13 is_stmt 0 view .LVU662
 2704 0002 FFF7FEFF 		bl	__aeabi_ui2d
 2705              	.LVL243:
 539:SCan/SC24/artifacts/MCB/c_source/Src/mcb.c **** }
 2706              		.loc 1 539 1 view .LVU663
 2707 0006 41EC100B 		vmov	d0, r0, r1
 2708 000a 08BD     		pop	{r3, pc}
 2709              		.cfi_endproc
ARM GAS  /tmp/ccQYM1B7.s 			page 60


 2710              	.LFE71:
 2712              		.section	.text.mcb_tlb_bat_signals_status_dcbus_is_over60_v_is_in_range,"ax",%progbits
 2713              		.align	1
 2714              		.global	mcb_tlb_bat_signals_status_dcbus_is_over60_v_is_in_range
 2715              		.syntax unified
 2716              		.thumb
 2717              		.thumb_func
 2718              		.fpu fpv4-sp-d16
 2720              	mcb_tlb_bat_signals_status_dcbus_is_over60_v_is_in_range:
 2721              	.LVL244:
 2722              	.LFB72:
 540:SCan/SC24/artifacts/MCB/c_source/Src/mcb.c **** 
 541:SCan/SC24/artifacts/MCB/c_source/Src/mcb.c **** bool mcb_tlb_bat_signals_status_dcbus_is_over60_v_is_in_range(uint8_t value)
 542:SCan/SC24/artifacts/MCB/c_source/Src/mcb.c **** {
 2723              		.loc 1 542 1 is_stmt 1 view -0
 2724              		.cfi_startproc
 2725              		@ args = 0, pretend = 0, frame = 0
 2726              		@ frame_needed = 0, uses_anonymous_args = 0
 2727              		@ link register save eliminated.
 543:SCan/SC24/artifacts/MCB/c_source/Src/mcb.c ****     return (value <= 1u);
 2728              		.loc 1 543 5 view .LVU665
 544:SCan/SC24/artifacts/MCB/c_source/Src/mcb.c **** }
 2729              		.loc 1 544 1 is_stmt 0 view .LVU666
 2730 0000 0128     		cmp	r0, #1
 2731 0002 8CBF     		ite	hi
 2732 0004 0020     		movhi	r0, #0
 2733              	.LVL245:
 2734              		.loc 1 544 1 view .LVU667
 2735 0006 0120     		movls	r0, #1
 2736 0008 7047     		bx	lr
 2737              		.cfi_endproc
 2738              	.LFE72:
 2740              		.section	.text.mcb_tlb_bat_signals_status_imp_any_is_active_encode,"ax",%progbits
 2741              		.align	1
 2742              		.global	mcb_tlb_bat_signals_status_imp_any_is_active_encode
 2743              		.syntax unified
 2744              		.thumb
 2745              		.thumb_func
 2746              		.fpu fpv4-sp-d16
 2748              	mcb_tlb_bat_signals_status_imp_any_is_active_encode:
 2749              	.LVL246:
 2750              	.LFB73:
 545:SCan/SC24/artifacts/MCB/c_source/Src/mcb.c **** 
 546:SCan/SC24/artifacts/MCB/c_source/Src/mcb.c **** uint8_t mcb_tlb_bat_signals_status_imp_any_is_active_encode(double value)
 547:SCan/SC24/artifacts/MCB/c_source/Src/mcb.c **** {
 2751              		.loc 1 547 1 is_stmt 1 view -0
 2752              		.cfi_startproc
 2753              		@ args = 0, pretend = 0, frame = 0
 2754              		@ frame_needed = 0, uses_anonymous_args = 0
 2755              		.loc 1 547 1 is_stmt 0 view .LVU669
 2756 0000 08B5     		push	{r3, lr}
 2757              	.LCFI34:
 2758              		.cfi_def_cfa_offset 8
 2759              		.cfi_offset 3, -8
 2760              		.cfi_offset 14, -4
 2761 0002 51EC100B 		vmov	r0, r1, d0
 548:SCan/SC24/artifacts/MCB/c_source/Src/mcb.c ****     return (uint8_t)(value);
ARM GAS  /tmp/ccQYM1B7.s 			page 61


 2762              		.loc 1 548 5 is_stmt 1 view .LVU670
 2763              		.loc 1 548 12 is_stmt 0 view .LVU671
 2764 0006 FFF7FEFF 		bl	__aeabi_d2uiz
 2765              	.LVL247:
 549:SCan/SC24/artifacts/MCB/c_source/Src/mcb.c **** }
 2766              		.loc 1 549 1 view .LVU672
 2767 000a C0B2     		uxtb	r0, r0
 2768 000c 08BD     		pop	{r3, pc}
 2769              		.cfi_endproc
 2770              	.LFE73:
 2772              		.section	.text.mcb_tlb_bat_signals_status_imp_any_is_active_decode,"ax",%progbits
 2773              		.align	1
 2774              		.global	mcb_tlb_bat_signals_status_imp_any_is_active_decode
 2775              		.syntax unified
 2776              		.thumb
 2777              		.thumb_func
 2778              		.fpu fpv4-sp-d16
 2780              	mcb_tlb_bat_signals_status_imp_any_is_active_decode:
 2781              	.LVL248:
 2782              	.LFB74:
 550:SCan/SC24/artifacts/MCB/c_source/Src/mcb.c **** 
 551:SCan/SC24/artifacts/MCB/c_source/Src/mcb.c **** double mcb_tlb_bat_signals_status_imp_any_is_active_decode(uint8_t value)
 552:SCan/SC24/artifacts/MCB/c_source/Src/mcb.c **** {
 2783              		.loc 1 552 1 is_stmt 1 view -0
 2784              		.cfi_startproc
 2785              		@ args = 0, pretend = 0, frame = 0
 2786              		@ frame_needed = 0, uses_anonymous_args = 0
 2787              		.loc 1 552 1 is_stmt 0 view .LVU674
 2788 0000 08B5     		push	{r3, lr}
 2789              	.LCFI35:
 2790              		.cfi_def_cfa_offset 8
 2791              		.cfi_offset 3, -8
 2792              		.cfi_offset 14, -4
 553:SCan/SC24/artifacts/MCB/c_source/Src/mcb.c ****     return ((double)value);
 2793              		.loc 1 553 5 is_stmt 1 view .LVU675
 2794              		.loc 1 553 13 is_stmt 0 view .LVU676
 2795 0002 FFF7FEFF 		bl	__aeabi_ui2d
 2796              	.LVL249:
 554:SCan/SC24/artifacts/MCB/c_source/Src/mcb.c **** }
 2797              		.loc 1 554 1 view .LVU677
 2798 0006 41EC100B 		vmov	d0, r0, r1
 2799 000a 08BD     		pop	{r3, pc}
 2800              		.cfi_endproc
 2801              	.LFE74:
 2803              		.section	.text.mcb_tlb_bat_signals_status_imp_any_is_active_is_in_range,"ax",%progbits
 2804              		.align	1
 2805              		.global	mcb_tlb_bat_signals_status_imp_any_is_active_is_in_range
 2806              		.syntax unified
 2807              		.thumb
 2808              		.thumb_func
 2809              		.fpu fpv4-sp-d16
 2811              	mcb_tlb_bat_signals_status_imp_any_is_active_is_in_range:
 2812              	.LVL250:
 2813              	.LFB75:
 555:SCan/SC24/artifacts/MCB/c_source/Src/mcb.c **** 
 556:SCan/SC24/artifacts/MCB/c_source/Src/mcb.c **** bool mcb_tlb_bat_signals_status_imp_any_is_active_is_in_range(uint8_t value)
 557:SCan/SC24/artifacts/MCB/c_source/Src/mcb.c **** {
ARM GAS  /tmp/ccQYM1B7.s 			page 62


 2814              		.loc 1 557 1 is_stmt 1 view -0
 2815              		.cfi_startproc
 2816              		@ args = 0, pretend = 0, frame = 0
 2817              		@ frame_needed = 0, uses_anonymous_args = 0
 2818              		@ link register save eliminated.
 558:SCan/SC24/artifacts/MCB/c_source/Src/mcb.c ****     return (value <= 1u);
 2819              		.loc 1 558 5 view .LVU679
 559:SCan/SC24/artifacts/MCB/c_source/Src/mcb.c **** }
 2820              		.loc 1 559 1 is_stmt 0 view .LVU680
 2821 0000 0128     		cmp	r0, #1
 2822 0002 8CBF     		ite	hi
 2823 0004 0020     		movhi	r0, #0
 2824              	.LVL251:
 2825              		.loc 1 559 1 view .LVU681
 2826 0006 0120     		movls	r0, #1
 2827 0008 7047     		bx	lr
 2828              		.cfi_endproc
 2829              	.LFE75:
 2831              		.section	.text.mcb_tlb_bat_signals_status_imp_hv_relays_state_is_active_encode,"ax",%progbits
 2832              		.align	1
 2833              		.global	mcb_tlb_bat_signals_status_imp_hv_relays_state_is_active_encode
 2834              		.syntax unified
 2835              		.thumb
 2836              		.thumb_func
 2837              		.fpu fpv4-sp-d16
 2839              	mcb_tlb_bat_signals_status_imp_hv_relays_state_is_active_encode:
 2840              	.LVL252:
 2841              	.LFB76:
 560:SCan/SC24/artifacts/MCB/c_source/Src/mcb.c **** 
 561:SCan/SC24/artifacts/MCB/c_source/Src/mcb.c **** uint8_t mcb_tlb_bat_signals_status_imp_hv_relays_state_is_active_encode(double value)
 562:SCan/SC24/artifacts/MCB/c_source/Src/mcb.c **** {
 2842              		.loc 1 562 1 is_stmt 1 view -0
 2843              		.cfi_startproc
 2844              		@ args = 0, pretend = 0, frame = 0
 2845              		@ frame_needed = 0, uses_anonymous_args = 0
 2846              		.loc 1 562 1 is_stmt 0 view .LVU683
 2847 0000 08B5     		push	{r3, lr}
 2848              	.LCFI36:
 2849              		.cfi_def_cfa_offset 8
 2850              		.cfi_offset 3, -8
 2851              		.cfi_offset 14, -4
 2852 0002 51EC100B 		vmov	r0, r1, d0
 563:SCan/SC24/artifacts/MCB/c_source/Src/mcb.c ****     return (uint8_t)(value);
 2853              		.loc 1 563 5 is_stmt 1 view .LVU684
 2854              		.loc 1 563 12 is_stmt 0 view .LVU685
 2855 0006 FFF7FEFF 		bl	__aeabi_d2uiz
 2856              	.LVL253:
 564:SCan/SC24/artifacts/MCB/c_source/Src/mcb.c **** }
 2857              		.loc 1 564 1 view .LVU686
 2858 000a C0B2     		uxtb	r0, r0
 2859 000c 08BD     		pop	{r3, pc}
 2860              		.cfi_endproc
 2861              	.LFE76:
 2863              		.section	.text.mcb_tlb_bat_signals_status_imp_hv_relays_state_is_active_decode,"ax",%progbits
 2864              		.align	1
 2865              		.global	mcb_tlb_bat_signals_status_imp_hv_relays_state_is_active_decode
 2866              		.syntax unified
ARM GAS  /tmp/ccQYM1B7.s 			page 63


 2867              		.thumb
 2868              		.thumb_func
 2869              		.fpu fpv4-sp-d16
 2871              	mcb_tlb_bat_signals_status_imp_hv_relays_state_is_active_decode:
 2872              	.LVL254:
 2873              	.LFB77:
 565:SCan/SC24/artifacts/MCB/c_source/Src/mcb.c **** 
 566:SCan/SC24/artifacts/MCB/c_source/Src/mcb.c **** double mcb_tlb_bat_signals_status_imp_hv_relays_state_is_active_decode(uint8_t value)
 567:SCan/SC24/artifacts/MCB/c_source/Src/mcb.c **** {
 2874              		.loc 1 567 1 is_stmt 1 view -0
 2875              		.cfi_startproc
 2876              		@ args = 0, pretend = 0, frame = 0
 2877              		@ frame_needed = 0, uses_anonymous_args = 0
 2878              		.loc 1 567 1 is_stmt 0 view .LVU688
 2879 0000 08B5     		push	{r3, lr}
 2880              	.LCFI37:
 2881              		.cfi_def_cfa_offset 8
 2882              		.cfi_offset 3, -8
 2883              		.cfi_offset 14, -4
 568:SCan/SC24/artifacts/MCB/c_source/Src/mcb.c ****     return ((double)value);
 2884              		.loc 1 568 5 is_stmt 1 view .LVU689
 2885              		.loc 1 568 13 is_stmt 0 view .LVU690
 2886 0002 FFF7FEFF 		bl	__aeabi_ui2d
 2887              	.LVL255:
 569:SCan/SC24/artifacts/MCB/c_source/Src/mcb.c **** }
 2888              		.loc 1 569 1 view .LVU691
 2889 0006 41EC100B 		vmov	d0, r0, r1
 2890 000a 08BD     		pop	{r3, pc}
 2891              		.cfi_endproc
 2892              	.LFE77:
 2894              		.section	.text.mcb_tlb_bat_signals_status_imp_hv_relays_state_is_active_is_in_range,"ax",%progbits
 2895              		.align	1
 2896              		.global	mcb_tlb_bat_signals_status_imp_hv_relays_state_is_active_is_in_range
 2897              		.syntax unified
 2898              		.thumb
 2899              		.thumb_func
 2900              		.fpu fpv4-sp-d16
 2902              	mcb_tlb_bat_signals_status_imp_hv_relays_state_is_active_is_in_range:
 2903              	.LVL256:
 2904              	.LFB78:
 570:SCan/SC24/artifacts/MCB/c_source/Src/mcb.c **** 
 571:SCan/SC24/artifacts/MCB/c_source/Src/mcb.c **** bool mcb_tlb_bat_signals_status_imp_hv_relays_state_is_active_is_in_range(uint8_t value)
 572:SCan/SC24/artifacts/MCB/c_source/Src/mcb.c **** {
 2905              		.loc 1 572 1 is_stmt 1 view -0
 2906              		.cfi_startproc
 2907              		@ args = 0, pretend = 0, frame = 0
 2908              		@ frame_needed = 0, uses_anonymous_args = 0
 2909              		@ link register save eliminated.
 573:SCan/SC24/artifacts/MCB/c_source/Src/mcb.c ****     return (value <= 1u);
 2910              		.loc 1 573 5 view .LVU693
 574:SCan/SC24/artifacts/MCB/c_source/Src/mcb.c **** }
 2911              		.loc 1 574 1 is_stmt 0 view .LVU694
 2912 0000 0128     		cmp	r0, #1
 2913 0002 8CBF     		ite	hi
 2914 0004 0020     		movhi	r0, #0
 2915              	.LVL257:
 2916              		.loc 1 574 1 view .LVU695
ARM GAS  /tmp/ccQYM1B7.s 			page 64


 2917 0006 0120     		movls	r0, #1
 2918 0008 7047     		bx	lr
 2919              		.cfi_endproc
 2920              	.LFE78:
 2922              		.section	.text.mcb_tlb_bat_signals_status_imp_dcbus_is_active_encode,"ax",%progbits
 2923              		.align	1
 2924              		.global	mcb_tlb_bat_signals_status_imp_dcbus_is_active_encode
 2925              		.syntax unified
 2926              		.thumb
 2927              		.thumb_func
 2928              		.fpu fpv4-sp-d16
 2930              	mcb_tlb_bat_signals_status_imp_dcbus_is_active_encode:
 2931              	.LVL258:
 2932              	.LFB79:
 575:SCan/SC24/artifacts/MCB/c_source/Src/mcb.c **** 
 576:SCan/SC24/artifacts/MCB/c_source/Src/mcb.c **** uint8_t mcb_tlb_bat_signals_status_imp_dcbus_is_active_encode(double value)
 577:SCan/SC24/artifacts/MCB/c_source/Src/mcb.c **** {
 2933              		.loc 1 577 1 is_stmt 1 view -0
 2934              		.cfi_startproc
 2935              		@ args = 0, pretend = 0, frame = 0
 2936              		@ frame_needed = 0, uses_anonymous_args = 0
 2937              		.loc 1 577 1 is_stmt 0 view .LVU697
 2938 0000 08B5     		push	{r3, lr}
 2939              	.LCFI38:
 2940              		.cfi_def_cfa_offset 8
 2941              		.cfi_offset 3, -8
 2942              		.cfi_offset 14, -4
 2943 0002 51EC100B 		vmov	r0, r1, d0
 578:SCan/SC24/artifacts/MCB/c_source/Src/mcb.c ****     return (uint8_t)(value);
 2944              		.loc 1 578 5 is_stmt 1 view .LVU698
 2945              		.loc 1 578 12 is_stmt 0 view .LVU699
 2946 0006 FFF7FEFF 		bl	__aeabi_d2uiz
 2947              	.LVL259:
 579:SCan/SC24/artifacts/MCB/c_source/Src/mcb.c **** }
 2948              		.loc 1 579 1 view .LVU700
 2949 000a C0B2     		uxtb	r0, r0
 2950 000c 08BD     		pop	{r3, pc}
 2951              		.cfi_endproc
 2952              	.LFE79:
 2954              		.section	.text.mcb_tlb_bat_signals_status_imp_dcbus_is_active_decode,"ax",%progbits
 2955              		.align	1
 2956              		.global	mcb_tlb_bat_signals_status_imp_dcbus_is_active_decode
 2957              		.syntax unified
 2958              		.thumb
 2959              		.thumb_func
 2960              		.fpu fpv4-sp-d16
 2962              	mcb_tlb_bat_signals_status_imp_dcbus_is_active_decode:
 2963              	.LVL260:
 2964              	.LFB80:
 580:SCan/SC24/artifacts/MCB/c_source/Src/mcb.c **** 
 581:SCan/SC24/artifacts/MCB/c_source/Src/mcb.c **** double mcb_tlb_bat_signals_status_imp_dcbus_is_active_decode(uint8_t value)
 582:SCan/SC24/artifacts/MCB/c_source/Src/mcb.c **** {
 2965              		.loc 1 582 1 is_stmt 1 view -0
 2966              		.cfi_startproc
 2967              		@ args = 0, pretend = 0, frame = 0
 2968              		@ frame_needed = 0, uses_anonymous_args = 0
 2969              		.loc 1 582 1 is_stmt 0 view .LVU702
ARM GAS  /tmp/ccQYM1B7.s 			page 65


 2970 0000 08B5     		push	{r3, lr}
 2971              	.LCFI39:
 2972              		.cfi_def_cfa_offset 8
 2973              		.cfi_offset 3, -8
 2974              		.cfi_offset 14, -4
 583:SCan/SC24/artifacts/MCB/c_source/Src/mcb.c ****     return ((double)value);
 2975              		.loc 1 583 5 is_stmt 1 view .LVU703
 2976              		.loc 1 583 13 is_stmt 0 view .LVU704
 2977 0002 FFF7FEFF 		bl	__aeabi_ui2d
 2978              	.LVL261:
 584:SCan/SC24/artifacts/MCB/c_source/Src/mcb.c **** }
 2979              		.loc 1 584 1 view .LVU705
 2980 0006 41EC100B 		vmov	d0, r0, r1
 2981 000a 08BD     		pop	{r3, pc}
 2982              		.cfi_endproc
 2983              	.LFE80:
 2985              		.section	.text.mcb_tlb_bat_signals_status_imp_dcbus_is_active_is_in_range,"ax",%progbits
 2986              		.align	1
 2987              		.global	mcb_tlb_bat_signals_status_imp_dcbus_is_active_is_in_range
 2988              		.syntax unified
 2989              		.thumb
 2990              		.thumb_func
 2991              		.fpu fpv4-sp-d16
 2993              	mcb_tlb_bat_signals_status_imp_dcbus_is_active_is_in_range:
 2994              	.LVL262:
 2995              	.LFB81:
 585:SCan/SC24/artifacts/MCB/c_source/Src/mcb.c **** 
 586:SCan/SC24/artifacts/MCB/c_source/Src/mcb.c **** bool mcb_tlb_bat_signals_status_imp_dcbus_is_active_is_in_range(uint8_t value)
 587:SCan/SC24/artifacts/MCB/c_source/Src/mcb.c **** {
 2996              		.loc 1 587 1 is_stmt 1 view -0
 2997              		.cfi_startproc
 2998              		@ args = 0, pretend = 0, frame = 0
 2999              		@ frame_needed = 0, uses_anonymous_args = 0
 3000              		@ link register save eliminated.
 588:SCan/SC24/artifacts/MCB/c_source/Src/mcb.c ****     return (value <= 1u);
 3001              		.loc 1 588 5 view .LVU707
 589:SCan/SC24/artifacts/MCB/c_source/Src/mcb.c **** }
 3002              		.loc 1 589 1 is_stmt 0 view .LVU708
 3003 0000 0128     		cmp	r0, #1
 3004 0002 8CBF     		ite	hi
 3005 0004 0020     		movhi	r0, #0
 3006              	.LVL263:
 3007              		.loc 1 589 1 view .LVU709
 3008 0006 0120     		movls	r0, #1
 3009 0008 7047     		bx	lr
 3010              		.cfi_endproc
 3011              	.LFE81:
 3013              		.section	.text.mcb_tlb_bat_signals_status_air_pos_stg_mech_state_signal_is_active_encode,"ax",%pro
 3014              		.align	1
 3015              		.global	mcb_tlb_bat_signals_status_air_pos_stg_mech_state_signal_is_active_encode
 3016              		.syntax unified
 3017              		.thumb
 3018              		.thumb_func
 3019              		.fpu fpv4-sp-d16
 3021              	mcb_tlb_bat_signals_status_air_pos_stg_mech_state_signal_is_active_encode:
 3022              	.LVL264:
 3023              	.LFB82:
ARM GAS  /tmp/ccQYM1B7.s 			page 66


 590:SCan/SC24/artifacts/MCB/c_source/Src/mcb.c **** 
 591:SCan/SC24/artifacts/MCB/c_source/Src/mcb.c **** uint8_t mcb_tlb_bat_signals_status_air_pos_stg_mech_state_signal_is_active_encode(double value)
 592:SCan/SC24/artifacts/MCB/c_source/Src/mcb.c **** {
 3024              		.loc 1 592 1 is_stmt 1 view -0
 3025              		.cfi_startproc
 3026              		@ args = 0, pretend = 0, frame = 0
 3027              		@ frame_needed = 0, uses_anonymous_args = 0
 3028              		.loc 1 592 1 is_stmt 0 view .LVU711
 3029 0000 08B5     		push	{r3, lr}
 3030              	.LCFI40:
 3031              		.cfi_def_cfa_offset 8
 3032              		.cfi_offset 3, -8
 3033              		.cfi_offset 14, -4
 3034 0002 51EC100B 		vmov	r0, r1, d0
 593:SCan/SC24/artifacts/MCB/c_source/Src/mcb.c ****     return (uint8_t)(value);
 3035              		.loc 1 593 5 is_stmt 1 view .LVU712
 3036              		.loc 1 593 12 is_stmt 0 view .LVU713
 3037 0006 FFF7FEFF 		bl	__aeabi_d2uiz
 3038              	.LVL265:
 594:SCan/SC24/artifacts/MCB/c_source/Src/mcb.c **** }
 3039              		.loc 1 594 1 view .LVU714
 3040 000a C0B2     		uxtb	r0, r0
 3041 000c 08BD     		pop	{r3, pc}
 3042              		.cfi_endproc
 3043              	.LFE82:
 3045              		.section	.text.mcb_tlb_bat_signals_status_air_pos_stg_mech_state_signal_is_active_decode,"ax",%pro
 3046              		.align	1
 3047              		.global	mcb_tlb_bat_signals_status_air_pos_stg_mech_state_signal_is_active_decode
 3048              		.syntax unified
 3049              		.thumb
 3050              		.thumb_func
 3051              		.fpu fpv4-sp-d16
 3053              	mcb_tlb_bat_signals_status_air_pos_stg_mech_state_signal_is_active_decode:
 3054              	.LVL266:
 3055              	.LFB83:
 595:SCan/SC24/artifacts/MCB/c_source/Src/mcb.c **** 
 596:SCan/SC24/artifacts/MCB/c_source/Src/mcb.c **** double mcb_tlb_bat_signals_status_air_pos_stg_mech_state_signal_is_active_decode(uint8_t value)
 597:SCan/SC24/artifacts/MCB/c_source/Src/mcb.c **** {
 3056              		.loc 1 597 1 is_stmt 1 view -0
 3057              		.cfi_startproc
 3058              		@ args = 0, pretend = 0, frame = 0
 3059              		@ frame_needed = 0, uses_anonymous_args = 0
 3060              		.loc 1 597 1 is_stmt 0 view .LVU716
 3061 0000 08B5     		push	{r3, lr}
 3062              	.LCFI41:
 3063              		.cfi_def_cfa_offset 8
 3064              		.cfi_offset 3, -8
 3065              		.cfi_offset 14, -4
 598:SCan/SC24/artifacts/MCB/c_source/Src/mcb.c ****     return ((double)value);
 3066              		.loc 1 598 5 is_stmt 1 view .LVU717
 3067              		.loc 1 598 13 is_stmt 0 view .LVU718
 3068 0002 FFF7FEFF 		bl	__aeabi_ui2d
 3069              	.LVL267:
 599:SCan/SC24/artifacts/MCB/c_source/Src/mcb.c **** }
 3070              		.loc 1 599 1 view .LVU719
 3071 0006 41EC100B 		vmov	d0, r0, r1
 3072 000a 08BD     		pop	{r3, pc}
ARM GAS  /tmp/ccQYM1B7.s 			page 67


 3073              		.cfi_endproc
 3074              	.LFE83:
 3076              		.section	.text.mcb_tlb_bat_signals_status_air_pos_stg_mech_state_signal_is_active_is_in_range,"ax"
 3077              		.align	1
 3078              		.global	mcb_tlb_bat_signals_status_air_pos_stg_mech_state_signal_is_active_is_in_range
 3079              		.syntax unified
 3080              		.thumb
 3081              		.thumb_func
 3082              		.fpu fpv4-sp-d16
 3084              	mcb_tlb_bat_signals_status_air_pos_stg_mech_state_signal_is_active_is_in_range:
 3085              	.LVL268:
 3086              	.LFB84:
 600:SCan/SC24/artifacts/MCB/c_source/Src/mcb.c **** 
 601:SCan/SC24/artifacts/MCB/c_source/Src/mcb.c **** bool mcb_tlb_bat_signals_status_air_pos_stg_mech_state_signal_is_active_is_in_range(uint8_t value)
 602:SCan/SC24/artifacts/MCB/c_source/Src/mcb.c **** {
 3087              		.loc 1 602 1 is_stmt 1 view -0
 3088              		.cfi_startproc
 3089              		@ args = 0, pretend = 0, frame = 0
 3090              		@ frame_needed = 0, uses_anonymous_args = 0
 3091              		@ link register save eliminated.
 603:SCan/SC24/artifacts/MCB/c_source/Src/mcb.c ****     return (value <= 1u);
 3092              		.loc 1 603 5 view .LVU721
 604:SCan/SC24/artifacts/MCB/c_source/Src/mcb.c **** }
 3093              		.loc 1 604 1 is_stmt 0 view .LVU722
 3094 0000 0128     		cmp	r0, #1
 3095 0002 8CBF     		ite	hi
 3096 0004 0020     		movhi	r0, #0
 3097              	.LVL269:
 3098              		.loc 1 604 1 view .LVU723
 3099 0006 0120     		movls	r0, #1
 3100 0008 7047     		bx	lr
 3101              		.cfi_endproc
 3102              	.LFE84:
 3104              		.section	.text.mcb_tlb_bat_signals_status_air_neg_stg_mech_state_signal_is_active_encode,"ax",%pro
 3105              		.align	1
 3106              		.global	mcb_tlb_bat_signals_status_air_neg_stg_mech_state_signal_is_active_encode
 3107              		.syntax unified
 3108              		.thumb
 3109              		.thumb_func
 3110              		.fpu fpv4-sp-d16
 3112              	mcb_tlb_bat_signals_status_air_neg_stg_mech_state_signal_is_active_encode:
 3113              	.LVL270:
 3114              	.LFB85:
 605:SCan/SC24/artifacts/MCB/c_source/Src/mcb.c **** 
 606:SCan/SC24/artifacts/MCB/c_source/Src/mcb.c **** uint8_t mcb_tlb_bat_signals_status_air_neg_stg_mech_state_signal_is_active_encode(double value)
 607:SCan/SC24/artifacts/MCB/c_source/Src/mcb.c **** {
 3115              		.loc 1 607 1 is_stmt 1 view -0
 3116              		.cfi_startproc
 3117              		@ args = 0, pretend = 0, frame = 0
 3118              		@ frame_needed = 0, uses_anonymous_args = 0
 3119              		.loc 1 607 1 is_stmt 0 view .LVU725
 3120 0000 08B5     		push	{r3, lr}
 3121              	.LCFI42:
 3122              		.cfi_def_cfa_offset 8
 3123              		.cfi_offset 3, -8
 3124              		.cfi_offset 14, -4
 3125 0002 51EC100B 		vmov	r0, r1, d0
ARM GAS  /tmp/ccQYM1B7.s 			page 68


 608:SCan/SC24/artifacts/MCB/c_source/Src/mcb.c ****     return (uint8_t)(value);
 3126              		.loc 1 608 5 is_stmt 1 view .LVU726
 3127              		.loc 1 608 12 is_stmt 0 view .LVU727
 3128 0006 FFF7FEFF 		bl	__aeabi_d2uiz
 3129              	.LVL271:
 609:SCan/SC24/artifacts/MCB/c_source/Src/mcb.c **** }
 3130              		.loc 1 609 1 view .LVU728
 3131 000a C0B2     		uxtb	r0, r0
 3132 000c 08BD     		pop	{r3, pc}
 3133              		.cfi_endproc
 3134              	.LFE85:
 3136              		.section	.text.mcb_tlb_bat_signals_status_air_neg_stg_mech_state_signal_is_active_decode,"ax",%pro
 3137              		.align	1
 3138              		.global	mcb_tlb_bat_signals_status_air_neg_stg_mech_state_signal_is_active_decode
 3139              		.syntax unified
 3140              		.thumb
 3141              		.thumb_func
 3142              		.fpu fpv4-sp-d16
 3144              	mcb_tlb_bat_signals_status_air_neg_stg_mech_state_signal_is_active_decode:
 3145              	.LVL272:
 3146              	.LFB86:
 610:SCan/SC24/artifacts/MCB/c_source/Src/mcb.c **** 
 611:SCan/SC24/artifacts/MCB/c_source/Src/mcb.c **** double mcb_tlb_bat_signals_status_air_neg_stg_mech_state_signal_is_active_decode(uint8_t value)
 612:SCan/SC24/artifacts/MCB/c_source/Src/mcb.c **** {
 3147              		.loc 1 612 1 is_stmt 1 view -0
 3148              		.cfi_startproc
 3149              		@ args = 0, pretend = 0, frame = 0
 3150              		@ frame_needed = 0, uses_anonymous_args = 0
 3151              		.loc 1 612 1 is_stmt 0 view .LVU730
 3152 0000 08B5     		push	{r3, lr}
 3153              	.LCFI43:
 3154              		.cfi_def_cfa_offset 8
 3155              		.cfi_offset 3, -8
 3156              		.cfi_offset 14, -4
 613:SCan/SC24/artifacts/MCB/c_source/Src/mcb.c ****     return ((double)value);
 3157              		.loc 1 613 5 is_stmt 1 view .LVU731
 3158              		.loc 1 613 13 is_stmt 0 view .LVU732
 3159 0002 FFF7FEFF 		bl	__aeabi_ui2d
 3160              	.LVL273:
 614:SCan/SC24/artifacts/MCB/c_source/Src/mcb.c **** }
 3161              		.loc 1 614 1 view .LVU733
 3162 0006 41EC100B 		vmov	d0, r0, r1
 3163 000a 08BD     		pop	{r3, pc}
 3164              		.cfi_endproc
 3165              	.LFE86:
 3167              		.section	.text.mcb_tlb_bat_signals_status_air_neg_stg_mech_state_signal_is_active_is_in_range,"ax"
 3168              		.align	1
 3169              		.global	mcb_tlb_bat_signals_status_air_neg_stg_mech_state_signal_is_active_is_in_range
 3170              		.syntax unified
 3171              		.thumb
 3172              		.thumb_func
 3173              		.fpu fpv4-sp-d16
 3175              	mcb_tlb_bat_signals_status_air_neg_stg_mech_state_signal_is_active_is_in_range:
 3176              	.LVL274:
 3177              	.LFB87:
 615:SCan/SC24/artifacts/MCB/c_source/Src/mcb.c **** 
 616:SCan/SC24/artifacts/MCB/c_source/Src/mcb.c **** bool mcb_tlb_bat_signals_status_air_neg_stg_mech_state_signal_is_active_is_in_range(uint8_t value)
ARM GAS  /tmp/ccQYM1B7.s 			page 69


 617:SCan/SC24/artifacts/MCB/c_source/Src/mcb.c **** {
 3178              		.loc 1 617 1 is_stmt 1 view -0
 3179              		.cfi_startproc
 3180              		@ args = 0, pretend = 0, frame = 0
 3181              		@ frame_needed = 0, uses_anonymous_args = 0
 3182              		@ link register save eliminated.
 618:SCan/SC24/artifacts/MCB/c_source/Src/mcb.c ****     return (value <= 1u);
 3183              		.loc 1 618 5 view .LVU735
 619:SCan/SC24/artifacts/MCB/c_source/Src/mcb.c **** }
 3184              		.loc 1 619 1 is_stmt 0 view .LVU736
 3185 0000 0128     		cmp	r0, #1
 3186 0002 8CBF     		ite	hi
 3187 0004 0020     		movhi	r0, #0
 3188              	.LVL275:
 3189              		.loc 1 619 1 view .LVU737
 3190 0006 0120     		movls	r0, #1
 3191 0008 7047     		bx	lr
 3192              		.cfi_endproc
 3193              	.LFE87:
 3195              		.section	.text.mcb_sb_front_analog_device_pack,"ax",%progbits
 3196              		.align	1
 3197              		.global	mcb_sb_front_analog_device_pack
 3198              		.syntax unified
 3199              		.thumb
 3200              		.thumb_func
 3201              		.fpu fpv4-sp-d16
 3203              	mcb_sb_front_analog_device_pack:
 3204              	.LVL276:
 3205              	.LFB88:
 620:SCan/SC24/artifacts/MCB/c_source/Src/mcb.c **** 
 621:SCan/SC24/artifacts/MCB/c_source/Src/mcb.c **** int mcb_sb_front_analog_device_pack(
 622:SCan/SC24/artifacts/MCB/c_source/Src/mcb.c ****     uint8_t *dst_p,
 623:SCan/SC24/artifacts/MCB/c_source/Src/mcb.c ****     const struct mcb_sb_front_analog_device_t *src_p,
 624:SCan/SC24/artifacts/MCB/c_source/Src/mcb.c ****     size_t size)
 625:SCan/SC24/artifacts/MCB/c_source/Src/mcb.c **** {
 3206              		.loc 1 625 1 is_stmt 1 view -0
 3207              		.cfi_startproc
 3208              		@ args = 0, pretend = 0, frame = 0
 3209              		@ frame_needed = 0, uses_anonymous_args = 0
 3210              		@ link register save eliminated.
 626:SCan/SC24/artifacts/MCB/c_source/Src/mcb.c ****     if (size < 8u) {
 3211              		.loc 1 626 5 view .LVU739
 3212              		.loc 1 626 8 is_stmt 0 view .LVU740
 3213 0000 072A     		cmp	r2, #7
 3214 0002 18D9     		bls	.L131
 627:SCan/SC24/artifacts/MCB/c_source/Src/mcb.c ****         return (-EINVAL);
 628:SCan/SC24/artifacts/MCB/c_source/Src/mcb.c ****     }
 629:SCan/SC24/artifacts/MCB/c_source/Src/mcb.c **** 
 630:SCan/SC24/artifacts/MCB/c_source/Src/mcb.c ****     memset(&dst_p[0], 0, 8);
 3215              		.loc 1 630 5 is_stmt 1 view .LVU741
 3216 0004 0023     		movs	r3, #0
 3217 0006 0360     		str	r3, [r0]	@ unaligned
 3218 0008 4360     		str	r3, [r0, #4]	@ unaligned
 631:SCan/SC24/artifacts/MCB/c_source/Src/mcb.c **** 
 632:SCan/SC24/artifacts/MCB/c_source/Src/mcb.c ****     dst_p[0] |= pack_left_shift_u16(src_p->apps_0_voltage, 0u, 0xffu);
 3219              		.loc 1 632 5 view .LVU742
 3220              	.LVL277:
ARM GAS  /tmp/ccQYM1B7.s 			page 70


 3221              	.LBB2126:
 3222              	.LBI2126:
  43:SCan/SC24/artifacts/MCB/c_source/Src/mcb.c ****     uint16_t value,
 3223              		.loc 1 43 23 view .LVU743
 3224              	.LBB2127:
  48:SCan/SC24/artifacts/MCB/c_source/Src/mcb.c **** }
 3225              		.loc 1 48 5 view .LVU744
  48:SCan/SC24/artifacts/MCB/c_source/Src/mcb.c **** }
 3226              		.loc 1 48 22 is_stmt 0 view .LVU745
 3227 000a 0B78     		ldrb	r3, [r1]	@ zero_extendqisi2
 3228              	.LVL278:
  48:SCan/SC24/artifacts/MCB/c_source/Src/mcb.c **** }
 3229              		.loc 1 48 22 view .LVU746
 3230              	.LBE2127:
 3231              	.LBE2126:
 3232              		.loc 1 632 14 view .LVU747
 3233 000c 0370     		strb	r3, [r0]
 633:SCan/SC24/artifacts/MCB/c_source/Src/mcb.c ****     dst_p[1] |= pack_right_shift_u16(src_p->apps_0_voltage, 8u, 0xffu);
 3234              		.loc 1 633 5 is_stmt 1 view .LVU748
 3235              		.loc 1 633 17 is_stmt 0 view .LVU749
 3236 000e 0B88     		ldrh	r3, [r1]
 3237              	.LVL279:
 3238              	.LBB2128:
 3239              	.LBI2128:
  75:SCan/SC24/artifacts/MCB/c_source/Src/mcb.c ****     uint16_t value,
 3240              		.loc 1 75 23 is_stmt 1 view .LVU750
 3241              	.LBB2129:
  80:SCan/SC24/artifacts/MCB/c_source/Src/mcb.c **** }
 3242              		.loc 1 80 5 view .LVU751
  80:SCan/SC24/artifacts/MCB/c_source/Src/mcb.c **** }
 3243              		.loc 1 80 22 is_stmt 0 view .LVU752
 3244 0010 1B0A     		lsrs	r3, r3, #8
 3245              	.LVL280:
  80:SCan/SC24/artifacts/MCB/c_source/Src/mcb.c **** }
 3246              		.loc 1 80 22 view .LVU753
 3247              	.LBE2129:
 3248              	.LBE2128:
 3249              		.loc 1 633 14 view .LVU754
 3250 0012 4370     		strb	r3, [r0, #1]
 634:SCan/SC24/artifacts/MCB/c_source/Src/mcb.c ****     dst_p[2] |= pack_left_shift_u16(src_p->apps_1_voltage, 0u, 0xffu);
 3251              		.loc 1 634 5 is_stmt 1 view .LVU755
 3252              	.LVL281:
 3253              	.LBB2130:
 3254              	.LBI2130:
  43:SCan/SC24/artifacts/MCB/c_source/Src/mcb.c ****     uint16_t value,
 3255              		.loc 1 43 23 view .LVU756
 3256              	.LBB2131:
  48:SCan/SC24/artifacts/MCB/c_source/Src/mcb.c **** }
 3257              		.loc 1 48 5 view .LVU757
  48:SCan/SC24/artifacts/MCB/c_source/Src/mcb.c **** }
 3258              		.loc 1 48 22 is_stmt 0 view .LVU758
 3259 0014 8B78     		ldrb	r3, [r1, #2]	@ zero_extendqisi2
 3260              	.LVL282:
  48:SCan/SC24/artifacts/MCB/c_source/Src/mcb.c **** }
 3261              		.loc 1 48 22 view .LVU759
 3262              	.LBE2131:
 3263              	.LBE2130:
ARM GAS  /tmp/ccQYM1B7.s 			page 71


 3264              		.loc 1 634 14 view .LVU760
 3265 0016 8370     		strb	r3, [r0, #2]
 635:SCan/SC24/artifacts/MCB/c_source/Src/mcb.c ****     dst_p[3] |= pack_right_shift_u16(src_p->apps_1_voltage, 8u, 0xffu);
 3266              		.loc 1 635 5 is_stmt 1 view .LVU761
 3267              		.loc 1 635 17 is_stmt 0 view .LVU762
 3268 0018 4B88     		ldrh	r3, [r1, #2]
 3269              	.LVL283:
 3270              	.LBB2132:
 3271              	.LBI2132:
  75:SCan/SC24/artifacts/MCB/c_source/Src/mcb.c ****     uint16_t value,
 3272              		.loc 1 75 23 is_stmt 1 view .LVU763
 3273              	.LBB2133:
  80:SCan/SC24/artifacts/MCB/c_source/Src/mcb.c **** }
 3274              		.loc 1 80 5 view .LVU764
  80:SCan/SC24/artifacts/MCB/c_source/Src/mcb.c **** }
 3275              		.loc 1 80 22 is_stmt 0 view .LVU765
 3276 001a 1B0A     		lsrs	r3, r3, #8
 3277              	.LVL284:
  80:SCan/SC24/artifacts/MCB/c_source/Src/mcb.c **** }
 3278              		.loc 1 80 22 view .LVU766
 3279              	.LBE2133:
 3280              	.LBE2132:
 3281              		.loc 1 635 14 view .LVU767
 3282 001c C370     		strb	r3, [r0, #3]
 636:SCan/SC24/artifacts/MCB/c_source/Src/mcb.c ****     dst_p[4] |= pack_left_shift_u16(src_p->steer_rme_voltage, 0u, 0xffu);
 3283              		.loc 1 636 5 is_stmt 1 view .LVU768
 3284              	.LVL285:
 3285              	.LBB2134:
 3286              	.LBI2134:
  43:SCan/SC24/artifacts/MCB/c_source/Src/mcb.c ****     uint16_t value,
 3287              		.loc 1 43 23 view .LVU769
 3288              	.LBB2135:
  48:SCan/SC24/artifacts/MCB/c_source/Src/mcb.c **** }
 3289              		.loc 1 48 5 view .LVU770
  48:SCan/SC24/artifacts/MCB/c_source/Src/mcb.c **** }
 3290              		.loc 1 48 22 is_stmt 0 view .LVU771
 3291 001e 0B79     		ldrb	r3, [r1, #4]	@ zero_extendqisi2
 3292              	.LVL286:
  48:SCan/SC24/artifacts/MCB/c_source/Src/mcb.c **** }
 3293              		.loc 1 48 22 view .LVU772
 3294              	.LBE2135:
 3295              	.LBE2134:
 3296              		.loc 1 636 14 view .LVU773
 3297 0020 0371     		strb	r3, [r0, #4]
 637:SCan/SC24/artifacts/MCB/c_source/Src/mcb.c ****     dst_p[5] |= pack_right_shift_u16(src_p->steer_rme_voltage, 8u, 0xffu);
 3298              		.loc 1 637 5 is_stmt 1 view .LVU774
 3299              		.loc 1 637 17 is_stmt 0 view .LVU775
 3300 0022 8B88     		ldrh	r3, [r1, #4]
 3301              	.LVL287:
 3302              	.LBB2136:
 3303              	.LBI2136:
  75:SCan/SC24/artifacts/MCB/c_source/Src/mcb.c ****     uint16_t value,
 3304              		.loc 1 75 23 is_stmt 1 view .LVU776
 3305              	.LBB2137:
  80:SCan/SC24/artifacts/MCB/c_source/Src/mcb.c **** }
 3306              		.loc 1 80 5 view .LVU777
  80:SCan/SC24/artifacts/MCB/c_source/Src/mcb.c **** }
ARM GAS  /tmp/ccQYM1B7.s 			page 72


 3307              		.loc 1 80 22 is_stmt 0 view .LVU778
 3308 0024 1B0A     		lsrs	r3, r3, #8
 3309              	.LVL288:
  80:SCan/SC24/artifacts/MCB/c_source/Src/mcb.c **** }
 3310              		.loc 1 80 22 view .LVU779
 3311              	.LBE2137:
 3312              	.LBE2136:
 3313              		.loc 1 637 14 view .LVU780
 3314 0026 4371     		strb	r3, [r0, #5]
 638:SCan/SC24/artifacts/MCB/c_source/Src/mcb.c ****     dst_p[6] |= pack_left_shift_u16(src_p->brake_press_front_voltage, 0u, 0xffu);
 3315              		.loc 1 638 5 is_stmt 1 view .LVU781
 3316              	.LVL289:
 3317              	.LBB2138:
 3318              	.LBI2138:
  43:SCan/SC24/artifacts/MCB/c_source/Src/mcb.c ****     uint16_t value,
 3319              		.loc 1 43 23 view .LVU782
 3320              	.LBB2139:
  48:SCan/SC24/artifacts/MCB/c_source/Src/mcb.c **** }
 3321              		.loc 1 48 5 view .LVU783
  48:SCan/SC24/artifacts/MCB/c_source/Src/mcb.c **** }
 3322              		.loc 1 48 22 is_stmt 0 view .LVU784
 3323 0028 8B79     		ldrb	r3, [r1, #6]	@ zero_extendqisi2
 3324              	.LVL290:
  48:SCan/SC24/artifacts/MCB/c_source/Src/mcb.c **** }
 3325              		.loc 1 48 22 view .LVU785
 3326              	.LBE2139:
 3327              	.LBE2138:
 3328              		.loc 1 638 14 view .LVU786
 3329 002a 8371     		strb	r3, [r0, #6]
 639:SCan/SC24/artifacts/MCB/c_source/Src/mcb.c ****     dst_p[7] |= pack_right_shift_u16(src_p->brake_press_front_voltage, 8u, 0xffu);
 3330              		.loc 1 639 5 is_stmt 1 view .LVU787
 3331              		.loc 1 639 17 is_stmt 0 view .LVU788
 3332 002c CB88     		ldrh	r3, [r1, #6]
 3333              	.LVL291:
 3334              	.LBB2140:
 3335              	.LBI2140:
  75:SCan/SC24/artifacts/MCB/c_source/Src/mcb.c ****     uint16_t value,
 3336              		.loc 1 75 23 is_stmt 1 view .LVU789
 3337              	.LBB2141:
  80:SCan/SC24/artifacts/MCB/c_source/Src/mcb.c **** }
 3338              		.loc 1 80 5 view .LVU790
  80:SCan/SC24/artifacts/MCB/c_source/Src/mcb.c **** }
 3339              		.loc 1 80 22 is_stmt 0 view .LVU791
 3340 002e 1B0A     		lsrs	r3, r3, #8
 3341              	.LVL292:
  80:SCan/SC24/artifacts/MCB/c_source/Src/mcb.c **** }
 3342              		.loc 1 80 22 view .LVU792
 3343              	.LBE2141:
 3344              	.LBE2140:
 3345              		.loc 1 639 14 view .LVU793
 3346 0030 C371     		strb	r3, [r0, #7]
 640:SCan/SC24/artifacts/MCB/c_source/Src/mcb.c **** 
 641:SCan/SC24/artifacts/MCB/c_source/Src/mcb.c ****     return (8);
 3347              		.loc 1 641 5 is_stmt 1 view .LVU794
 3348              		.loc 1 641 12 is_stmt 0 view .LVU795
 3349 0032 0820     		movs	r0, #8
 3350              	.LVL293:
ARM GAS  /tmp/ccQYM1B7.s 			page 73


 3351              		.loc 1 641 12 view .LVU796
 3352 0034 7047     		bx	lr
 3353              	.LVL294:
 3354              	.L131:
 627:SCan/SC24/artifacts/MCB/c_source/Src/mcb.c ****     }
 3355              		.loc 1 627 16 view .LVU797
 3356 0036 6FF01500 		mvn	r0, #21
 3357              	.LVL295:
 642:SCan/SC24/artifacts/MCB/c_source/Src/mcb.c **** }
 3358              		.loc 1 642 1 view .LVU798
 3359 003a 7047     		bx	lr
 3360              		.cfi_endproc
 3361              	.LFE88:
 3363              		.section	.text.mcb_sb_front_analog_device_unpack,"ax",%progbits
 3364              		.align	1
 3365              		.global	mcb_sb_front_analog_device_unpack
 3366              		.syntax unified
 3367              		.thumb
 3368              		.thumb_func
 3369              		.fpu fpv4-sp-d16
 3371              	mcb_sb_front_analog_device_unpack:
 3372              	.LVL296:
 3373              	.LFB89:
 643:SCan/SC24/artifacts/MCB/c_source/Src/mcb.c **** 
 644:SCan/SC24/artifacts/MCB/c_source/Src/mcb.c **** int mcb_sb_front_analog_device_unpack(
 645:SCan/SC24/artifacts/MCB/c_source/Src/mcb.c ****     struct mcb_sb_front_analog_device_t *dst_p,
 646:SCan/SC24/artifacts/MCB/c_source/Src/mcb.c ****     const uint8_t *src_p,
 647:SCan/SC24/artifacts/MCB/c_source/Src/mcb.c ****     size_t size)
 648:SCan/SC24/artifacts/MCB/c_source/Src/mcb.c **** {
 3374              		.loc 1 648 1 is_stmt 1 view -0
 3375              		.cfi_startproc
 3376              		@ args = 0, pretend = 0, frame = 0
 3377              		@ frame_needed = 0, uses_anonymous_args = 0
 3378              		@ link register save eliminated.
 649:SCan/SC24/artifacts/MCB/c_source/Src/mcb.c ****     if (size < 8u) {
 3379              		.loc 1 649 5 view .LVU800
 3380              		.loc 1 649 8 is_stmt 0 view .LVU801
 3381 0000 072A     		cmp	r2, #7
 3382 0002 19D9     		bls	.L134
 650:SCan/SC24/artifacts/MCB/c_source/Src/mcb.c ****         return (-EINVAL);
 651:SCan/SC24/artifacts/MCB/c_source/Src/mcb.c ****     }
 652:SCan/SC24/artifacts/MCB/c_source/Src/mcb.c **** 
 653:SCan/SC24/artifacts/MCB/c_source/Src/mcb.c ****     dst_p->apps_0_voltage = unpack_right_shift_u16(src_p[0], 0u, 0xffu);
 3383              		.loc 1 653 5 is_stmt 1 view .LVU802
 3384              	.LVL297:
 3385              	.LBB2142:
 3386              	.LBI2142:
 139:SCan/SC24/artifacts/MCB/c_source/Src/mcb.c ****     uint8_t value,
 3387              		.loc 1 139 24 view .LVU803
 3388              	.LBB2143:
 144:SCan/SC24/artifacts/MCB/c_source/Src/mcb.c **** }
 3389              		.loc 1 144 5 view .LVU804
 144:SCan/SC24/artifacts/MCB/c_source/Src/mcb.c **** }
 3390              		.loc 1 144 12 is_stmt 0 view .LVU805
 3391 0004 0B78     		ldrb	r3, [r1]	@ zero_extendqisi2
 3392              	.LVL298:
 144:SCan/SC24/artifacts/MCB/c_source/Src/mcb.c **** }
ARM GAS  /tmp/ccQYM1B7.s 			page 74


 3393              		.loc 1 144 12 view .LVU806
 3394              	.LBE2143:
 3395              	.LBE2142:
 3396              		.loc 1 653 27 view .LVU807
 3397 0006 0380     		strh	r3, [r0]	@ movhi
 654:SCan/SC24/artifacts/MCB/c_source/Src/mcb.c ****     dst_p->apps_0_voltage |= unpack_left_shift_u16(src_p[1], 8u, 0xffu);
 3398              		.loc 1 654 5 is_stmt 1 view .LVU808
 3399              		.loc 1 654 30 is_stmt 0 view .LVU809
 3400 0008 4A78     		ldrb	r2, [r1, #1]	@ zero_extendqisi2
 3401              	.LVL299:
 3402              	.LBB2144:
 3403              	.LBI2144:
 107:SCan/SC24/artifacts/MCB/c_source/Src/mcb.c ****     uint8_t value,
 3404              		.loc 1 107 24 is_stmt 1 view .LVU810
 3405              	.LBB2145:
 112:SCan/SC24/artifacts/MCB/c_source/Src/mcb.c **** }
 3406              		.loc 1 112 5 view .LVU811
 112:SCan/SC24/artifacts/MCB/c_source/Src/mcb.c **** }
 3407              		.loc 1 112 5 is_stmt 0 view .LVU812
 3408              	.LBE2145:
 3409              	.LBE2144:
 3410              		.loc 1 654 27 view .LVU813
 3411 000a 43EA0223 		orr	r3, r3, r2, lsl #8
 3412 000e 0380     		strh	r3, [r0]	@ movhi
 655:SCan/SC24/artifacts/MCB/c_source/Src/mcb.c ****     dst_p->apps_1_voltage = unpack_right_shift_u16(src_p[2], 0u, 0xffu);
 3413              		.loc 1 655 5 is_stmt 1 view .LVU814
 3414              	.LVL300:
 3415              	.LBB2146:
 3416              	.LBI2146:
 139:SCan/SC24/artifacts/MCB/c_source/Src/mcb.c ****     uint8_t value,
 3417              		.loc 1 139 24 view .LVU815
 3418              	.LBB2147:
 144:SCan/SC24/artifacts/MCB/c_source/Src/mcb.c **** }
 3419              		.loc 1 144 5 view .LVU816
 144:SCan/SC24/artifacts/MCB/c_source/Src/mcb.c **** }
 3420              		.loc 1 144 12 is_stmt 0 view .LVU817
 3421 0010 8B78     		ldrb	r3, [r1, #2]	@ zero_extendqisi2
 3422              	.LVL301:
 144:SCan/SC24/artifacts/MCB/c_source/Src/mcb.c **** }
 3423              		.loc 1 144 12 view .LVU818
 3424              	.LBE2147:
 3425              	.LBE2146:
 3426              		.loc 1 655 27 view .LVU819
 3427 0012 4380     		strh	r3, [r0, #2]	@ movhi
 656:SCan/SC24/artifacts/MCB/c_source/Src/mcb.c ****     dst_p->apps_1_voltage |= unpack_left_shift_u16(src_p[3], 8u, 0xffu);
 3428              		.loc 1 656 5 is_stmt 1 view .LVU820
 3429              		.loc 1 656 30 is_stmt 0 view .LVU821
 3430 0014 CA78     		ldrb	r2, [r1, #3]	@ zero_extendqisi2
 3431              	.LVL302:
 3432              	.LBB2148:
 3433              	.LBI2148:
 107:SCan/SC24/artifacts/MCB/c_source/Src/mcb.c ****     uint8_t value,
 3434              		.loc 1 107 24 is_stmt 1 view .LVU822
 3435              	.LBB2149:
 112:SCan/SC24/artifacts/MCB/c_source/Src/mcb.c **** }
 3436              		.loc 1 112 5 view .LVU823
 112:SCan/SC24/artifacts/MCB/c_source/Src/mcb.c **** }
ARM GAS  /tmp/ccQYM1B7.s 			page 75


 3437              		.loc 1 112 5 is_stmt 0 view .LVU824
 3438              	.LBE2149:
 3439              	.LBE2148:
 3440              		.loc 1 656 27 view .LVU825
 3441 0016 43EA0223 		orr	r3, r3, r2, lsl #8
 3442 001a 4380     		strh	r3, [r0, #2]	@ movhi
 657:SCan/SC24/artifacts/MCB/c_source/Src/mcb.c ****     dst_p->steer_rme_voltage = unpack_right_shift_u16(src_p[4], 0u, 0xffu);
 3443              		.loc 1 657 5 is_stmt 1 view .LVU826
 3444              	.LVL303:
 3445              	.LBB2150:
 3446              	.LBI2150:
 139:SCan/SC24/artifacts/MCB/c_source/Src/mcb.c ****     uint8_t value,
 3447              		.loc 1 139 24 view .LVU827
 3448              	.LBB2151:
 144:SCan/SC24/artifacts/MCB/c_source/Src/mcb.c **** }
 3449              		.loc 1 144 5 view .LVU828
 144:SCan/SC24/artifacts/MCB/c_source/Src/mcb.c **** }
 3450              		.loc 1 144 12 is_stmt 0 view .LVU829
 3451 001c 0B79     		ldrb	r3, [r1, #4]	@ zero_extendqisi2
 3452              	.LVL304:
 144:SCan/SC24/artifacts/MCB/c_source/Src/mcb.c **** }
 3453              		.loc 1 144 12 view .LVU830
 3454              	.LBE2151:
 3455              	.LBE2150:
 3456              		.loc 1 657 30 view .LVU831
 3457 001e 8380     		strh	r3, [r0, #4]	@ movhi
 658:SCan/SC24/artifacts/MCB/c_source/Src/mcb.c ****     dst_p->steer_rme_voltage |= unpack_left_shift_u16(src_p[5], 8u, 0xffu);
 3458              		.loc 1 658 5 is_stmt 1 view .LVU832
 3459              		.loc 1 658 33 is_stmt 0 view .LVU833
 3460 0020 4A79     		ldrb	r2, [r1, #5]	@ zero_extendqisi2
 3461              	.LVL305:
 3462              	.LBB2152:
 3463              	.LBI2152:
 107:SCan/SC24/artifacts/MCB/c_source/Src/mcb.c ****     uint8_t value,
 3464              		.loc 1 107 24 is_stmt 1 view .LVU834
 3465              	.LBB2153:
 112:SCan/SC24/artifacts/MCB/c_source/Src/mcb.c **** }
 3466              		.loc 1 112 5 view .LVU835
 112:SCan/SC24/artifacts/MCB/c_source/Src/mcb.c **** }
 3467              		.loc 1 112 5 is_stmt 0 view .LVU836
 3468              	.LBE2153:
 3469              	.LBE2152:
 3470              		.loc 1 658 30 view .LVU837
 3471 0022 43EA0223 		orr	r3, r3, r2, lsl #8
 3472 0026 8380     		strh	r3, [r0, #4]	@ movhi
 659:SCan/SC24/artifacts/MCB/c_source/Src/mcb.c ****     dst_p->brake_press_front_voltage = unpack_right_shift_u16(src_p[6], 0u, 0xffu);
 3473              		.loc 1 659 5 is_stmt 1 view .LVU838
 3474              	.LVL306:
 3475              	.LBB2154:
 3476              	.LBI2154:
 139:SCan/SC24/artifacts/MCB/c_source/Src/mcb.c ****     uint8_t value,
 3477              		.loc 1 139 24 view .LVU839
 3478              	.LBB2155:
 144:SCan/SC24/artifacts/MCB/c_source/Src/mcb.c **** }
 3479              		.loc 1 144 5 view .LVU840
 144:SCan/SC24/artifacts/MCB/c_source/Src/mcb.c **** }
 3480              		.loc 1 144 12 is_stmt 0 view .LVU841
ARM GAS  /tmp/ccQYM1B7.s 			page 76


 3481 0028 8B79     		ldrb	r3, [r1, #6]	@ zero_extendqisi2
 3482              	.LVL307:
 144:SCan/SC24/artifacts/MCB/c_source/Src/mcb.c **** }
 3483              		.loc 1 144 12 view .LVU842
 3484              	.LBE2155:
 3485              	.LBE2154:
 3486              		.loc 1 659 38 view .LVU843
 3487 002a C380     		strh	r3, [r0, #6]	@ movhi
 660:SCan/SC24/artifacts/MCB/c_source/Src/mcb.c ****     dst_p->brake_press_front_voltage |= unpack_left_shift_u16(src_p[7], 8u, 0xffu);
 3488              		.loc 1 660 5 is_stmt 1 view .LVU844
 3489              		.loc 1 660 41 is_stmt 0 view .LVU845
 3490 002c CA79     		ldrb	r2, [r1, #7]	@ zero_extendqisi2
 3491              	.LVL308:
 3492              	.LBB2156:
 3493              	.LBI2156:
 107:SCan/SC24/artifacts/MCB/c_source/Src/mcb.c ****     uint8_t value,
 3494              		.loc 1 107 24 is_stmt 1 view .LVU846
 3495              	.LBB2157:
 112:SCan/SC24/artifacts/MCB/c_source/Src/mcb.c **** }
 3496              		.loc 1 112 5 view .LVU847
 112:SCan/SC24/artifacts/MCB/c_source/Src/mcb.c **** }
 3497              		.loc 1 112 5 is_stmt 0 view .LVU848
 3498              	.LBE2157:
 3499              	.LBE2156:
 3500              		.loc 1 660 38 view .LVU849
 3501 002e 43EA0223 		orr	r3, r3, r2, lsl #8
 3502 0032 C380     		strh	r3, [r0, #6]	@ movhi
 661:SCan/SC24/artifacts/MCB/c_source/Src/mcb.c **** 
 662:SCan/SC24/artifacts/MCB/c_source/Src/mcb.c ****     return (0);
 3503              		.loc 1 662 5 is_stmt 1 view .LVU850
 3504              		.loc 1 662 12 is_stmt 0 view .LVU851
 3505 0034 0020     		movs	r0, #0
 3506              	.LVL309:
 3507              		.loc 1 662 12 view .LVU852
 3508 0036 7047     		bx	lr
 3509              	.LVL310:
 3510              	.L134:
 650:SCan/SC24/artifacts/MCB/c_source/Src/mcb.c ****     }
 3511              		.loc 1 650 16 view .LVU853
 3512 0038 6FF01500 		mvn	r0, #21
 3513              	.LVL311:
 663:SCan/SC24/artifacts/MCB/c_source/Src/mcb.c **** }
 3514              		.loc 1 663 1 view .LVU854
 3515 003c 7047     		bx	lr
 3516              		.cfi_endproc
 3517              	.LFE89:
 3519              		.section	.text.mcb_sb_front_analog_device_init,"ax",%progbits
 3520              		.align	1
 3521              		.global	mcb_sb_front_analog_device_init
 3522              		.syntax unified
 3523              		.thumb
 3524              		.thumb_func
 3525              		.fpu fpv4-sp-d16
 3527              	mcb_sb_front_analog_device_init:
 3528              	.LVL312:
 3529              	.LFB90:
 664:SCan/SC24/artifacts/MCB/c_source/Src/mcb.c **** 
ARM GAS  /tmp/ccQYM1B7.s 			page 77


 665:SCan/SC24/artifacts/MCB/c_source/Src/mcb.c **** int mcb_sb_front_analog_device_init(struct mcb_sb_front_analog_device_t *msg_p)
 666:SCan/SC24/artifacts/MCB/c_source/Src/mcb.c **** {
 3530              		.loc 1 666 1 is_stmt 1 view -0
 3531              		.cfi_startproc
 3532              		@ args = 0, pretend = 0, frame = 0
 3533              		@ frame_needed = 0, uses_anonymous_args = 0
 3534              		@ link register save eliminated.
 667:SCan/SC24/artifacts/MCB/c_source/Src/mcb.c ****     if (msg_p == NULL) return -1;
 3535              		.loc 1 667 5 view .LVU856
 3536              		.loc 1 667 8 is_stmt 0 view .LVU857
 3537 0000 0346     		mov	r3, r0
 3538 0002 18B1     		cbz	r0, .L137
 668:SCan/SC24/artifacts/MCB/c_source/Src/mcb.c **** 
 669:SCan/SC24/artifacts/MCB/c_source/Src/mcb.c ****     memset(msg_p, 0, sizeof(struct mcb_sb_front_analog_device_t));
 3539              		.loc 1 669 5 is_stmt 1 view .LVU858
 3540 0004 0020     		movs	r0, #0
 3541              	.LVL313:
 3542              		.loc 1 669 5 is_stmt 0 view .LVU859
 3543 0006 1860     		str	r0, [r3]	@ unaligned
 3544 0008 5860     		str	r0, [r3, #4]	@ unaligned
 670:SCan/SC24/artifacts/MCB/c_source/Src/mcb.c **** 
 671:SCan/SC24/artifacts/MCB/c_source/Src/mcb.c ****     return 0;
 3545              		.loc 1 671 5 is_stmt 1 view .LVU860
 3546              		.loc 1 671 12 is_stmt 0 view .LVU861
 3547 000a 7047     		bx	lr
 3548              	.LVL314:
 3549              	.L137:
 667:SCan/SC24/artifacts/MCB/c_source/Src/mcb.c **** 
 3550              		.loc 1 667 31 view .LVU862
 3551 000c 4FF0FF30 		mov	r0, #-1
 3552              	.LVL315:
 672:SCan/SC24/artifacts/MCB/c_source/Src/mcb.c **** }
 3553              		.loc 1 672 1 view .LVU863
 3554 0010 7047     		bx	lr
 3555              		.cfi_endproc
 3556              	.LFE90:
 3558              		.section	.text.mcb_sb_front_analog_device_apps_0_voltage_encode,"ax",%progbits
 3559              		.align	1
 3560              		.global	mcb_sb_front_analog_device_apps_0_voltage_encode
 3561              		.syntax unified
 3562              		.thumb
 3563              		.thumb_func
 3564              		.fpu fpv4-sp-d16
 3566              	mcb_sb_front_analog_device_apps_0_voltage_encode:
 3567              	.LVL316:
 3568              	.LFB91:
 673:SCan/SC24/artifacts/MCB/c_source/Src/mcb.c **** 
 674:SCan/SC24/artifacts/MCB/c_source/Src/mcb.c **** uint16_t mcb_sb_front_analog_device_apps_0_voltage_encode(double value)
 675:SCan/SC24/artifacts/MCB/c_source/Src/mcb.c **** {
 3569              		.loc 1 675 1 is_stmt 1 view -0
 3570              		.cfi_startproc
 3571              		@ args = 0, pretend = 0, frame = 0
 3572              		@ frame_needed = 0, uses_anonymous_args = 0
 3573              		.loc 1 675 1 is_stmt 0 view .LVU865
 3574 0000 08B5     		push	{r3, lr}
 3575              	.LCFI44:
 3576              		.cfi_def_cfa_offset 8
ARM GAS  /tmp/ccQYM1B7.s 			page 78


 3577              		.cfi_offset 3, -8
 3578              		.cfi_offset 14, -4
 3579 0002 51EC100B 		vmov	r0, r1, d0
 676:SCan/SC24/artifacts/MCB/c_source/Src/mcb.c ****     return (uint16_t)(value);
 3580              		.loc 1 676 5 is_stmt 1 view .LVU866
 3581              		.loc 1 676 12 is_stmt 0 view .LVU867
 3582 0006 FFF7FEFF 		bl	__aeabi_d2uiz
 3583              	.LVL317:
 677:SCan/SC24/artifacts/MCB/c_source/Src/mcb.c **** }
 3584              		.loc 1 677 1 view .LVU868
 3585 000a 80B2     		uxth	r0, r0
 3586 000c 08BD     		pop	{r3, pc}
 3587              		.cfi_endproc
 3588              	.LFE91:
 3590              		.section	.text.mcb_sb_front_analog_device_apps_0_voltage_decode,"ax",%progbits
 3591              		.align	1
 3592              		.global	mcb_sb_front_analog_device_apps_0_voltage_decode
 3593              		.syntax unified
 3594              		.thumb
 3595              		.thumb_func
 3596              		.fpu fpv4-sp-d16
 3598              	mcb_sb_front_analog_device_apps_0_voltage_decode:
 3599              	.LVL318:
 3600              	.LFB92:
 678:SCan/SC24/artifacts/MCB/c_source/Src/mcb.c **** 
 679:SCan/SC24/artifacts/MCB/c_source/Src/mcb.c **** double mcb_sb_front_analog_device_apps_0_voltage_decode(uint16_t value)
 680:SCan/SC24/artifacts/MCB/c_source/Src/mcb.c **** {
 3601              		.loc 1 680 1 is_stmt 1 view -0
 3602              		.cfi_startproc
 3603              		@ args = 0, pretend = 0, frame = 0
 3604              		@ frame_needed = 0, uses_anonymous_args = 0
 3605              		.loc 1 680 1 is_stmt 0 view .LVU870
 3606 0000 08B5     		push	{r3, lr}
 3607              	.LCFI45:
 3608              		.cfi_def_cfa_offset 8
 3609              		.cfi_offset 3, -8
 3610              		.cfi_offset 14, -4
 681:SCan/SC24/artifacts/MCB/c_source/Src/mcb.c ****     return ((double)value);
 3611              		.loc 1 681 5 is_stmt 1 view .LVU871
 3612              		.loc 1 681 13 is_stmt 0 view .LVU872
 3613 0002 FFF7FEFF 		bl	__aeabi_ui2d
 3614              	.LVL319:
 682:SCan/SC24/artifacts/MCB/c_source/Src/mcb.c **** }
 3615              		.loc 1 682 1 view .LVU873
 3616 0006 41EC100B 		vmov	d0, r0, r1
 3617 000a 08BD     		pop	{r3, pc}
 3618              		.cfi_endproc
 3619              	.LFE92:
 3621              		.section	.text.mcb_sb_front_analog_device_apps_0_voltage_is_in_range,"ax",%progbits
 3622              		.align	1
 3623              		.global	mcb_sb_front_analog_device_apps_0_voltage_is_in_range
 3624              		.syntax unified
 3625              		.thumb
 3626              		.thumb_func
 3627              		.fpu fpv4-sp-d16
 3629              	mcb_sb_front_analog_device_apps_0_voltage_is_in_range:
 3630              	.LVL320:
ARM GAS  /tmp/ccQYM1B7.s 			page 79


 3631              	.LFB93:
 683:SCan/SC24/artifacts/MCB/c_source/Src/mcb.c **** 
 684:SCan/SC24/artifacts/MCB/c_source/Src/mcb.c **** bool mcb_sb_front_analog_device_apps_0_voltage_is_in_range(uint16_t value)
 685:SCan/SC24/artifacts/MCB/c_source/Src/mcb.c **** {
 3632              		.loc 1 685 1 is_stmt 1 view -0
 3633              		.cfi_startproc
 3634              		@ args = 0, pretend = 0, frame = 0
 3635              		@ frame_needed = 0, uses_anonymous_args = 0
 3636              		@ link register save eliminated.
 686:SCan/SC24/artifacts/MCB/c_source/Src/mcb.c ****     (void)value;
 3637              		.loc 1 686 5 view .LVU875
 687:SCan/SC24/artifacts/MCB/c_source/Src/mcb.c **** 
 688:SCan/SC24/artifacts/MCB/c_source/Src/mcb.c ****     return (true);
 3638              		.loc 1 688 5 view .LVU876
 689:SCan/SC24/artifacts/MCB/c_source/Src/mcb.c **** }
 3639              		.loc 1 689 1 is_stmt 0 view .LVU877
 3640 0000 0120     		movs	r0, #1
 3641              	.LVL321:
 3642              		.loc 1 689 1 view .LVU878
 3643 0002 7047     		bx	lr
 3644              		.cfi_endproc
 3645              	.LFE93:
 3647              		.section	.text.mcb_sb_front_analog_device_apps_1_voltage_encode,"ax",%progbits
 3648              		.align	1
 3649              		.global	mcb_sb_front_analog_device_apps_1_voltage_encode
 3650              		.syntax unified
 3651              		.thumb
 3652              		.thumb_func
 3653              		.fpu fpv4-sp-d16
 3655              	mcb_sb_front_analog_device_apps_1_voltage_encode:
 3656              	.LVL322:
 3657              	.LFB94:
 690:SCan/SC24/artifacts/MCB/c_source/Src/mcb.c **** 
 691:SCan/SC24/artifacts/MCB/c_source/Src/mcb.c **** uint16_t mcb_sb_front_analog_device_apps_1_voltage_encode(double value)
 692:SCan/SC24/artifacts/MCB/c_source/Src/mcb.c **** {
 3658              		.loc 1 692 1 is_stmt 1 view -0
 3659              		.cfi_startproc
 3660              		@ args = 0, pretend = 0, frame = 0
 3661              		@ frame_needed = 0, uses_anonymous_args = 0
 3662              		.loc 1 692 1 is_stmt 0 view .LVU880
 3663 0000 08B5     		push	{r3, lr}
 3664              	.LCFI46:
 3665              		.cfi_def_cfa_offset 8
 3666              		.cfi_offset 3, -8
 3667              		.cfi_offset 14, -4
 3668 0002 51EC100B 		vmov	r0, r1, d0
 693:SCan/SC24/artifacts/MCB/c_source/Src/mcb.c ****     return (uint16_t)(value);
 3669              		.loc 1 693 5 is_stmt 1 view .LVU881
 3670              		.loc 1 693 12 is_stmt 0 view .LVU882
 3671 0006 FFF7FEFF 		bl	__aeabi_d2uiz
 3672              	.LVL323:
 694:SCan/SC24/artifacts/MCB/c_source/Src/mcb.c **** }
 3673              		.loc 1 694 1 view .LVU883
 3674 000a 80B2     		uxth	r0, r0
 3675 000c 08BD     		pop	{r3, pc}
 3676              		.cfi_endproc
 3677              	.LFE94:
ARM GAS  /tmp/ccQYM1B7.s 			page 80


 3679              		.section	.text.mcb_sb_front_analog_device_apps_1_voltage_decode,"ax",%progbits
 3680              		.align	1
 3681              		.global	mcb_sb_front_analog_device_apps_1_voltage_decode
 3682              		.syntax unified
 3683              		.thumb
 3684              		.thumb_func
 3685              		.fpu fpv4-sp-d16
 3687              	mcb_sb_front_analog_device_apps_1_voltage_decode:
 3688              	.LVL324:
 3689              	.LFB95:
 695:SCan/SC24/artifacts/MCB/c_source/Src/mcb.c **** 
 696:SCan/SC24/artifacts/MCB/c_source/Src/mcb.c **** double mcb_sb_front_analog_device_apps_1_voltage_decode(uint16_t value)
 697:SCan/SC24/artifacts/MCB/c_source/Src/mcb.c **** {
 3690              		.loc 1 697 1 is_stmt 1 view -0
 3691              		.cfi_startproc
 3692              		@ args = 0, pretend = 0, frame = 0
 3693              		@ frame_needed = 0, uses_anonymous_args = 0
 3694              		.loc 1 697 1 is_stmt 0 view .LVU885
 3695 0000 08B5     		push	{r3, lr}
 3696              	.LCFI47:
 3697              		.cfi_def_cfa_offset 8
 3698              		.cfi_offset 3, -8
 3699              		.cfi_offset 14, -4
 698:SCan/SC24/artifacts/MCB/c_source/Src/mcb.c ****     return ((double)value);
 3700              		.loc 1 698 5 is_stmt 1 view .LVU886
 3701              		.loc 1 698 13 is_stmt 0 view .LVU887
 3702 0002 FFF7FEFF 		bl	__aeabi_ui2d
 3703              	.LVL325:
 699:SCan/SC24/artifacts/MCB/c_source/Src/mcb.c **** }
 3704              		.loc 1 699 1 view .LVU888
 3705 0006 41EC100B 		vmov	d0, r0, r1
 3706 000a 08BD     		pop	{r3, pc}
 3707              		.cfi_endproc
 3708              	.LFE95:
 3710              		.section	.text.mcb_sb_front_analog_device_apps_1_voltage_is_in_range,"ax",%progbits
 3711              		.align	1
 3712              		.global	mcb_sb_front_analog_device_apps_1_voltage_is_in_range
 3713              		.syntax unified
 3714              		.thumb
 3715              		.thumb_func
 3716              		.fpu fpv4-sp-d16
 3718              	mcb_sb_front_analog_device_apps_1_voltage_is_in_range:
 3719              	.LVL326:
 3720              	.LFB96:
 700:SCan/SC24/artifacts/MCB/c_source/Src/mcb.c **** 
 701:SCan/SC24/artifacts/MCB/c_source/Src/mcb.c **** bool mcb_sb_front_analog_device_apps_1_voltage_is_in_range(uint16_t value)
 702:SCan/SC24/artifacts/MCB/c_source/Src/mcb.c **** {
 3721              		.loc 1 702 1 is_stmt 1 view -0
 3722              		.cfi_startproc
 3723              		@ args = 0, pretend = 0, frame = 0
 3724              		@ frame_needed = 0, uses_anonymous_args = 0
 3725              		@ link register save eliminated.
 703:SCan/SC24/artifacts/MCB/c_source/Src/mcb.c ****     (void)value;
 3726              		.loc 1 703 5 view .LVU890
 704:SCan/SC24/artifacts/MCB/c_source/Src/mcb.c **** 
 705:SCan/SC24/artifacts/MCB/c_source/Src/mcb.c ****     return (true);
 3727              		.loc 1 705 5 view .LVU891
ARM GAS  /tmp/ccQYM1B7.s 			page 81


 706:SCan/SC24/artifacts/MCB/c_source/Src/mcb.c **** }
 3728              		.loc 1 706 1 is_stmt 0 view .LVU892
 3729 0000 0120     		movs	r0, #1
 3730              	.LVL327:
 3731              		.loc 1 706 1 view .LVU893
 3732 0002 7047     		bx	lr
 3733              		.cfi_endproc
 3734              	.LFE96:
 3736              		.section	.text.mcb_sb_front_analog_device_steer_rme_voltage_encode,"ax",%progbits
 3737              		.align	1
 3738              		.global	mcb_sb_front_analog_device_steer_rme_voltage_encode
 3739              		.syntax unified
 3740              		.thumb
 3741              		.thumb_func
 3742              		.fpu fpv4-sp-d16
 3744              	mcb_sb_front_analog_device_steer_rme_voltage_encode:
 3745              	.LVL328:
 3746              	.LFB97:
 707:SCan/SC24/artifacts/MCB/c_source/Src/mcb.c **** 
 708:SCan/SC24/artifacts/MCB/c_source/Src/mcb.c **** uint16_t mcb_sb_front_analog_device_steer_rme_voltage_encode(double value)
 709:SCan/SC24/artifacts/MCB/c_source/Src/mcb.c **** {
 3747              		.loc 1 709 1 is_stmt 1 view -0
 3748              		.cfi_startproc
 3749              		@ args = 0, pretend = 0, frame = 0
 3750              		@ frame_needed = 0, uses_anonymous_args = 0
 3751              		.loc 1 709 1 is_stmt 0 view .LVU895
 3752 0000 08B5     		push	{r3, lr}
 3753              	.LCFI48:
 3754              		.cfi_def_cfa_offset 8
 3755              		.cfi_offset 3, -8
 3756              		.cfi_offset 14, -4
 3757 0002 51EC100B 		vmov	r0, r1, d0
 710:SCan/SC24/artifacts/MCB/c_source/Src/mcb.c ****     return (uint16_t)(value);
 3758              		.loc 1 710 5 is_stmt 1 view .LVU896
 3759              		.loc 1 710 12 is_stmt 0 view .LVU897
 3760 0006 FFF7FEFF 		bl	__aeabi_d2uiz
 3761              	.LVL329:
 711:SCan/SC24/artifacts/MCB/c_source/Src/mcb.c **** }
 3762              		.loc 1 711 1 view .LVU898
 3763 000a 80B2     		uxth	r0, r0
 3764 000c 08BD     		pop	{r3, pc}
 3765              		.cfi_endproc
 3766              	.LFE97:
 3768              		.section	.text.mcb_sb_front_analog_device_steer_rme_voltage_decode,"ax",%progbits
 3769              		.align	1
 3770              		.global	mcb_sb_front_analog_device_steer_rme_voltage_decode
 3771              		.syntax unified
 3772              		.thumb
 3773              		.thumb_func
 3774              		.fpu fpv4-sp-d16
 3776              	mcb_sb_front_analog_device_steer_rme_voltage_decode:
 3777              	.LVL330:
 3778              	.LFB98:
 712:SCan/SC24/artifacts/MCB/c_source/Src/mcb.c **** 
 713:SCan/SC24/artifacts/MCB/c_source/Src/mcb.c **** double mcb_sb_front_analog_device_steer_rme_voltage_decode(uint16_t value)
 714:SCan/SC24/artifacts/MCB/c_source/Src/mcb.c **** {
 3779              		.loc 1 714 1 is_stmt 1 view -0
ARM GAS  /tmp/ccQYM1B7.s 			page 82


 3780              		.cfi_startproc
 3781              		@ args = 0, pretend = 0, frame = 0
 3782              		@ frame_needed = 0, uses_anonymous_args = 0
 3783              		.loc 1 714 1 is_stmt 0 view .LVU900
 3784 0000 08B5     		push	{r3, lr}
 3785              	.LCFI49:
 3786              		.cfi_def_cfa_offset 8
 3787              		.cfi_offset 3, -8
 3788              		.cfi_offset 14, -4
 715:SCan/SC24/artifacts/MCB/c_source/Src/mcb.c ****     return ((double)value);
 3789              		.loc 1 715 5 is_stmt 1 view .LVU901
 3790              		.loc 1 715 13 is_stmt 0 view .LVU902
 3791 0002 FFF7FEFF 		bl	__aeabi_ui2d
 3792              	.LVL331:
 716:SCan/SC24/artifacts/MCB/c_source/Src/mcb.c **** }
 3793              		.loc 1 716 1 view .LVU903
 3794 0006 41EC100B 		vmov	d0, r0, r1
 3795 000a 08BD     		pop	{r3, pc}
 3796              		.cfi_endproc
 3797              	.LFE98:
 3799              		.section	.text.mcb_sb_front_analog_device_steer_rme_voltage_is_in_range,"ax",%progbits
 3800              		.align	1
 3801              		.global	mcb_sb_front_analog_device_steer_rme_voltage_is_in_range
 3802              		.syntax unified
 3803              		.thumb
 3804              		.thumb_func
 3805              		.fpu fpv4-sp-d16
 3807              	mcb_sb_front_analog_device_steer_rme_voltage_is_in_range:
 3808              	.LVL332:
 3809              	.LFB99:
 717:SCan/SC24/artifacts/MCB/c_source/Src/mcb.c **** 
 718:SCan/SC24/artifacts/MCB/c_source/Src/mcb.c **** bool mcb_sb_front_analog_device_steer_rme_voltage_is_in_range(uint16_t value)
 719:SCan/SC24/artifacts/MCB/c_source/Src/mcb.c **** {
 3810              		.loc 1 719 1 is_stmt 1 view -0
 3811              		.cfi_startproc
 3812              		@ args = 0, pretend = 0, frame = 0
 3813              		@ frame_needed = 0, uses_anonymous_args = 0
 3814              		@ link register save eliminated.
 720:SCan/SC24/artifacts/MCB/c_source/Src/mcb.c ****     (void)value;
 3815              		.loc 1 720 5 view .LVU905
 721:SCan/SC24/artifacts/MCB/c_source/Src/mcb.c **** 
 722:SCan/SC24/artifacts/MCB/c_source/Src/mcb.c ****     return (true);
 3816              		.loc 1 722 5 view .LVU906
 723:SCan/SC24/artifacts/MCB/c_source/Src/mcb.c **** }
 3817              		.loc 1 723 1 is_stmt 0 view .LVU907
 3818 0000 0120     		movs	r0, #1
 3819              	.LVL333:
 3820              		.loc 1 723 1 view .LVU908
 3821 0002 7047     		bx	lr
 3822              		.cfi_endproc
 3823              	.LFE99:
 3825              		.section	.text.mcb_sb_front_analog_device_brake_press_front_voltage_encode,"ax",%progbits
 3826              		.align	1
 3827              		.global	mcb_sb_front_analog_device_brake_press_front_voltage_encode
 3828              		.syntax unified
 3829              		.thumb
 3830              		.thumb_func
ARM GAS  /tmp/ccQYM1B7.s 			page 83


 3831              		.fpu fpv4-sp-d16
 3833              	mcb_sb_front_analog_device_brake_press_front_voltage_encode:
 3834              	.LVL334:
 3835              	.LFB100:
 724:SCan/SC24/artifacts/MCB/c_source/Src/mcb.c **** 
 725:SCan/SC24/artifacts/MCB/c_source/Src/mcb.c **** uint16_t mcb_sb_front_analog_device_brake_press_front_voltage_encode(double value)
 726:SCan/SC24/artifacts/MCB/c_source/Src/mcb.c **** {
 3836              		.loc 1 726 1 is_stmt 1 view -0
 3837              		.cfi_startproc
 3838              		@ args = 0, pretend = 0, frame = 0
 3839              		@ frame_needed = 0, uses_anonymous_args = 0
 3840              		.loc 1 726 1 is_stmt 0 view .LVU910
 3841 0000 08B5     		push	{r3, lr}
 3842              	.LCFI50:
 3843              		.cfi_def_cfa_offset 8
 3844              		.cfi_offset 3, -8
 3845              		.cfi_offset 14, -4
 3846 0002 51EC100B 		vmov	r0, r1, d0
 727:SCan/SC24/artifacts/MCB/c_source/Src/mcb.c ****     return (uint16_t)(value);
 3847              		.loc 1 727 5 is_stmt 1 view .LVU911
 3848              		.loc 1 727 12 is_stmt 0 view .LVU912
 3849 0006 FFF7FEFF 		bl	__aeabi_d2uiz
 3850              	.LVL335:
 728:SCan/SC24/artifacts/MCB/c_source/Src/mcb.c **** }
 3851              		.loc 1 728 1 view .LVU913
 3852 000a 80B2     		uxth	r0, r0
 3853 000c 08BD     		pop	{r3, pc}
 3854              		.cfi_endproc
 3855              	.LFE100:
 3857              		.section	.text.mcb_sb_front_analog_device_brake_press_front_voltage_decode,"ax",%progbits
 3858              		.align	1
 3859              		.global	mcb_sb_front_analog_device_brake_press_front_voltage_decode
 3860              		.syntax unified
 3861              		.thumb
 3862              		.thumb_func
 3863              		.fpu fpv4-sp-d16
 3865              	mcb_sb_front_analog_device_brake_press_front_voltage_decode:
 3866              	.LVL336:
 3867              	.LFB101:
 729:SCan/SC24/artifacts/MCB/c_source/Src/mcb.c **** 
 730:SCan/SC24/artifacts/MCB/c_source/Src/mcb.c **** double mcb_sb_front_analog_device_brake_press_front_voltage_decode(uint16_t value)
 731:SCan/SC24/artifacts/MCB/c_source/Src/mcb.c **** {
 3868              		.loc 1 731 1 is_stmt 1 view -0
 3869              		.cfi_startproc
 3870              		@ args = 0, pretend = 0, frame = 0
 3871              		@ frame_needed = 0, uses_anonymous_args = 0
 3872              		.loc 1 731 1 is_stmt 0 view .LVU915
 3873 0000 08B5     		push	{r3, lr}
 3874              	.LCFI51:
 3875              		.cfi_def_cfa_offset 8
 3876              		.cfi_offset 3, -8
 3877              		.cfi_offset 14, -4
 732:SCan/SC24/artifacts/MCB/c_source/Src/mcb.c ****     return ((double)value);
 3878              		.loc 1 732 5 is_stmt 1 view .LVU916
 3879              		.loc 1 732 13 is_stmt 0 view .LVU917
 3880 0002 FFF7FEFF 		bl	__aeabi_ui2d
 3881              	.LVL337:
ARM GAS  /tmp/ccQYM1B7.s 			page 84


 733:SCan/SC24/artifacts/MCB/c_source/Src/mcb.c **** }
 3882              		.loc 1 733 1 view .LVU918
 3883 0006 41EC100B 		vmov	d0, r0, r1
 3884 000a 08BD     		pop	{r3, pc}
 3885              		.cfi_endproc
 3886              	.LFE101:
 3888              		.section	.text.mcb_sb_front_analog_device_brake_press_front_voltage_is_in_range,"ax",%progbits
 3889              		.align	1
 3890              		.global	mcb_sb_front_analog_device_brake_press_front_voltage_is_in_range
 3891              		.syntax unified
 3892              		.thumb
 3893              		.thumb_func
 3894              		.fpu fpv4-sp-d16
 3896              	mcb_sb_front_analog_device_brake_press_front_voltage_is_in_range:
 3897              	.LVL338:
 3898              	.LFB102:
 734:SCan/SC24/artifacts/MCB/c_source/Src/mcb.c **** 
 735:SCan/SC24/artifacts/MCB/c_source/Src/mcb.c **** bool mcb_sb_front_analog_device_brake_press_front_voltage_is_in_range(uint16_t value)
 736:SCan/SC24/artifacts/MCB/c_source/Src/mcb.c **** {
 3899              		.loc 1 736 1 is_stmt 1 view -0
 3900              		.cfi_startproc
 3901              		@ args = 0, pretend = 0, frame = 0
 3902              		@ frame_needed = 0, uses_anonymous_args = 0
 3903              		@ link register save eliminated.
 737:SCan/SC24/artifacts/MCB/c_source/Src/mcb.c ****     return (value <= 8192u);
 3904              		.loc 1 737 5 view .LVU920
 738:SCan/SC24/artifacts/MCB/c_source/Src/mcb.c **** }
 3905              		.loc 1 738 1 is_stmt 0 view .LVU921
 3906 0000 B0F5005F 		cmp	r0, #8192
 3907 0004 8CBF     		ite	hi
 3908 0006 0020     		movhi	r0, #0
 3909              	.LVL339:
 3910              		.loc 1 738 1 view .LVU922
 3911 0008 0120     		movls	r0, #1
 3912 000a 7047     		bx	lr
 3913              		.cfi_endproc
 3914              	.LFE102:
 3916              		.section	.text.mcb_sb_rear_analog_device_pack,"ax",%progbits
 3917              		.align	1
 3918              		.global	mcb_sb_rear_analog_device_pack
 3919              		.syntax unified
 3920              		.thumb
 3921              		.thumb_func
 3922              		.fpu fpv4-sp-d16
 3924              	mcb_sb_rear_analog_device_pack:
 3925              	.LVL340:
 3926              	.LFB103:
 739:SCan/SC24/artifacts/MCB/c_source/Src/mcb.c **** 
 740:SCan/SC24/artifacts/MCB/c_source/Src/mcb.c **** int mcb_sb_rear_analog_device_pack(
 741:SCan/SC24/artifacts/MCB/c_source/Src/mcb.c ****     uint8_t *dst_p,
 742:SCan/SC24/artifacts/MCB/c_source/Src/mcb.c ****     const struct mcb_sb_rear_analog_device_t *src_p,
 743:SCan/SC24/artifacts/MCB/c_source/Src/mcb.c ****     size_t size)
 744:SCan/SC24/artifacts/MCB/c_source/Src/mcb.c **** {
 3927              		.loc 1 744 1 is_stmt 1 view -0
 3928              		.cfi_startproc
 3929              		@ args = 0, pretend = 0, frame = 0
 3930              		@ frame_needed = 0, uses_anonymous_args = 0
ARM GAS  /tmp/ccQYM1B7.s 			page 85


 3931              		@ link register save eliminated.
 745:SCan/SC24/artifacts/MCB/c_source/Src/mcb.c ****     if (size < 6u) {
 3932              		.loc 1 745 5 view .LVU924
 3933              		.loc 1 745 8 is_stmt 0 view .LVU925
 3934 0000 052A     		cmp	r2, #5
 3935 0002 13D9     		bls	.L160
 746:SCan/SC24/artifacts/MCB/c_source/Src/mcb.c ****         return (-EINVAL);
 747:SCan/SC24/artifacts/MCB/c_source/Src/mcb.c ****     }
 748:SCan/SC24/artifacts/MCB/c_source/Src/mcb.c **** 
 749:SCan/SC24/artifacts/MCB/c_source/Src/mcb.c ****     memset(&dst_p[0], 0, 6);
 3936              		.loc 1 749 5 is_stmt 1 view .LVU926
 3937 0004 0023     		movs	r3, #0
 3938 0006 0360     		str	r3, [r0]	@ unaligned
 3939 0008 8380     		strh	r3, [r0, #4]	@ unaligned
 750:SCan/SC24/artifacts/MCB/c_source/Src/mcb.c **** 
 751:SCan/SC24/artifacts/MCB/c_source/Src/mcb.c ****     dst_p[0] |= pack_left_shift_u16(src_p->cool_press_left_voltage, 0u, 0xffu);
 3940              		.loc 1 751 5 view .LVU927
 3941              	.LVL341:
 3942              	.LBB2158:
 3943              	.LBI2158:
  43:SCan/SC24/artifacts/MCB/c_source/Src/mcb.c ****     uint16_t value,
 3944              		.loc 1 43 23 view .LVU928
 3945              	.LBB2159:
  48:SCan/SC24/artifacts/MCB/c_source/Src/mcb.c **** }
 3946              		.loc 1 48 5 view .LVU929
  48:SCan/SC24/artifacts/MCB/c_source/Src/mcb.c **** }
 3947              		.loc 1 48 22 is_stmt 0 view .LVU930
 3948 000a 0B78     		ldrb	r3, [r1]	@ zero_extendqisi2
 3949              	.LVL342:
  48:SCan/SC24/artifacts/MCB/c_source/Src/mcb.c **** }
 3950              		.loc 1 48 22 view .LVU931
 3951              	.LBE2159:
 3952              	.LBE2158:
 3953              		.loc 1 751 14 view .LVU932
 3954 000c 0370     		strb	r3, [r0]
 752:SCan/SC24/artifacts/MCB/c_source/Src/mcb.c ****     dst_p[1] |= pack_right_shift_u16(src_p->cool_press_left_voltage, 8u, 0xffu);
 3955              		.loc 1 752 5 is_stmt 1 view .LVU933
 3956              		.loc 1 752 17 is_stmt 0 view .LVU934
 3957 000e 0B88     		ldrh	r3, [r1]
 3958              	.LVL343:
 3959              	.LBB2160:
 3960              	.LBI2160:
  75:SCan/SC24/artifacts/MCB/c_source/Src/mcb.c ****     uint16_t value,
 3961              		.loc 1 75 23 is_stmt 1 view .LVU935
 3962              	.LBB2161:
  80:SCan/SC24/artifacts/MCB/c_source/Src/mcb.c **** }
 3963              		.loc 1 80 5 view .LVU936
  80:SCan/SC24/artifacts/MCB/c_source/Src/mcb.c **** }
 3964              		.loc 1 80 22 is_stmt 0 view .LVU937
 3965 0010 1B0A     		lsrs	r3, r3, #8
 3966              	.LVL344:
  80:SCan/SC24/artifacts/MCB/c_source/Src/mcb.c **** }
 3967              		.loc 1 80 22 view .LVU938
 3968              	.LBE2161:
 3969              	.LBE2160:
 3970              		.loc 1 752 14 view .LVU939
 3971 0012 4370     		strb	r3, [r0, #1]
ARM GAS  /tmp/ccQYM1B7.s 			page 86


 753:SCan/SC24/artifacts/MCB/c_source/Src/mcb.c ****     dst_p[2] |= pack_left_shift_u16(src_p->cool_press_right_voltage, 0u, 0xffu);
 3972              		.loc 1 753 5 is_stmt 1 view .LVU940
 3973              	.LVL345:
 3974              	.LBB2162:
 3975              	.LBI2162:
  43:SCan/SC24/artifacts/MCB/c_source/Src/mcb.c ****     uint16_t value,
 3976              		.loc 1 43 23 view .LVU941
 3977              	.LBB2163:
  48:SCan/SC24/artifacts/MCB/c_source/Src/mcb.c **** }
 3978              		.loc 1 48 5 view .LVU942
  48:SCan/SC24/artifacts/MCB/c_source/Src/mcb.c **** }
 3979              		.loc 1 48 22 is_stmt 0 view .LVU943
 3980 0014 8B78     		ldrb	r3, [r1, #2]	@ zero_extendqisi2
 3981              	.LVL346:
  48:SCan/SC24/artifacts/MCB/c_source/Src/mcb.c **** }
 3982              		.loc 1 48 22 view .LVU944
 3983              	.LBE2163:
 3984              	.LBE2162:
 3985              		.loc 1 753 14 view .LVU945
 3986 0016 8370     		strb	r3, [r0, #2]
 754:SCan/SC24/artifacts/MCB/c_source/Src/mcb.c ****     dst_p[3] |= pack_right_shift_u16(src_p->cool_press_right_voltage, 8u, 0xffu);
 3987              		.loc 1 754 5 is_stmt 1 view .LVU946
 3988              		.loc 1 754 17 is_stmt 0 view .LVU947
 3989 0018 4B88     		ldrh	r3, [r1, #2]
 3990              	.LVL347:
 3991              	.LBB2164:
 3992              	.LBI2164:
  75:SCan/SC24/artifacts/MCB/c_source/Src/mcb.c ****     uint16_t value,
 3993              		.loc 1 75 23 is_stmt 1 view .LVU948
 3994              	.LBB2165:
  80:SCan/SC24/artifacts/MCB/c_source/Src/mcb.c **** }
 3995              		.loc 1 80 5 view .LVU949
  80:SCan/SC24/artifacts/MCB/c_source/Src/mcb.c **** }
 3996              		.loc 1 80 22 is_stmt 0 view .LVU950
 3997 001a 1B0A     		lsrs	r3, r3, #8
 3998              	.LVL348:
  80:SCan/SC24/artifacts/MCB/c_source/Src/mcb.c **** }
 3999              		.loc 1 80 22 view .LVU951
 4000              	.LBE2165:
 4001              	.LBE2164:
 4002              		.loc 1 754 14 view .LVU952
 4003 001c C370     		strb	r3, [r0, #3]
 755:SCan/SC24/artifacts/MCB/c_source/Src/mcb.c ****     dst_p[4] |= pack_left_shift_u16(src_p->brake_press_rear_voltage, 0u, 0xffu);
 4004              		.loc 1 755 5 is_stmt 1 view .LVU953
 4005              	.LVL349:
 4006              	.LBB2166:
 4007              	.LBI2166:
  43:SCan/SC24/artifacts/MCB/c_source/Src/mcb.c ****     uint16_t value,
 4008              		.loc 1 43 23 view .LVU954
 4009              	.LBB2167:
  48:SCan/SC24/artifacts/MCB/c_source/Src/mcb.c **** }
 4010              		.loc 1 48 5 view .LVU955
  48:SCan/SC24/artifacts/MCB/c_source/Src/mcb.c **** }
 4011              		.loc 1 48 22 is_stmt 0 view .LVU956
 4012 001e 0B79     		ldrb	r3, [r1, #4]	@ zero_extendqisi2
 4013              	.LVL350:
  48:SCan/SC24/artifacts/MCB/c_source/Src/mcb.c **** }
ARM GAS  /tmp/ccQYM1B7.s 			page 87


 4014              		.loc 1 48 22 view .LVU957
 4015              	.LBE2167:
 4016              	.LBE2166:
 4017              		.loc 1 755 14 view .LVU958
 4018 0020 0371     		strb	r3, [r0, #4]
 756:SCan/SC24/artifacts/MCB/c_source/Src/mcb.c ****     dst_p[5] |= pack_right_shift_u16(src_p->brake_press_rear_voltage, 8u, 0xffu);
 4019              		.loc 1 756 5 is_stmt 1 view .LVU959
 4020              		.loc 1 756 17 is_stmt 0 view .LVU960
 4021 0022 8B88     		ldrh	r3, [r1, #4]
 4022              	.LVL351:
 4023              	.LBB2168:
 4024              	.LBI2168:
  75:SCan/SC24/artifacts/MCB/c_source/Src/mcb.c ****     uint16_t value,
 4025              		.loc 1 75 23 is_stmt 1 view .LVU961
 4026              	.LBB2169:
  80:SCan/SC24/artifacts/MCB/c_source/Src/mcb.c **** }
 4027              		.loc 1 80 5 view .LVU962
  80:SCan/SC24/artifacts/MCB/c_source/Src/mcb.c **** }
 4028              		.loc 1 80 22 is_stmt 0 view .LVU963
 4029 0024 1B0A     		lsrs	r3, r3, #8
 4030              	.LVL352:
  80:SCan/SC24/artifacts/MCB/c_source/Src/mcb.c **** }
 4031              		.loc 1 80 22 view .LVU964
 4032              	.LBE2169:
 4033              	.LBE2168:
 4034              		.loc 1 756 14 view .LVU965
 4035 0026 4371     		strb	r3, [r0, #5]
 757:SCan/SC24/artifacts/MCB/c_source/Src/mcb.c **** 
 758:SCan/SC24/artifacts/MCB/c_source/Src/mcb.c ****     return (6);
 4036              		.loc 1 758 5 is_stmt 1 view .LVU966
 4037              		.loc 1 758 12 is_stmt 0 view .LVU967
 4038 0028 0620     		movs	r0, #6
 4039              	.LVL353:
 4040              		.loc 1 758 12 view .LVU968
 4041 002a 7047     		bx	lr
 4042              	.LVL354:
 4043              	.L160:
