ARM GAS  /tmp/cc6hBWA9.s 			page 1


   1              		.cpu cortex-m4
   2              		.eabi_attribute 27, 1
   3              		.eabi_attribute 28, 1
   4              		.eabi_attribute 20, 1
   5              		.eabi_attribute 21, 1
   6              		.eabi_attribute 23, 3
   7              		.eabi_attribute 24, 1
   8              		.eabi_attribute 25, 1
   9              		.eabi_attribute 26, 1
  10              		.eabi_attribute 30, 1
  11              		.eabi_attribute 34, 1
  12              		.eabi_attribute 18, 4
  13              		.file	"stm32f4xx_hal_can.c"
  14              		.text
  15              	.Ltext0:
  16              		.cfi_sections	.debug_frame
  17              		.section	.text.HAL_CAN_MspInit,"ax",%progbits
  18              		.align	1
  19              		.weak	HAL_CAN_MspInit
  20              		.arch armv7e-m
  21              		.syntax unified
  22              		.thumb
  23              		.thumb_func
  24              		.fpu fpv4-sp-d16
  26              	HAL_CAN_MspInit:
  27              	.LVL0:
  28              	.LFB136:
  29              		.file 1 "Drivers/STM32F4xx_HAL_Driver/Src/stm32f4xx_hal_can.c"
   1:Drivers/STM32F4xx_HAL_Driver/Src/stm32f4xx_hal_can.c **** /**
   2:Drivers/STM32F4xx_HAL_Driver/Src/stm32f4xx_hal_can.c ****   ******************************************************************************
   3:Drivers/STM32F4xx_HAL_Driver/Src/stm32f4xx_hal_can.c ****   * @file    stm32f4xx_hal_can.c
   4:Drivers/STM32F4xx_HAL_Driver/Src/stm32f4xx_hal_can.c ****   * @author  MCD Application Team
   5:Drivers/STM32F4xx_HAL_Driver/Src/stm32f4xx_hal_can.c ****   * @brief   CAN HAL module driver.
   6:Drivers/STM32F4xx_HAL_Driver/Src/stm32f4xx_hal_can.c ****   *          This file provides firmware functions to manage the following
   7:Drivers/STM32F4xx_HAL_Driver/Src/stm32f4xx_hal_can.c ****   *          functionalities of the Controller Area Network (CAN) peripheral:
   8:Drivers/STM32F4xx_HAL_Driver/Src/stm32f4xx_hal_can.c ****   *           + Initialization and de-initialization functions
   9:Drivers/STM32F4xx_HAL_Driver/Src/stm32f4xx_hal_can.c ****   *           + Configuration functions
  10:Drivers/STM32F4xx_HAL_Driver/Src/stm32f4xx_hal_can.c ****   *           + Control functions
  11:Drivers/STM32F4xx_HAL_Driver/Src/stm32f4xx_hal_can.c ****   *           + Interrupts management
  12:Drivers/STM32F4xx_HAL_Driver/Src/stm32f4xx_hal_can.c ****   *           + Callbacks functions
  13:Drivers/STM32F4xx_HAL_Driver/Src/stm32f4xx_hal_can.c ****   *           + Peripheral State and Error functions
  14:Drivers/STM32F4xx_HAL_Driver/Src/stm32f4xx_hal_can.c ****   *
  15:Drivers/STM32F4xx_HAL_Driver/Src/stm32f4xx_hal_can.c ****   ******************************************************************************
  16:Drivers/STM32F4xx_HAL_Driver/Src/stm32f4xx_hal_can.c ****   * @attention
  17:Drivers/STM32F4xx_HAL_Driver/Src/stm32f4xx_hal_can.c ****   *
  18:Drivers/STM32F4xx_HAL_Driver/Src/stm32f4xx_hal_can.c ****   * Copyright (c) 2016 STMicroelectronics.
  19:Drivers/STM32F4xx_HAL_Driver/Src/stm32f4xx_hal_can.c ****   * All rights reserved.
  20:Drivers/STM32F4xx_HAL_Driver/Src/stm32f4xx_hal_can.c ****   *
  21:Drivers/STM32F4xx_HAL_Driver/Src/stm32f4xx_hal_can.c ****   * This software is licensed under terms that can be found in the LICENSE file
  22:Drivers/STM32F4xx_HAL_Driver/Src/stm32f4xx_hal_can.c ****   * in the root directory of this software component.
  23:Drivers/STM32F4xx_HAL_Driver/Src/stm32f4xx_hal_can.c ****   * If no LICENSE file comes with this software, it is provided AS-IS.
  24:Drivers/STM32F4xx_HAL_Driver/Src/stm32f4xx_hal_can.c ****   *
  25:Drivers/STM32F4xx_HAL_Driver/Src/stm32f4xx_hal_can.c ****   ******************************************************************************
  26:Drivers/STM32F4xx_HAL_Driver/Src/stm32f4xx_hal_can.c ****   @verbatim
  27:Drivers/STM32F4xx_HAL_Driver/Src/stm32f4xx_hal_can.c ****   ==============================================================================
  28:Drivers/STM32F4xx_HAL_Driver/Src/stm32f4xx_hal_can.c ****                         ##### How to use this driver #####
  29:Drivers/STM32F4xx_HAL_Driver/Src/stm32f4xx_hal_can.c ****   ==============================================================================
ARM GAS  /tmp/cc6hBWA9.s 			page 2


  30:Drivers/STM32F4xx_HAL_Driver/Src/stm32f4xx_hal_can.c ****     [..]
  31:Drivers/STM32F4xx_HAL_Driver/Src/stm32f4xx_hal_can.c ****       (#) Initialize the CAN low level resources by implementing the
  32:Drivers/STM32F4xx_HAL_Driver/Src/stm32f4xx_hal_can.c ****           HAL_CAN_MspInit():
  33:Drivers/STM32F4xx_HAL_Driver/Src/stm32f4xx_hal_can.c ****          (++) Enable the CAN interface clock using __HAL_RCC_CANx_CLK_ENABLE()
  34:Drivers/STM32F4xx_HAL_Driver/Src/stm32f4xx_hal_can.c ****          (++) Configure CAN pins
  35:Drivers/STM32F4xx_HAL_Driver/Src/stm32f4xx_hal_can.c ****              (+++) Enable the clock for the CAN GPIOs
  36:Drivers/STM32F4xx_HAL_Driver/Src/stm32f4xx_hal_can.c ****              (+++) Configure CAN pins as alternate function
  37:Drivers/STM32F4xx_HAL_Driver/Src/stm32f4xx_hal_can.c ****          (++) In case of using interrupts (e.g. HAL_CAN_ActivateNotification())
  38:Drivers/STM32F4xx_HAL_Driver/Src/stm32f4xx_hal_can.c ****              (+++) Configure the CAN interrupt priority using
  39:Drivers/STM32F4xx_HAL_Driver/Src/stm32f4xx_hal_can.c ****                    HAL_NVIC_SetPriority()
  40:Drivers/STM32F4xx_HAL_Driver/Src/stm32f4xx_hal_can.c ****              (+++) Enable the CAN IRQ handler using HAL_NVIC_EnableIRQ()
  41:Drivers/STM32F4xx_HAL_Driver/Src/stm32f4xx_hal_can.c ****              (+++) In CAN IRQ handler, call HAL_CAN_IRQHandler()
  42:Drivers/STM32F4xx_HAL_Driver/Src/stm32f4xx_hal_can.c **** 
  43:Drivers/STM32F4xx_HAL_Driver/Src/stm32f4xx_hal_can.c ****       (#) Initialize the CAN peripheral using HAL_CAN_Init() function. This
  44:Drivers/STM32F4xx_HAL_Driver/Src/stm32f4xx_hal_can.c ****           function resorts to HAL_CAN_MspInit() for low-level initialization.
  45:Drivers/STM32F4xx_HAL_Driver/Src/stm32f4xx_hal_can.c **** 
  46:Drivers/STM32F4xx_HAL_Driver/Src/stm32f4xx_hal_can.c ****       (#) Configure the reception filters using the following configuration
  47:Drivers/STM32F4xx_HAL_Driver/Src/stm32f4xx_hal_can.c ****           functions:
  48:Drivers/STM32F4xx_HAL_Driver/Src/stm32f4xx_hal_can.c ****             (++) HAL_CAN_ConfigFilter()
  49:Drivers/STM32F4xx_HAL_Driver/Src/stm32f4xx_hal_can.c **** 
  50:Drivers/STM32F4xx_HAL_Driver/Src/stm32f4xx_hal_can.c ****       (#) Start the CAN module using HAL_CAN_Start() function. At this level
  51:Drivers/STM32F4xx_HAL_Driver/Src/stm32f4xx_hal_can.c ****           the node is active on the bus: it receive messages, and can send
  52:Drivers/STM32F4xx_HAL_Driver/Src/stm32f4xx_hal_can.c ****           messages.
  53:Drivers/STM32F4xx_HAL_Driver/Src/stm32f4xx_hal_can.c **** 
  54:Drivers/STM32F4xx_HAL_Driver/Src/stm32f4xx_hal_can.c ****       (#) To manage messages transmission, the following Tx control functions
  55:Drivers/STM32F4xx_HAL_Driver/Src/stm32f4xx_hal_can.c ****           can be used:
  56:Drivers/STM32F4xx_HAL_Driver/Src/stm32f4xx_hal_can.c ****             (++) HAL_CAN_AddTxMessage() to request transmission of a new
  57:Drivers/STM32F4xx_HAL_Driver/Src/stm32f4xx_hal_can.c ****                  message.
  58:Drivers/STM32F4xx_HAL_Driver/Src/stm32f4xx_hal_can.c ****             (++) HAL_CAN_AbortTxRequest() to abort transmission of a pending
  59:Drivers/STM32F4xx_HAL_Driver/Src/stm32f4xx_hal_can.c ****                  message.
  60:Drivers/STM32F4xx_HAL_Driver/Src/stm32f4xx_hal_can.c ****             (++) HAL_CAN_GetTxMailboxesFreeLevel() to get the number of free Tx
  61:Drivers/STM32F4xx_HAL_Driver/Src/stm32f4xx_hal_can.c ****                  mailboxes.
  62:Drivers/STM32F4xx_HAL_Driver/Src/stm32f4xx_hal_can.c ****             (++) HAL_CAN_IsTxMessagePending() to check if a message is pending
  63:Drivers/STM32F4xx_HAL_Driver/Src/stm32f4xx_hal_can.c ****                  in a Tx mailbox.
  64:Drivers/STM32F4xx_HAL_Driver/Src/stm32f4xx_hal_can.c ****             (++) HAL_CAN_GetTxTimestamp() to get the timestamp of Tx message
  65:Drivers/STM32F4xx_HAL_Driver/Src/stm32f4xx_hal_can.c ****                  sent, if time triggered communication mode is enabled.
  66:Drivers/STM32F4xx_HAL_Driver/Src/stm32f4xx_hal_can.c **** 
  67:Drivers/STM32F4xx_HAL_Driver/Src/stm32f4xx_hal_can.c ****       (#) When a message is received into the CAN Rx FIFOs, it can be retrieved
  68:Drivers/STM32F4xx_HAL_Driver/Src/stm32f4xx_hal_can.c ****           using the HAL_CAN_GetRxMessage() function. The function
  69:Drivers/STM32F4xx_HAL_Driver/Src/stm32f4xx_hal_can.c ****           HAL_CAN_GetRxFifoFillLevel() allows to know how many Rx message are
  70:Drivers/STM32F4xx_HAL_Driver/Src/stm32f4xx_hal_can.c ****           stored in the Rx Fifo.
  71:Drivers/STM32F4xx_HAL_Driver/Src/stm32f4xx_hal_can.c **** 
  72:Drivers/STM32F4xx_HAL_Driver/Src/stm32f4xx_hal_can.c ****       (#) Calling the HAL_CAN_Stop() function stops the CAN module.
  73:Drivers/STM32F4xx_HAL_Driver/Src/stm32f4xx_hal_can.c **** 
  74:Drivers/STM32F4xx_HAL_Driver/Src/stm32f4xx_hal_can.c ****       (#) The deinitialization is achieved with HAL_CAN_DeInit() function.
  75:Drivers/STM32F4xx_HAL_Driver/Src/stm32f4xx_hal_can.c **** 
  76:Drivers/STM32F4xx_HAL_Driver/Src/stm32f4xx_hal_can.c **** 
  77:Drivers/STM32F4xx_HAL_Driver/Src/stm32f4xx_hal_can.c ****       *** Polling mode operation ***
  78:Drivers/STM32F4xx_HAL_Driver/Src/stm32f4xx_hal_can.c ****       ==============================
  79:Drivers/STM32F4xx_HAL_Driver/Src/stm32f4xx_hal_can.c ****     [..]
  80:Drivers/STM32F4xx_HAL_Driver/Src/stm32f4xx_hal_can.c ****       (#) Reception:
  81:Drivers/STM32F4xx_HAL_Driver/Src/stm32f4xx_hal_can.c ****             (++) Monitor reception of message using HAL_CAN_GetRxFifoFillLevel()
  82:Drivers/STM32F4xx_HAL_Driver/Src/stm32f4xx_hal_can.c ****                  until at least one message is received.
  83:Drivers/STM32F4xx_HAL_Driver/Src/stm32f4xx_hal_can.c ****             (++) Then get the message using HAL_CAN_GetRxMessage().
  84:Drivers/STM32F4xx_HAL_Driver/Src/stm32f4xx_hal_can.c **** 
  85:Drivers/STM32F4xx_HAL_Driver/Src/stm32f4xx_hal_can.c ****       (#) Transmission:
  86:Drivers/STM32F4xx_HAL_Driver/Src/stm32f4xx_hal_can.c ****             (++) Monitor the Tx mailboxes availability until at least one Tx
ARM GAS  /tmp/cc6hBWA9.s 			page 3


  87:Drivers/STM32F4xx_HAL_Driver/Src/stm32f4xx_hal_can.c ****                  mailbox is free, using HAL_CAN_GetTxMailboxesFreeLevel().
  88:Drivers/STM32F4xx_HAL_Driver/Src/stm32f4xx_hal_can.c ****             (++) Then request transmission of a message using
  89:Drivers/STM32F4xx_HAL_Driver/Src/stm32f4xx_hal_can.c ****                  HAL_CAN_AddTxMessage().
  90:Drivers/STM32F4xx_HAL_Driver/Src/stm32f4xx_hal_can.c **** 
  91:Drivers/STM32F4xx_HAL_Driver/Src/stm32f4xx_hal_can.c **** 
  92:Drivers/STM32F4xx_HAL_Driver/Src/stm32f4xx_hal_can.c ****       *** Interrupt mode operation ***
  93:Drivers/STM32F4xx_HAL_Driver/Src/stm32f4xx_hal_can.c ****       ================================
  94:Drivers/STM32F4xx_HAL_Driver/Src/stm32f4xx_hal_can.c ****     [..]
  95:Drivers/STM32F4xx_HAL_Driver/Src/stm32f4xx_hal_can.c ****       (#) Notifications are activated using HAL_CAN_ActivateNotification()
  96:Drivers/STM32F4xx_HAL_Driver/Src/stm32f4xx_hal_can.c ****           function. Then, the process can be controlled through the
  97:Drivers/STM32F4xx_HAL_Driver/Src/stm32f4xx_hal_can.c ****           available user callbacks: HAL_CAN_xxxCallback(), using same APIs
  98:Drivers/STM32F4xx_HAL_Driver/Src/stm32f4xx_hal_can.c ****           HAL_CAN_GetRxMessage() and HAL_CAN_AddTxMessage().
  99:Drivers/STM32F4xx_HAL_Driver/Src/stm32f4xx_hal_can.c **** 
 100:Drivers/STM32F4xx_HAL_Driver/Src/stm32f4xx_hal_can.c ****       (#) Notifications can be deactivated using
 101:Drivers/STM32F4xx_HAL_Driver/Src/stm32f4xx_hal_can.c ****           HAL_CAN_DeactivateNotification() function.
 102:Drivers/STM32F4xx_HAL_Driver/Src/stm32f4xx_hal_can.c **** 
 103:Drivers/STM32F4xx_HAL_Driver/Src/stm32f4xx_hal_can.c ****       (#) Special care should be taken for CAN_IT_RX_FIFO0_MSG_PENDING and
 104:Drivers/STM32F4xx_HAL_Driver/Src/stm32f4xx_hal_can.c ****           CAN_IT_RX_FIFO1_MSG_PENDING notifications. These notifications trig
 105:Drivers/STM32F4xx_HAL_Driver/Src/stm32f4xx_hal_can.c ****           the callbacks HAL_CAN_RxFIFO0MsgPendingCallback() and
 106:Drivers/STM32F4xx_HAL_Driver/Src/stm32f4xx_hal_can.c ****           HAL_CAN_RxFIFO1MsgPendingCallback(). User has two possible options
 107:Drivers/STM32F4xx_HAL_Driver/Src/stm32f4xx_hal_can.c ****           here.
 108:Drivers/STM32F4xx_HAL_Driver/Src/stm32f4xx_hal_can.c ****             (++) Directly get the Rx message in the callback, using
 109:Drivers/STM32F4xx_HAL_Driver/Src/stm32f4xx_hal_can.c ****                  HAL_CAN_GetRxMessage().
 110:Drivers/STM32F4xx_HAL_Driver/Src/stm32f4xx_hal_can.c ****             (++) Or deactivate the notification in the callback without
 111:Drivers/STM32F4xx_HAL_Driver/Src/stm32f4xx_hal_can.c ****                  getting the Rx message. The Rx message can then be got later
 112:Drivers/STM32F4xx_HAL_Driver/Src/stm32f4xx_hal_can.c ****                  using HAL_CAN_GetRxMessage(). Once the Rx message have been
 113:Drivers/STM32F4xx_HAL_Driver/Src/stm32f4xx_hal_can.c ****                  read, the notification can be activated again.
 114:Drivers/STM32F4xx_HAL_Driver/Src/stm32f4xx_hal_can.c **** 
 115:Drivers/STM32F4xx_HAL_Driver/Src/stm32f4xx_hal_can.c **** 
 116:Drivers/STM32F4xx_HAL_Driver/Src/stm32f4xx_hal_can.c ****       *** Sleep mode ***
 117:Drivers/STM32F4xx_HAL_Driver/Src/stm32f4xx_hal_can.c ****       ==================
 118:Drivers/STM32F4xx_HAL_Driver/Src/stm32f4xx_hal_can.c ****     [..]
 119:Drivers/STM32F4xx_HAL_Driver/Src/stm32f4xx_hal_can.c ****       (#) The CAN peripheral can be put in sleep mode (low power), using
 120:Drivers/STM32F4xx_HAL_Driver/Src/stm32f4xx_hal_can.c ****           HAL_CAN_RequestSleep(). The sleep mode will be entered as soon as the
 121:Drivers/STM32F4xx_HAL_Driver/Src/stm32f4xx_hal_can.c ****           current CAN activity (transmission or reception of a CAN frame) will
 122:Drivers/STM32F4xx_HAL_Driver/Src/stm32f4xx_hal_can.c ****           be completed.
 123:Drivers/STM32F4xx_HAL_Driver/Src/stm32f4xx_hal_can.c **** 
 124:Drivers/STM32F4xx_HAL_Driver/Src/stm32f4xx_hal_can.c ****       (#) A notification can be activated to be informed when the sleep mode
 125:Drivers/STM32F4xx_HAL_Driver/Src/stm32f4xx_hal_can.c ****           will be entered.
 126:Drivers/STM32F4xx_HAL_Driver/Src/stm32f4xx_hal_can.c **** 
 127:Drivers/STM32F4xx_HAL_Driver/Src/stm32f4xx_hal_can.c ****       (#) It can be checked if the sleep mode is entered using
 128:Drivers/STM32F4xx_HAL_Driver/Src/stm32f4xx_hal_can.c ****           HAL_CAN_IsSleepActive().
 129:Drivers/STM32F4xx_HAL_Driver/Src/stm32f4xx_hal_can.c ****           Note that the CAN state (accessible from the API HAL_CAN_GetState())
 130:Drivers/STM32F4xx_HAL_Driver/Src/stm32f4xx_hal_can.c ****           is HAL_CAN_STATE_SLEEP_PENDING as soon as the sleep mode request is
 131:Drivers/STM32F4xx_HAL_Driver/Src/stm32f4xx_hal_can.c ****           submitted (the sleep mode is not yet entered), and become
 132:Drivers/STM32F4xx_HAL_Driver/Src/stm32f4xx_hal_can.c ****           HAL_CAN_STATE_SLEEP_ACTIVE when the sleep mode is effective.
 133:Drivers/STM32F4xx_HAL_Driver/Src/stm32f4xx_hal_can.c **** 
 134:Drivers/STM32F4xx_HAL_Driver/Src/stm32f4xx_hal_can.c ****       (#) The wake-up from sleep mode can be triggered by two ways:
 135:Drivers/STM32F4xx_HAL_Driver/Src/stm32f4xx_hal_can.c ****             (++) Using HAL_CAN_WakeUp(). When returning from this function,
 136:Drivers/STM32F4xx_HAL_Driver/Src/stm32f4xx_hal_can.c ****                  the sleep mode is exited (if return status is HAL_OK).
 137:Drivers/STM32F4xx_HAL_Driver/Src/stm32f4xx_hal_can.c ****             (++) When a start of Rx CAN frame is detected by the CAN peripheral,
 138:Drivers/STM32F4xx_HAL_Driver/Src/stm32f4xx_hal_can.c ****                  if automatic wake up mode is enabled.
 139:Drivers/STM32F4xx_HAL_Driver/Src/stm32f4xx_hal_can.c **** 
 140:Drivers/STM32F4xx_HAL_Driver/Src/stm32f4xx_hal_can.c ****   *** Callback registration ***
 141:Drivers/STM32F4xx_HAL_Driver/Src/stm32f4xx_hal_can.c ****   =============================================
 142:Drivers/STM32F4xx_HAL_Driver/Src/stm32f4xx_hal_can.c **** 
 143:Drivers/STM32F4xx_HAL_Driver/Src/stm32f4xx_hal_can.c ****   The compilation define  USE_HAL_CAN_REGISTER_CALLBACKS when set to 1
ARM GAS  /tmp/cc6hBWA9.s 			page 4


 144:Drivers/STM32F4xx_HAL_Driver/Src/stm32f4xx_hal_can.c ****   allows the user to configure dynamically the driver callbacks.
 145:Drivers/STM32F4xx_HAL_Driver/Src/stm32f4xx_hal_can.c ****   Use Function HAL_CAN_RegisterCallback() to register an interrupt callback.
 146:Drivers/STM32F4xx_HAL_Driver/Src/stm32f4xx_hal_can.c **** 
 147:Drivers/STM32F4xx_HAL_Driver/Src/stm32f4xx_hal_can.c ****   Function HAL_CAN_RegisterCallback() allows to register following callbacks:
 148:Drivers/STM32F4xx_HAL_Driver/Src/stm32f4xx_hal_can.c ****     (+) TxMailbox0CompleteCallback   : Tx Mailbox 0 Complete Callback.
 149:Drivers/STM32F4xx_HAL_Driver/Src/stm32f4xx_hal_can.c ****     (+) TxMailbox1CompleteCallback   : Tx Mailbox 1 Complete Callback.
 150:Drivers/STM32F4xx_HAL_Driver/Src/stm32f4xx_hal_can.c ****     (+) TxMailbox2CompleteCallback   : Tx Mailbox 2 Complete Callback.
 151:Drivers/STM32F4xx_HAL_Driver/Src/stm32f4xx_hal_can.c ****     (+) TxMailbox0AbortCallback      : Tx Mailbox 0 Abort Callback.
 152:Drivers/STM32F4xx_HAL_Driver/Src/stm32f4xx_hal_can.c ****     (+) TxMailbox1AbortCallback      : Tx Mailbox 1 Abort Callback.
 153:Drivers/STM32F4xx_HAL_Driver/Src/stm32f4xx_hal_can.c ****     (+) TxMailbox2AbortCallback      : Tx Mailbox 2 Abort Callback.
 154:Drivers/STM32F4xx_HAL_Driver/Src/stm32f4xx_hal_can.c ****     (+) RxFifo0MsgPendingCallback    : Rx Fifo 0 Message Pending Callback.
 155:Drivers/STM32F4xx_HAL_Driver/Src/stm32f4xx_hal_can.c ****     (+) RxFifo0FullCallback          : Rx Fifo 0 Full Callback.
 156:Drivers/STM32F4xx_HAL_Driver/Src/stm32f4xx_hal_can.c ****     (+) RxFifo1MsgPendingCallback    : Rx Fifo 1 Message Pending Callback.
 157:Drivers/STM32F4xx_HAL_Driver/Src/stm32f4xx_hal_can.c ****     (+) RxFifo1FullCallback          : Rx Fifo 1 Full Callback.
 158:Drivers/STM32F4xx_HAL_Driver/Src/stm32f4xx_hal_can.c ****     (+) SleepCallback                : Sleep Callback.
 159:Drivers/STM32F4xx_HAL_Driver/Src/stm32f4xx_hal_can.c ****     (+) WakeUpFromRxMsgCallback      : Wake Up From Rx Message Callback.
 160:Drivers/STM32F4xx_HAL_Driver/Src/stm32f4xx_hal_can.c ****     (+) ErrorCallback                : Error Callback.
 161:Drivers/STM32F4xx_HAL_Driver/Src/stm32f4xx_hal_can.c ****     (+) MspInitCallback              : CAN MspInit.
 162:Drivers/STM32F4xx_HAL_Driver/Src/stm32f4xx_hal_can.c ****     (+) MspDeInitCallback            : CAN MspDeInit.
 163:Drivers/STM32F4xx_HAL_Driver/Src/stm32f4xx_hal_can.c ****   This function takes as parameters the HAL peripheral handle, the Callback ID
 164:Drivers/STM32F4xx_HAL_Driver/Src/stm32f4xx_hal_can.c ****   and a pointer to the user callback function.
 165:Drivers/STM32F4xx_HAL_Driver/Src/stm32f4xx_hal_can.c **** 
 166:Drivers/STM32F4xx_HAL_Driver/Src/stm32f4xx_hal_can.c ****   Use function HAL_CAN_UnRegisterCallback() to reset a callback to the default
 167:Drivers/STM32F4xx_HAL_Driver/Src/stm32f4xx_hal_can.c ****   weak function.
 168:Drivers/STM32F4xx_HAL_Driver/Src/stm32f4xx_hal_can.c ****   HAL_CAN_UnRegisterCallback takes as parameters the HAL peripheral handle,
 169:Drivers/STM32F4xx_HAL_Driver/Src/stm32f4xx_hal_can.c ****   and the Callback ID.
 170:Drivers/STM32F4xx_HAL_Driver/Src/stm32f4xx_hal_can.c ****   This function allows to reset following callbacks:
 171:Drivers/STM32F4xx_HAL_Driver/Src/stm32f4xx_hal_can.c ****     (+) TxMailbox0CompleteCallback   : Tx Mailbox 0 Complete Callback.
 172:Drivers/STM32F4xx_HAL_Driver/Src/stm32f4xx_hal_can.c ****     (+) TxMailbox1CompleteCallback   : Tx Mailbox 1 Complete Callback.
 173:Drivers/STM32F4xx_HAL_Driver/Src/stm32f4xx_hal_can.c ****     (+) TxMailbox2CompleteCallback   : Tx Mailbox 2 Complete Callback.
 174:Drivers/STM32F4xx_HAL_Driver/Src/stm32f4xx_hal_can.c ****     (+) TxMailbox0AbortCallback      : Tx Mailbox 0 Abort Callback.
 175:Drivers/STM32F4xx_HAL_Driver/Src/stm32f4xx_hal_can.c ****     (+) TxMailbox1AbortCallback      : Tx Mailbox 1 Abort Callback.
 176:Drivers/STM32F4xx_HAL_Driver/Src/stm32f4xx_hal_can.c ****     (+) TxMailbox2AbortCallback      : Tx Mailbox 2 Abort Callback.
 177:Drivers/STM32F4xx_HAL_Driver/Src/stm32f4xx_hal_can.c ****     (+) RxFifo0MsgPendingCallback    : Rx Fifo 0 Message Pending Callback.
 178:Drivers/STM32F4xx_HAL_Driver/Src/stm32f4xx_hal_can.c ****     (+) RxFifo0FullCallback          : Rx Fifo 0 Full Callback.
 179:Drivers/STM32F4xx_HAL_Driver/Src/stm32f4xx_hal_can.c ****     (+) RxFifo1MsgPendingCallback    : Rx Fifo 1 Message Pending Callback.
 180:Drivers/STM32F4xx_HAL_Driver/Src/stm32f4xx_hal_can.c ****     (+) RxFifo1FullCallback          : Rx Fifo 1 Full Callback.
 181:Drivers/STM32F4xx_HAL_Driver/Src/stm32f4xx_hal_can.c ****     (+) SleepCallback                : Sleep Callback.
 182:Drivers/STM32F4xx_HAL_Driver/Src/stm32f4xx_hal_can.c ****     (+) WakeUpFromRxMsgCallback      : Wake Up From Rx Message Callback.
 183:Drivers/STM32F4xx_HAL_Driver/Src/stm32f4xx_hal_can.c ****     (+) ErrorCallback                : Error Callback.
 184:Drivers/STM32F4xx_HAL_Driver/Src/stm32f4xx_hal_can.c ****     (+) MspInitCallback              : CAN MspInit.
 185:Drivers/STM32F4xx_HAL_Driver/Src/stm32f4xx_hal_can.c ****     (+) MspDeInitCallback            : CAN MspDeInit.
 186:Drivers/STM32F4xx_HAL_Driver/Src/stm32f4xx_hal_can.c **** 
 187:Drivers/STM32F4xx_HAL_Driver/Src/stm32f4xx_hal_can.c ****   By default, after the HAL_CAN_Init() and when the state is HAL_CAN_STATE_RESET,
 188:Drivers/STM32F4xx_HAL_Driver/Src/stm32f4xx_hal_can.c ****   all callbacks are set to the corresponding weak functions:
 189:Drivers/STM32F4xx_HAL_Driver/Src/stm32f4xx_hal_can.c ****   example HAL_CAN_ErrorCallback().
 190:Drivers/STM32F4xx_HAL_Driver/Src/stm32f4xx_hal_can.c ****   Exception done for MspInit and MspDeInit functions that are
 191:Drivers/STM32F4xx_HAL_Driver/Src/stm32f4xx_hal_can.c ****   reset to the legacy weak function in the HAL_CAN_Init()/ HAL_CAN_DeInit() only when
 192:Drivers/STM32F4xx_HAL_Driver/Src/stm32f4xx_hal_can.c ****   these callbacks are null (not registered beforehand).
 193:Drivers/STM32F4xx_HAL_Driver/Src/stm32f4xx_hal_can.c ****   if not, MspInit or MspDeInit are not null, the HAL_CAN_Init()/ HAL_CAN_DeInit()
 194:Drivers/STM32F4xx_HAL_Driver/Src/stm32f4xx_hal_can.c ****   keep and use the user MspInit/MspDeInit callbacks (registered beforehand)
 195:Drivers/STM32F4xx_HAL_Driver/Src/stm32f4xx_hal_can.c **** 
 196:Drivers/STM32F4xx_HAL_Driver/Src/stm32f4xx_hal_can.c ****   Callbacks can be registered/unregistered in HAL_CAN_STATE_READY state only.
 197:Drivers/STM32F4xx_HAL_Driver/Src/stm32f4xx_hal_can.c ****   Exception done MspInit/MspDeInit that can be registered/unregistered
 198:Drivers/STM32F4xx_HAL_Driver/Src/stm32f4xx_hal_can.c ****   in HAL_CAN_STATE_READY or HAL_CAN_STATE_RESET state,
 199:Drivers/STM32F4xx_HAL_Driver/Src/stm32f4xx_hal_can.c ****   thus registered (user) MspInit/DeInit callbacks can be used during the Init/DeInit.
 200:Drivers/STM32F4xx_HAL_Driver/Src/stm32f4xx_hal_can.c ****   In that case first register the MspInit/MspDeInit user callbacks
ARM GAS  /tmp/cc6hBWA9.s 			page 5


 201:Drivers/STM32F4xx_HAL_Driver/Src/stm32f4xx_hal_can.c ****   using HAL_CAN_RegisterCallback() before calling HAL_CAN_DeInit()
 202:Drivers/STM32F4xx_HAL_Driver/Src/stm32f4xx_hal_can.c ****   or HAL_CAN_Init() function.
 203:Drivers/STM32F4xx_HAL_Driver/Src/stm32f4xx_hal_can.c **** 
 204:Drivers/STM32F4xx_HAL_Driver/Src/stm32f4xx_hal_can.c ****   When The compilation define USE_HAL_CAN_REGISTER_CALLBACKS is set to 0 or
 205:Drivers/STM32F4xx_HAL_Driver/Src/stm32f4xx_hal_can.c ****   not defined, the callback registration feature is not available and all callbacks
 206:Drivers/STM32F4xx_HAL_Driver/Src/stm32f4xx_hal_can.c ****   are set to the corresponding weak functions.
 207:Drivers/STM32F4xx_HAL_Driver/Src/stm32f4xx_hal_can.c **** 
 208:Drivers/STM32F4xx_HAL_Driver/Src/stm32f4xx_hal_can.c ****   @endverbatim
 209:Drivers/STM32F4xx_HAL_Driver/Src/stm32f4xx_hal_can.c ****   ******************************************************************************
 210:Drivers/STM32F4xx_HAL_Driver/Src/stm32f4xx_hal_can.c ****   */
 211:Drivers/STM32F4xx_HAL_Driver/Src/stm32f4xx_hal_can.c **** 
 212:Drivers/STM32F4xx_HAL_Driver/Src/stm32f4xx_hal_can.c **** /* Includes ------------------------------------------------------------------*/
 213:Drivers/STM32F4xx_HAL_Driver/Src/stm32f4xx_hal_can.c **** #include "stm32f4xx_hal.h"
 214:Drivers/STM32F4xx_HAL_Driver/Src/stm32f4xx_hal_can.c **** 
 215:Drivers/STM32F4xx_HAL_Driver/Src/stm32f4xx_hal_can.c **** /** @addtogroup STM32F4xx_HAL_Driver
 216:Drivers/STM32F4xx_HAL_Driver/Src/stm32f4xx_hal_can.c ****   * @{
 217:Drivers/STM32F4xx_HAL_Driver/Src/stm32f4xx_hal_can.c ****   */
 218:Drivers/STM32F4xx_HAL_Driver/Src/stm32f4xx_hal_can.c **** 
 219:Drivers/STM32F4xx_HAL_Driver/Src/stm32f4xx_hal_can.c **** #if defined(CAN1)
 220:Drivers/STM32F4xx_HAL_Driver/Src/stm32f4xx_hal_can.c **** 
 221:Drivers/STM32F4xx_HAL_Driver/Src/stm32f4xx_hal_can.c **** /** @defgroup CAN CAN
 222:Drivers/STM32F4xx_HAL_Driver/Src/stm32f4xx_hal_can.c ****   * @brief CAN driver modules
 223:Drivers/STM32F4xx_HAL_Driver/Src/stm32f4xx_hal_can.c ****   * @{
 224:Drivers/STM32F4xx_HAL_Driver/Src/stm32f4xx_hal_can.c ****   */
 225:Drivers/STM32F4xx_HAL_Driver/Src/stm32f4xx_hal_can.c **** 
 226:Drivers/STM32F4xx_HAL_Driver/Src/stm32f4xx_hal_can.c **** #ifdef HAL_CAN_MODULE_ENABLED
 227:Drivers/STM32F4xx_HAL_Driver/Src/stm32f4xx_hal_can.c **** 
 228:Drivers/STM32F4xx_HAL_Driver/Src/stm32f4xx_hal_can.c **** #ifdef HAL_CAN_LEGACY_MODULE_ENABLED
 229:Drivers/STM32F4xx_HAL_Driver/Src/stm32f4xx_hal_can.c **** #error "The CAN driver cannot be used with its legacy, Please enable only one CAN module at once"
 230:Drivers/STM32F4xx_HAL_Driver/Src/stm32f4xx_hal_can.c **** #endif /* HAL_CAN_LEGACY_MODULE_ENABLED */
 231:Drivers/STM32F4xx_HAL_Driver/Src/stm32f4xx_hal_can.c **** 
 232:Drivers/STM32F4xx_HAL_Driver/Src/stm32f4xx_hal_can.c **** /* Private typedef -----------------------------------------------------------*/
 233:Drivers/STM32F4xx_HAL_Driver/Src/stm32f4xx_hal_can.c **** /* Private define ------------------------------------------------------------*/
 234:Drivers/STM32F4xx_HAL_Driver/Src/stm32f4xx_hal_can.c **** /** @defgroup CAN_Private_Constants CAN Private Constants
 235:Drivers/STM32F4xx_HAL_Driver/Src/stm32f4xx_hal_can.c ****   * @{
 236:Drivers/STM32F4xx_HAL_Driver/Src/stm32f4xx_hal_can.c ****   */
 237:Drivers/STM32F4xx_HAL_Driver/Src/stm32f4xx_hal_can.c **** #define CAN_TIMEOUT_VALUE 10U
 238:Drivers/STM32F4xx_HAL_Driver/Src/stm32f4xx_hal_can.c **** #define CAN_WAKEUP_TIMEOUT_COUNTER 1000000U
 239:Drivers/STM32F4xx_HAL_Driver/Src/stm32f4xx_hal_can.c **** /**
 240:Drivers/STM32F4xx_HAL_Driver/Src/stm32f4xx_hal_can.c ****   * @}
 241:Drivers/STM32F4xx_HAL_Driver/Src/stm32f4xx_hal_can.c ****   */
 242:Drivers/STM32F4xx_HAL_Driver/Src/stm32f4xx_hal_can.c **** /* Private macro -------------------------------------------------------------*/
 243:Drivers/STM32F4xx_HAL_Driver/Src/stm32f4xx_hal_can.c **** /* Private variables ---------------------------------------------------------*/
 244:Drivers/STM32F4xx_HAL_Driver/Src/stm32f4xx_hal_can.c **** /* Private function prototypes -----------------------------------------------*/
 245:Drivers/STM32F4xx_HAL_Driver/Src/stm32f4xx_hal_can.c **** /* Exported functions --------------------------------------------------------*/
 246:Drivers/STM32F4xx_HAL_Driver/Src/stm32f4xx_hal_can.c **** 
 247:Drivers/STM32F4xx_HAL_Driver/Src/stm32f4xx_hal_can.c **** /** @defgroup CAN_Exported_Functions CAN Exported Functions
 248:Drivers/STM32F4xx_HAL_Driver/Src/stm32f4xx_hal_can.c ****   * @{
 249:Drivers/STM32F4xx_HAL_Driver/Src/stm32f4xx_hal_can.c ****   */
 250:Drivers/STM32F4xx_HAL_Driver/Src/stm32f4xx_hal_can.c **** 
 251:Drivers/STM32F4xx_HAL_Driver/Src/stm32f4xx_hal_can.c **** /** @defgroup CAN_Exported_Functions_Group1 Initialization and de-initialization functions
 252:Drivers/STM32F4xx_HAL_Driver/Src/stm32f4xx_hal_can.c ****   * @brief    Initialization and Configuration functions
 253:Drivers/STM32F4xx_HAL_Driver/Src/stm32f4xx_hal_can.c ****   *
 254:Drivers/STM32F4xx_HAL_Driver/Src/stm32f4xx_hal_can.c **** @verbatim
 255:Drivers/STM32F4xx_HAL_Driver/Src/stm32f4xx_hal_can.c ****   ==============================================================================
 256:Drivers/STM32F4xx_HAL_Driver/Src/stm32f4xx_hal_can.c ****               ##### Initialization and de-initialization functions #####
 257:Drivers/STM32F4xx_HAL_Driver/Src/stm32f4xx_hal_can.c ****   ==============================================================================
ARM GAS  /tmp/cc6hBWA9.s 			page 6


 258:Drivers/STM32F4xx_HAL_Driver/Src/stm32f4xx_hal_can.c ****     [..]  This section provides functions allowing to:
 259:Drivers/STM32F4xx_HAL_Driver/Src/stm32f4xx_hal_can.c ****       (+) HAL_CAN_Init                       : Initialize and configure the CAN.
 260:Drivers/STM32F4xx_HAL_Driver/Src/stm32f4xx_hal_can.c ****       (+) HAL_CAN_DeInit                     : De-initialize the CAN.
 261:Drivers/STM32F4xx_HAL_Driver/Src/stm32f4xx_hal_can.c ****       (+) HAL_CAN_MspInit                    : Initialize the CAN MSP.
 262:Drivers/STM32F4xx_HAL_Driver/Src/stm32f4xx_hal_can.c ****       (+) HAL_CAN_MspDeInit                  : DeInitialize the CAN MSP.
 263:Drivers/STM32F4xx_HAL_Driver/Src/stm32f4xx_hal_can.c **** 
 264:Drivers/STM32F4xx_HAL_Driver/Src/stm32f4xx_hal_can.c **** @endverbatim
 265:Drivers/STM32F4xx_HAL_Driver/Src/stm32f4xx_hal_can.c ****   * @{
 266:Drivers/STM32F4xx_HAL_Driver/Src/stm32f4xx_hal_can.c ****   */
 267:Drivers/STM32F4xx_HAL_Driver/Src/stm32f4xx_hal_can.c **** 
 268:Drivers/STM32F4xx_HAL_Driver/Src/stm32f4xx_hal_can.c **** /**
 269:Drivers/STM32F4xx_HAL_Driver/Src/stm32f4xx_hal_can.c ****   * @brief  Initializes the CAN peripheral according to the specified
 270:Drivers/STM32F4xx_HAL_Driver/Src/stm32f4xx_hal_can.c ****   *         parameters in the CAN_InitStruct.
 271:Drivers/STM32F4xx_HAL_Driver/Src/stm32f4xx_hal_can.c ****   * @param  hcan pointer to a CAN_HandleTypeDef structure that contains
 272:Drivers/STM32F4xx_HAL_Driver/Src/stm32f4xx_hal_can.c ****   *         the configuration information for the specified CAN.
 273:Drivers/STM32F4xx_HAL_Driver/Src/stm32f4xx_hal_can.c ****   * @retval HAL status
 274:Drivers/STM32F4xx_HAL_Driver/Src/stm32f4xx_hal_can.c ****   */
 275:Drivers/STM32F4xx_HAL_Driver/Src/stm32f4xx_hal_can.c **** HAL_StatusTypeDef HAL_CAN_Init(CAN_HandleTypeDef *hcan)
 276:Drivers/STM32F4xx_HAL_Driver/Src/stm32f4xx_hal_can.c **** {
 277:Drivers/STM32F4xx_HAL_Driver/Src/stm32f4xx_hal_can.c ****   uint32_t tickstart;
 278:Drivers/STM32F4xx_HAL_Driver/Src/stm32f4xx_hal_can.c **** 
 279:Drivers/STM32F4xx_HAL_Driver/Src/stm32f4xx_hal_can.c ****   /* Check CAN handle */
 280:Drivers/STM32F4xx_HAL_Driver/Src/stm32f4xx_hal_can.c ****   if (hcan == NULL)
 281:Drivers/STM32F4xx_HAL_Driver/Src/stm32f4xx_hal_can.c ****   {
 282:Drivers/STM32F4xx_HAL_Driver/Src/stm32f4xx_hal_can.c ****     return HAL_ERROR;
 283:Drivers/STM32F4xx_HAL_Driver/Src/stm32f4xx_hal_can.c ****   }
 284:Drivers/STM32F4xx_HAL_Driver/Src/stm32f4xx_hal_can.c **** 
 285:Drivers/STM32F4xx_HAL_Driver/Src/stm32f4xx_hal_can.c ****   /* Check the parameters */
 286:Drivers/STM32F4xx_HAL_Driver/Src/stm32f4xx_hal_can.c ****   assert_param(IS_CAN_ALL_INSTANCE(hcan->Instance));
 287:Drivers/STM32F4xx_HAL_Driver/Src/stm32f4xx_hal_can.c ****   assert_param(IS_FUNCTIONAL_STATE(hcan->Init.TimeTriggeredMode));
 288:Drivers/STM32F4xx_HAL_Driver/Src/stm32f4xx_hal_can.c ****   assert_param(IS_FUNCTIONAL_STATE(hcan->Init.AutoBusOff));
 289:Drivers/STM32F4xx_HAL_Driver/Src/stm32f4xx_hal_can.c ****   assert_param(IS_FUNCTIONAL_STATE(hcan->Init.AutoWakeUp));
 290:Drivers/STM32F4xx_HAL_Driver/Src/stm32f4xx_hal_can.c ****   assert_param(IS_FUNCTIONAL_STATE(hcan->Init.AutoRetransmission));
 291:Drivers/STM32F4xx_HAL_Driver/Src/stm32f4xx_hal_can.c ****   assert_param(IS_FUNCTIONAL_STATE(hcan->Init.ReceiveFifoLocked));
 292:Drivers/STM32F4xx_HAL_Driver/Src/stm32f4xx_hal_can.c ****   assert_param(IS_FUNCTIONAL_STATE(hcan->Init.TransmitFifoPriority));
 293:Drivers/STM32F4xx_HAL_Driver/Src/stm32f4xx_hal_can.c ****   assert_param(IS_CAN_MODE(hcan->Init.Mode));
 294:Drivers/STM32F4xx_HAL_Driver/Src/stm32f4xx_hal_can.c ****   assert_param(IS_CAN_SJW(hcan->Init.SyncJumpWidth));
 295:Drivers/STM32F4xx_HAL_Driver/Src/stm32f4xx_hal_can.c ****   assert_param(IS_CAN_BS1(hcan->Init.TimeSeg1));
 296:Drivers/STM32F4xx_HAL_Driver/Src/stm32f4xx_hal_can.c ****   assert_param(IS_CAN_BS2(hcan->Init.TimeSeg2));
 297:Drivers/STM32F4xx_HAL_Driver/Src/stm32f4xx_hal_can.c ****   assert_param(IS_CAN_PRESCALER(hcan->Init.Prescaler));
 298:Drivers/STM32F4xx_HAL_Driver/Src/stm32f4xx_hal_can.c **** 
 299:Drivers/STM32F4xx_HAL_Driver/Src/stm32f4xx_hal_can.c **** #if USE_HAL_CAN_REGISTER_CALLBACKS == 1
 300:Drivers/STM32F4xx_HAL_Driver/Src/stm32f4xx_hal_can.c ****   if (hcan->State == HAL_CAN_STATE_RESET)
 301:Drivers/STM32F4xx_HAL_Driver/Src/stm32f4xx_hal_can.c ****   {
 302:Drivers/STM32F4xx_HAL_Driver/Src/stm32f4xx_hal_can.c ****     /* Reset callbacks to legacy functions */
 303:Drivers/STM32F4xx_HAL_Driver/Src/stm32f4xx_hal_can.c ****     hcan->RxFifo0MsgPendingCallback  =  HAL_CAN_RxFifo0MsgPendingCallback;  /* Legacy weak RxFifo0M
 304:Drivers/STM32F4xx_HAL_Driver/Src/stm32f4xx_hal_can.c ****     hcan->RxFifo0FullCallback        =  HAL_CAN_RxFifo0FullCallback;        /* Legacy weak RxFifo0F
 305:Drivers/STM32F4xx_HAL_Driver/Src/stm32f4xx_hal_can.c ****     hcan->RxFifo1MsgPendingCallback  =  HAL_CAN_RxFifo1MsgPendingCallback;  /* Legacy weak RxFifo1M
 306:Drivers/STM32F4xx_HAL_Driver/Src/stm32f4xx_hal_can.c ****     hcan->RxFifo1FullCallback        =  HAL_CAN_RxFifo1FullCallback;        /* Legacy weak RxFifo1F
 307:Drivers/STM32F4xx_HAL_Driver/Src/stm32f4xx_hal_can.c ****     hcan->TxMailbox0CompleteCallback =  HAL_CAN_TxMailbox0CompleteCallback; /* Legacy weak TxMailbo
 308:Drivers/STM32F4xx_HAL_Driver/Src/stm32f4xx_hal_can.c ****     hcan->TxMailbox1CompleteCallback =  HAL_CAN_TxMailbox1CompleteCallback; /* Legacy weak TxMailbo
 309:Drivers/STM32F4xx_HAL_Driver/Src/stm32f4xx_hal_can.c ****     hcan->TxMailbox2CompleteCallback =  HAL_CAN_TxMailbox2CompleteCallback; /* Legacy weak TxMailbo
 310:Drivers/STM32F4xx_HAL_Driver/Src/stm32f4xx_hal_can.c ****     hcan->TxMailbox0AbortCallback    =  HAL_CAN_TxMailbox0AbortCallback;    /* Legacy weak TxMailbo
 311:Drivers/STM32F4xx_HAL_Driver/Src/stm32f4xx_hal_can.c ****     hcan->TxMailbox1AbortCallback    =  HAL_CAN_TxMailbox1AbortCallback;    /* Legacy weak TxMailbo
 312:Drivers/STM32F4xx_HAL_Driver/Src/stm32f4xx_hal_can.c ****     hcan->TxMailbox2AbortCallback    =  HAL_CAN_TxMailbox2AbortCallback;    /* Legacy weak TxMailbo
 313:Drivers/STM32F4xx_HAL_Driver/Src/stm32f4xx_hal_can.c ****     hcan->SleepCallback              =  HAL_CAN_SleepCallback;              /* Legacy weak SleepCal
 314:Drivers/STM32F4xx_HAL_Driver/Src/stm32f4xx_hal_can.c ****     hcan->WakeUpFromRxMsgCallback    =  HAL_CAN_WakeUpFromRxMsgCallback;    /* Legacy weak WakeUpFr
ARM GAS  /tmp/cc6hBWA9.s 			page 7


 315:Drivers/STM32F4xx_HAL_Driver/Src/stm32f4xx_hal_can.c ****     hcan->ErrorCallback              =  HAL_CAN_ErrorCallback;              /* Legacy weak ErrorCal
 316:Drivers/STM32F4xx_HAL_Driver/Src/stm32f4xx_hal_can.c **** 
 317:Drivers/STM32F4xx_HAL_Driver/Src/stm32f4xx_hal_can.c ****     if (hcan->MspInitCallback == NULL)
 318:Drivers/STM32F4xx_HAL_Driver/Src/stm32f4xx_hal_can.c ****     {
 319:Drivers/STM32F4xx_HAL_Driver/Src/stm32f4xx_hal_can.c ****       hcan->MspInitCallback = HAL_CAN_MspInit; /* Legacy weak MspInit */
 320:Drivers/STM32F4xx_HAL_Driver/Src/stm32f4xx_hal_can.c ****     }
 321:Drivers/STM32F4xx_HAL_Driver/Src/stm32f4xx_hal_can.c **** 
 322:Drivers/STM32F4xx_HAL_Driver/Src/stm32f4xx_hal_can.c ****     /* Init the low level hardware: CLOCK, NVIC */
 323:Drivers/STM32F4xx_HAL_Driver/Src/stm32f4xx_hal_can.c ****     hcan->MspInitCallback(hcan);
 324:Drivers/STM32F4xx_HAL_Driver/Src/stm32f4xx_hal_can.c ****   }
 325:Drivers/STM32F4xx_HAL_Driver/Src/stm32f4xx_hal_can.c **** 
 326:Drivers/STM32F4xx_HAL_Driver/Src/stm32f4xx_hal_can.c **** #else
 327:Drivers/STM32F4xx_HAL_Driver/Src/stm32f4xx_hal_can.c ****   if (hcan->State == HAL_CAN_STATE_RESET)
 328:Drivers/STM32F4xx_HAL_Driver/Src/stm32f4xx_hal_can.c ****   {
 329:Drivers/STM32F4xx_HAL_Driver/Src/stm32f4xx_hal_can.c ****     /* Init the low level hardware: CLOCK, NVIC */
 330:Drivers/STM32F4xx_HAL_Driver/Src/stm32f4xx_hal_can.c ****     HAL_CAN_MspInit(hcan);
 331:Drivers/STM32F4xx_HAL_Driver/Src/stm32f4xx_hal_can.c ****   }
 332:Drivers/STM32F4xx_HAL_Driver/Src/stm32f4xx_hal_can.c **** #endif /* USE_HAL_CAN_REGISTER_CALLBACKS */
 333:Drivers/STM32F4xx_HAL_Driver/Src/stm32f4xx_hal_can.c **** 
 334:Drivers/STM32F4xx_HAL_Driver/Src/stm32f4xx_hal_can.c ****   /* Request initialisation */
 335:Drivers/STM32F4xx_HAL_Driver/Src/stm32f4xx_hal_can.c ****   SET_BIT(hcan->Instance->MCR, CAN_MCR_INRQ);
 336:Drivers/STM32F4xx_HAL_Driver/Src/stm32f4xx_hal_can.c **** 
 337:Drivers/STM32F4xx_HAL_Driver/Src/stm32f4xx_hal_can.c ****   /* Get tick */
 338:Drivers/STM32F4xx_HAL_Driver/Src/stm32f4xx_hal_can.c ****   tickstart = HAL_GetTick();
 339:Drivers/STM32F4xx_HAL_Driver/Src/stm32f4xx_hal_can.c **** 
 340:Drivers/STM32F4xx_HAL_Driver/Src/stm32f4xx_hal_can.c ****   /* Wait initialisation acknowledge */
 341:Drivers/STM32F4xx_HAL_Driver/Src/stm32f4xx_hal_can.c ****   while ((hcan->Instance->MSR & CAN_MSR_INAK) == 0U)
 342:Drivers/STM32F4xx_HAL_Driver/Src/stm32f4xx_hal_can.c ****   {
 343:Drivers/STM32F4xx_HAL_Driver/Src/stm32f4xx_hal_can.c ****     if ((HAL_GetTick() - tickstart) > CAN_TIMEOUT_VALUE)
 344:Drivers/STM32F4xx_HAL_Driver/Src/stm32f4xx_hal_can.c ****     {
 345:Drivers/STM32F4xx_HAL_Driver/Src/stm32f4xx_hal_can.c ****       /* Update error code */
 346:Drivers/STM32F4xx_HAL_Driver/Src/stm32f4xx_hal_can.c ****       hcan->ErrorCode |= HAL_CAN_ERROR_TIMEOUT;
 347:Drivers/STM32F4xx_HAL_Driver/Src/stm32f4xx_hal_can.c **** 
 348:Drivers/STM32F4xx_HAL_Driver/Src/stm32f4xx_hal_can.c ****       /* Change CAN state */
 349:Drivers/STM32F4xx_HAL_Driver/Src/stm32f4xx_hal_can.c ****       hcan->State = HAL_CAN_STATE_ERROR;
 350:Drivers/STM32F4xx_HAL_Driver/Src/stm32f4xx_hal_can.c **** 
 351:Drivers/STM32F4xx_HAL_Driver/Src/stm32f4xx_hal_can.c ****       return HAL_ERROR;
 352:Drivers/STM32F4xx_HAL_Driver/Src/stm32f4xx_hal_can.c ****     }
 353:Drivers/STM32F4xx_HAL_Driver/Src/stm32f4xx_hal_can.c ****   }
 354:Drivers/STM32F4xx_HAL_Driver/Src/stm32f4xx_hal_can.c **** 
 355:Drivers/STM32F4xx_HAL_Driver/Src/stm32f4xx_hal_can.c ****   /* Exit from sleep mode */
 356:Drivers/STM32F4xx_HAL_Driver/Src/stm32f4xx_hal_can.c ****   CLEAR_BIT(hcan->Instance->MCR, CAN_MCR_SLEEP);
 357:Drivers/STM32F4xx_HAL_Driver/Src/stm32f4xx_hal_can.c **** 
 358:Drivers/STM32F4xx_HAL_Driver/Src/stm32f4xx_hal_can.c ****   /* Get tick */
 359:Drivers/STM32F4xx_HAL_Driver/Src/stm32f4xx_hal_can.c ****   tickstart = HAL_GetTick();
 360:Drivers/STM32F4xx_HAL_Driver/Src/stm32f4xx_hal_can.c **** 
 361:Drivers/STM32F4xx_HAL_Driver/Src/stm32f4xx_hal_can.c ****   /* Check Sleep mode leave acknowledge */
 362:Drivers/STM32F4xx_HAL_Driver/Src/stm32f4xx_hal_can.c ****   while ((hcan->Instance->MSR & CAN_MSR_SLAK) != 0U)
 363:Drivers/STM32F4xx_HAL_Driver/Src/stm32f4xx_hal_can.c ****   {
 364:Drivers/STM32F4xx_HAL_Driver/Src/stm32f4xx_hal_can.c ****     if ((HAL_GetTick() - tickstart) > CAN_TIMEOUT_VALUE)
 365:Drivers/STM32F4xx_HAL_Driver/Src/stm32f4xx_hal_can.c ****     {
 366:Drivers/STM32F4xx_HAL_Driver/Src/stm32f4xx_hal_can.c ****       /* Update error code */
 367:Drivers/STM32F4xx_HAL_Driver/Src/stm32f4xx_hal_can.c ****       hcan->ErrorCode |= HAL_CAN_ERROR_TIMEOUT;
 368:Drivers/STM32F4xx_HAL_Driver/Src/stm32f4xx_hal_can.c **** 
 369:Drivers/STM32F4xx_HAL_Driver/Src/stm32f4xx_hal_can.c ****       /* Change CAN state */
 370:Drivers/STM32F4xx_HAL_Driver/Src/stm32f4xx_hal_can.c ****       hcan->State = HAL_CAN_STATE_ERROR;
 371:Drivers/STM32F4xx_HAL_Driver/Src/stm32f4xx_hal_can.c **** 
ARM GAS  /tmp/cc6hBWA9.s 			page 8


 372:Drivers/STM32F4xx_HAL_Driver/Src/stm32f4xx_hal_can.c ****       return HAL_ERROR;
 373:Drivers/STM32F4xx_HAL_Driver/Src/stm32f4xx_hal_can.c ****     }
 374:Drivers/STM32F4xx_HAL_Driver/Src/stm32f4xx_hal_can.c ****   }
 375:Drivers/STM32F4xx_HAL_Driver/Src/stm32f4xx_hal_can.c **** 
 376:Drivers/STM32F4xx_HAL_Driver/Src/stm32f4xx_hal_can.c ****   /* Set the time triggered communication mode */
 377:Drivers/STM32F4xx_HAL_Driver/Src/stm32f4xx_hal_can.c ****   if (hcan->Init.TimeTriggeredMode == ENABLE)
 378:Drivers/STM32F4xx_HAL_Driver/Src/stm32f4xx_hal_can.c ****   {
 379:Drivers/STM32F4xx_HAL_Driver/Src/stm32f4xx_hal_can.c ****     SET_BIT(hcan->Instance->MCR, CAN_MCR_TTCM);
 380:Drivers/STM32F4xx_HAL_Driver/Src/stm32f4xx_hal_can.c ****   }
 381:Drivers/STM32F4xx_HAL_Driver/Src/stm32f4xx_hal_can.c ****   else
 382:Drivers/STM32F4xx_HAL_Driver/Src/stm32f4xx_hal_can.c ****   {
 383:Drivers/STM32F4xx_HAL_Driver/Src/stm32f4xx_hal_can.c ****     CLEAR_BIT(hcan->Instance->MCR, CAN_MCR_TTCM);
 384:Drivers/STM32F4xx_HAL_Driver/Src/stm32f4xx_hal_can.c ****   }
 385:Drivers/STM32F4xx_HAL_Driver/Src/stm32f4xx_hal_can.c **** 
 386:Drivers/STM32F4xx_HAL_Driver/Src/stm32f4xx_hal_can.c ****   /* Set the automatic bus-off management */
 387:Drivers/STM32F4xx_HAL_Driver/Src/stm32f4xx_hal_can.c ****   if (hcan->Init.AutoBusOff == ENABLE)
 388:Drivers/STM32F4xx_HAL_Driver/Src/stm32f4xx_hal_can.c ****   {
 389:Drivers/STM32F4xx_HAL_Driver/Src/stm32f4xx_hal_can.c ****     SET_BIT(hcan->Instance->MCR, CAN_MCR_ABOM);
 390:Drivers/STM32F4xx_HAL_Driver/Src/stm32f4xx_hal_can.c ****   }
 391:Drivers/STM32F4xx_HAL_Driver/Src/stm32f4xx_hal_can.c ****   else
 392:Drivers/STM32F4xx_HAL_Driver/Src/stm32f4xx_hal_can.c ****   {
 393:Drivers/STM32F4xx_HAL_Driver/Src/stm32f4xx_hal_can.c ****     CLEAR_BIT(hcan->Instance->MCR, CAN_MCR_ABOM);
 394:Drivers/STM32F4xx_HAL_Driver/Src/stm32f4xx_hal_can.c ****   }
 395:Drivers/STM32F4xx_HAL_Driver/Src/stm32f4xx_hal_can.c **** 
 396:Drivers/STM32F4xx_HAL_Driver/Src/stm32f4xx_hal_can.c ****   /* Set the automatic wake-up mode */
 397:Drivers/STM32F4xx_HAL_Driver/Src/stm32f4xx_hal_can.c ****   if (hcan->Init.AutoWakeUp == ENABLE)
 398:Drivers/STM32F4xx_HAL_Driver/Src/stm32f4xx_hal_can.c ****   {
 399:Drivers/STM32F4xx_HAL_Driver/Src/stm32f4xx_hal_can.c ****     SET_BIT(hcan->Instance->MCR, CAN_MCR_AWUM);
 400:Drivers/STM32F4xx_HAL_Driver/Src/stm32f4xx_hal_can.c ****   }
 401:Drivers/STM32F4xx_HAL_Driver/Src/stm32f4xx_hal_can.c ****   else
 402:Drivers/STM32F4xx_HAL_Driver/Src/stm32f4xx_hal_can.c ****   {
 403:Drivers/STM32F4xx_HAL_Driver/Src/stm32f4xx_hal_can.c ****     CLEAR_BIT(hcan->Instance->MCR, CAN_MCR_AWUM);
 404:Drivers/STM32F4xx_HAL_Driver/Src/stm32f4xx_hal_can.c ****   }
 405:Drivers/STM32F4xx_HAL_Driver/Src/stm32f4xx_hal_can.c **** 
 406:Drivers/STM32F4xx_HAL_Driver/Src/stm32f4xx_hal_can.c ****   /* Set the automatic retransmission */
 407:Drivers/STM32F4xx_HAL_Driver/Src/stm32f4xx_hal_can.c ****   if (hcan->Init.AutoRetransmission == ENABLE)
 408:Drivers/STM32F4xx_HAL_Driver/Src/stm32f4xx_hal_can.c ****   {
 409:Drivers/STM32F4xx_HAL_Driver/Src/stm32f4xx_hal_can.c ****     CLEAR_BIT(hcan->Instance->MCR, CAN_MCR_NART);
 410:Drivers/STM32F4xx_HAL_Driver/Src/stm32f4xx_hal_can.c ****   }
 411:Drivers/STM32F4xx_HAL_Driver/Src/stm32f4xx_hal_can.c ****   else
 412:Drivers/STM32F4xx_HAL_Driver/Src/stm32f4xx_hal_can.c ****   {
 413:Drivers/STM32F4xx_HAL_Driver/Src/stm32f4xx_hal_can.c ****     SET_BIT(hcan->Instance->MCR, CAN_MCR_NART);
 414:Drivers/STM32F4xx_HAL_Driver/Src/stm32f4xx_hal_can.c ****   }
 415:Drivers/STM32F4xx_HAL_Driver/Src/stm32f4xx_hal_can.c **** 
 416:Drivers/STM32F4xx_HAL_Driver/Src/stm32f4xx_hal_can.c ****   /* Set the receive FIFO locked mode */
 417:Drivers/STM32F4xx_HAL_Driver/Src/stm32f4xx_hal_can.c ****   if (hcan->Init.ReceiveFifoLocked == ENABLE)
 418:Drivers/STM32F4xx_HAL_Driver/Src/stm32f4xx_hal_can.c ****   {
 419:Drivers/STM32F4xx_HAL_Driver/Src/stm32f4xx_hal_can.c ****     SET_BIT(hcan->Instance->MCR, CAN_MCR_RFLM);
 420:Drivers/STM32F4xx_HAL_Driver/Src/stm32f4xx_hal_can.c ****   }
 421:Drivers/STM32F4xx_HAL_Driver/Src/stm32f4xx_hal_can.c ****   else
 422:Drivers/STM32F4xx_HAL_Driver/Src/stm32f4xx_hal_can.c ****   {
 423:Drivers/STM32F4xx_HAL_Driver/Src/stm32f4xx_hal_can.c ****     CLEAR_BIT(hcan->Instance->MCR, CAN_MCR_RFLM);
 424:Drivers/STM32F4xx_HAL_Driver/Src/stm32f4xx_hal_can.c ****   }
 425:Drivers/STM32F4xx_HAL_Driver/Src/stm32f4xx_hal_can.c **** 
 426:Drivers/STM32F4xx_HAL_Driver/Src/stm32f4xx_hal_can.c ****   /* Set the transmit FIFO priority */
 427:Drivers/STM32F4xx_HAL_Driver/Src/stm32f4xx_hal_can.c ****   if (hcan->Init.TransmitFifoPriority == ENABLE)
 428:Drivers/STM32F4xx_HAL_Driver/Src/stm32f4xx_hal_can.c ****   {
ARM GAS  /tmp/cc6hBWA9.s 			page 9


 429:Drivers/STM32F4xx_HAL_Driver/Src/stm32f4xx_hal_can.c ****     SET_BIT(hcan->Instance->MCR, CAN_MCR_TXFP);
 430:Drivers/STM32F4xx_HAL_Driver/Src/stm32f4xx_hal_can.c ****   }
 431:Drivers/STM32F4xx_HAL_Driver/Src/stm32f4xx_hal_can.c ****   else
 432:Drivers/STM32F4xx_HAL_Driver/Src/stm32f4xx_hal_can.c ****   {
 433:Drivers/STM32F4xx_HAL_Driver/Src/stm32f4xx_hal_can.c ****     CLEAR_BIT(hcan->Instance->MCR, CAN_MCR_TXFP);
 434:Drivers/STM32F4xx_HAL_Driver/Src/stm32f4xx_hal_can.c ****   }
 435:Drivers/STM32F4xx_HAL_Driver/Src/stm32f4xx_hal_can.c **** 
 436:Drivers/STM32F4xx_HAL_Driver/Src/stm32f4xx_hal_can.c ****   /* Set the bit timing register */
 437:Drivers/STM32F4xx_HAL_Driver/Src/stm32f4xx_hal_can.c ****   WRITE_REG(hcan->Instance->BTR, (uint32_t)(hcan->Init.Mode           |
 438:Drivers/STM32F4xx_HAL_Driver/Src/stm32f4xx_hal_can.c ****                                             hcan->Init.SyncJumpWidth  |
 439:Drivers/STM32F4xx_HAL_Driver/Src/stm32f4xx_hal_can.c ****                                             hcan->Init.TimeSeg1       |
 440:Drivers/STM32F4xx_HAL_Driver/Src/stm32f4xx_hal_can.c ****                                             hcan->Init.TimeSeg2       |
 441:Drivers/STM32F4xx_HAL_Driver/Src/stm32f4xx_hal_can.c ****                                             (hcan->Init.Prescaler - 1U)));
 442:Drivers/STM32F4xx_HAL_Driver/Src/stm32f4xx_hal_can.c **** 
 443:Drivers/STM32F4xx_HAL_Driver/Src/stm32f4xx_hal_can.c ****   /* Initialize the error code */
 444:Drivers/STM32F4xx_HAL_Driver/Src/stm32f4xx_hal_can.c ****   hcan->ErrorCode = HAL_CAN_ERROR_NONE;
 445:Drivers/STM32F4xx_HAL_Driver/Src/stm32f4xx_hal_can.c **** 
 446:Drivers/STM32F4xx_HAL_Driver/Src/stm32f4xx_hal_can.c ****   /* Initialize the CAN state */
 447:Drivers/STM32F4xx_HAL_Driver/Src/stm32f4xx_hal_can.c ****   hcan->State = HAL_CAN_STATE_READY;
 448:Drivers/STM32F4xx_HAL_Driver/Src/stm32f4xx_hal_can.c **** 
 449:Drivers/STM32F4xx_HAL_Driver/Src/stm32f4xx_hal_can.c ****   /* Return function status */
 450:Drivers/STM32F4xx_HAL_Driver/Src/stm32f4xx_hal_can.c ****   return HAL_OK;
 451:Drivers/STM32F4xx_HAL_Driver/Src/stm32f4xx_hal_can.c **** }
 452:Drivers/STM32F4xx_HAL_Driver/Src/stm32f4xx_hal_can.c **** 
 453:Drivers/STM32F4xx_HAL_Driver/Src/stm32f4xx_hal_can.c **** /**
 454:Drivers/STM32F4xx_HAL_Driver/Src/stm32f4xx_hal_can.c ****   * @brief  Deinitializes the CAN peripheral registers to their default
 455:Drivers/STM32F4xx_HAL_Driver/Src/stm32f4xx_hal_can.c ****   *         reset values.
 456:Drivers/STM32F4xx_HAL_Driver/Src/stm32f4xx_hal_can.c ****   * @param  hcan pointer to a CAN_HandleTypeDef structure that contains
 457:Drivers/STM32F4xx_HAL_Driver/Src/stm32f4xx_hal_can.c ****   *         the configuration information for the specified CAN.
 458:Drivers/STM32F4xx_HAL_Driver/Src/stm32f4xx_hal_can.c ****   * @retval HAL status
 459:Drivers/STM32F4xx_HAL_Driver/Src/stm32f4xx_hal_can.c ****   */
 460:Drivers/STM32F4xx_HAL_Driver/Src/stm32f4xx_hal_can.c **** HAL_StatusTypeDef HAL_CAN_DeInit(CAN_HandleTypeDef *hcan)
 461:Drivers/STM32F4xx_HAL_Driver/Src/stm32f4xx_hal_can.c **** {
 462:Drivers/STM32F4xx_HAL_Driver/Src/stm32f4xx_hal_can.c ****   /* Check CAN handle */
 463:Drivers/STM32F4xx_HAL_Driver/Src/stm32f4xx_hal_can.c ****   if (hcan == NULL)
 464:Drivers/STM32F4xx_HAL_Driver/Src/stm32f4xx_hal_can.c ****   {
 465:Drivers/STM32F4xx_HAL_Driver/Src/stm32f4xx_hal_can.c ****     return HAL_ERROR;
 466:Drivers/STM32F4xx_HAL_Driver/Src/stm32f4xx_hal_can.c ****   }
 467:Drivers/STM32F4xx_HAL_Driver/Src/stm32f4xx_hal_can.c **** 
 468:Drivers/STM32F4xx_HAL_Driver/Src/stm32f4xx_hal_can.c ****   /* Check the parameters */
 469:Drivers/STM32F4xx_HAL_Driver/Src/stm32f4xx_hal_can.c ****   assert_param(IS_CAN_ALL_INSTANCE(hcan->Instance));
 470:Drivers/STM32F4xx_HAL_Driver/Src/stm32f4xx_hal_can.c **** 
 471:Drivers/STM32F4xx_HAL_Driver/Src/stm32f4xx_hal_can.c ****   /* Stop the CAN module */
 472:Drivers/STM32F4xx_HAL_Driver/Src/stm32f4xx_hal_can.c ****   (void)HAL_CAN_Stop(hcan);
 473:Drivers/STM32F4xx_HAL_Driver/Src/stm32f4xx_hal_can.c **** 
 474:Drivers/STM32F4xx_HAL_Driver/Src/stm32f4xx_hal_can.c **** #if USE_HAL_CAN_REGISTER_CALLBACKS == 1
 475:Drivers/STM32F4xx_HAL_Driver/Src/stm32f4xx_hal_can.c ****   if (hcan->MspDeInitCallback == NULL)
 476:Drivers/STM32F4xx_HAL_Driver/Src/stm32f4xx_hal_can.c ****   {
 477:Drivers/STM32F4xx_HAL_Driver/Src/stm32f4xx_hal_can.c ****     hcan->MspDeInitCallback = HAL_CAN_MspDeInit; /* Legacy weak MspDeInit */
 478:Drivers/STM32F4xx_HAL_Driver/Src/stm32f4xx_hal_can.c ****   }
 479:Drivers/STM32F4xx_HAL_Driver/Src/stm32f4xx_hal_can.c **** 
 480:Drivers/STM32F4xx_HAL_Driver/Src/stm32f4xx_hal_can.c ****   /* DeInit the low level hardware: CLOCK, NVIC */
 481:Drivers/STM32F4xx_HAL_Driver/Src/stm32f4xx_hal_can.c ****   hcan->MspDeInitCallback(hcan);
 482:Drivers/STM32F4xx_HAL_Driver/Src/stm32f4xx_hal_can.c **** 
 483:Drivers/STM32F4xx_HAL_Driver/Src/stm32f4xx_hal_can.c **** #else
 484:Drivers/STM32F4xx_HAL_Driver/Src/stm32f4xx_hal_can.c ****   /* DeInit the low level hardware: CLOCK, NVIC */
 485:Drivers/STM32F4xx_HAL_Driver/Src/stm32f4xx_hal_can.c ****   HAL_CAN_MspDeInit(hcan);
ARM GAS  /tmp/cc6hBWA9.s 			page 10


 486:Drivers/STM32F4xx_HAL_Driver/Src/stm32f4xx_hal_can.c **** #endif /* USE_HAL_CAN_REGISTER_CALLBACKS */
 487:Drivers/STM32F4xx_HAL_Driver/Src/stm32f4xx_hal_can.c **** 
 488:Drivers/STM32F4xx_HAL_Driver/Src/stm32f4xx_hal_can.c ****   /* Reset the CAN peripheral */
 489:Drivers/STM32F4xx_HAL_Driver/Src/stm32f4xx_hal_can.c ****   SET_BIT(hcan->Instance->MCR, CAN_MCR_RESET);
 490:Drivers/STM32F4xx_HAL_Driver/Src/stm32f4xx_hal_can.c **** 
 491:Drivers/STM32F4xx_HAL_Driver/Src/stm32f4xx_hal_can.c ****   /* Reset the CAN ErrorCode */
 492:Drivers/STM32F4xx_HAL_Driver/Src/stm32f4xx_hal_can.c ****   hcan->ErrorCode = HAL_CAN_ERROR_NONE;
 493:Drivers/STM32F4xx_HAL_Driver/Src/stm32f4xx_hal_can.c **** 
 494:Drivers/STM32F4xx_HAL_Driver/Src/stm32f4xx_hal_can.c ****   /* Change CAN state */
 495:Drivers/STM32F4xx_HAL_Driver/Src/stm32f4xx_hal_can.c ****   hcan->State = HAL_CAN_STATE_RESET;
 496:Drivers/STM32F4xx_HAL_Driver/Src/stm32f4xx_hal_can.c **** 
 497:Drivers/STM32F4xx_HAL_Driver/Src/stm32f4xx_hal_can.c ****   /* Return function status */
 498:Drivers/STM32F4xx_HAL_Driver/Src/stm32f4xx_hal_can.c ****   return HAL_OK;
 499:Drivers/STM32F4xx_HAL_Driver/Src/stm32f4xx_hal_can.c **** }
 500:Drivers/STM32F4xx_HAL_Driver/Src/stm32f4xx_hal_can.c **** 
 501:Drivers/STM32F4xx_HAL_Driver/Src/stm32f4xx_hal_can.c **** /**
 502:Drivers/STM32F4xx_HAL_Driver/Src/stm32f4xx_hal_can.c ****   * @brief  Initializes the CAN MSP.
 503:Drivers/STM32F4xx_HAL_Driver/Src/stm32f4xx_hal_can.c ****   * @param  hcan pointer to a CAN_HandleTypeDef structure that contains
 504:Drivers/STM32F4xx_HAL_Driver/Src/stm32f4xx_hal_can.c ****   *         the configuration information for the specified CAN.
 505:Drivers/STM32F4xx_HAL_Driver/Src/stm32f4xx_hal_can.c ****   * @retval None
 506:Drivers/STM32F4xx_HAL_Driver/Src/stm32f4xx_hal_can.c ****   */
 507:Drivers/STM32F4xx_HAL_Driver/Src/stm32f4xx_hal_can.c **** __weak void HAL_CAN_MspInit(CAN_HandleTypeDef *hcan)
 508:Drivers/STM32F4xx_HAL_Driver/Src/stm32f4xx_hal_can.c **** {
  30              		.loc 1 508 1 view -0
  31              		.cfi_startproc
  32              		@ args = 0, pretend = 0, frame = 0
  33              		@ frame_needed = 0, uses_anonymous_args = 0
  34              		@ link register save eliminated.
 509:Drivers/STM32F4xx_HAL_Driver/Src/stm32f4xx_hal_can.c ****   /* Prevent unused argument(s) compilation warning */
 510:Drivers/STM32F4xx_HAL_Driver/Src/stm32f4xx_hal_can.c ****   UNUSED(hcan);
  35              		.loc 1 510 3 view .LVU1
 511:Drivers/STM32F4xx_HAL_Driver/Src/stm32f4xx_hal_can.c **** 
 512:Drivers/STM32F4xx_HAL_Driver/Src/stm32f4xx_hal_can.c ****   /* NOTE : This function Should not be modified, when the callback is needed,
 513:Drivers/STM32F4xx_HAL_Driver/Src/stm32f4xx_hal_can.c ****             the HAL_CAN_MspInit could be implemented in the user file
 514:Drivers/STM32F4xx_HAL_Driver/Src/stm32f4xx_hal_can.c ****    */
 515:Drivers/STM32F4xx_HAL_Driver/Src/stm32f4xx_hal_can.c **** }
  36              		.loc 1 515 1 is_stmt 0 view .LVU2
  37 0000 7047     		bx	lr
  38              		.cfi_endproc
  39              	.LFE136:
  41              		.section	.text.HAL_CAN_Init,"ax",%progbits
  42              		.align	1
  43              		.global	HAL_CAN_Init
  44              		.syntax unified
  45              		.thumb
  46              		.thumb_func
  47              		.fpu fpv4-sp-d16
  49              	HAL_CAN_Init:
  50              	.LVL1:
  51              	.LFB134:
 276:Drivers/STM32F4xx_HAL_Driver/Src/stm32f4xx_hal_can.c ****   uint32_t tickstart;
  52              		.loc 1 276 1 is_stmt 1 view -0
  53              		.cfi_startproc
  54              		@ args = 0, pretend = 0, frame = 0
  55              		@ frame_needed = 0, uses_anonymous_args = 0
 277:Drivers/STM32F4xx_HAL_Driver/Src/stm32f4xx_hal_can.c **** 
  56              		.loc 1 277 3 view .LVU4
ARM GAS  /tmp/cc6hBWA9.s 			page 11


 280:Drivers/STM32F4xx_HAL_Driver/Src/stm32f4xx_hal_can.c ****   {
  57              		.loc 1 280 3 view .LVU5
 280:Drivers/STM32F4xx_HAL_Driver/Src/stm32f4xx_hal_can.c ****   {
  58              		.loc 1 280 6 is_stmt 0 view .LVU6
  59 0000 0028     		cmp	r0, #0
  60 0002 00F0A180 		beq	.L21
 276:Drivers/STM32F4xx_HAL_Driver/Src/stm32f4xx_hal_can.c ****   uint32_t tickstart;
  61              		.loc 1 276 1 view .LVU7
  62 0006 38B5     		push	{r3, r4, r5, lr}
  63              	.LCFI0:
  64              		.cfi_def_cfa_offset 16
  65              		.cfi_offset 3, -16
  66              		.cfi_offset 4, -12
  67              		.cfi_offset 5, -8
  68              		.cfi_offset 14, -4
  69 0008 0446     		mov	r4, r0
 286:Drivers/STM32F4xx_HAL_Driver/Src/stm32f4xx_hal_can.c ****   assert_param(IS_FUNCTIONAL_STATE(hcan->Init.TimeTriggeredMode));
  70              		.loc 1 286 3 is_stmt 1 view .LVU8
 287:Drivers/STM32F4xx_HAL_Driver/Src/stm32f4xx_hal_can.c ****   assert_param(IS_FUNCTIONAL_STATE(hcan->Init.AutoBusOff));
  71              		.loc 1 287 3 view .LVU9
 288:Drivers/STM32F4xx_HAL_Driver/Src/stm32f4xx_hal_can.c ****   assert_param(IS_FUNCTIONAL_STATE(hcan->Init.AutoWakeUp));
  72              		.loc 1 288 3 view .LVU10
 289:Drivers/STM32F4xx_HAL_Driver/Src/stm32f4xx_hal_can.c ****   assert_param(IS_FUNCTIONAL_STATE(hcan->Init.AutoRetransmission));
  73              		.loc 1 289 3 view .LVU11
 290:Drivers/STM32F4xx_HAL_Driver/Src/stm32f4xx_hal_can.c ****   assert_param(IS_FUNCTIONAL_STATE(hcan->Init.ReceiveFifoLocked));
  74              		.loc 1 290 3 view .LVU12
 291:Drivers/STM32F4xx_HAL_Driver/Src/stm32f4xx_hal_can.c ****   assert_param(IS_FUNCTIONAL_STATE(hcan->Init.TransmitFifoPriority));
  75              		.loc 1 291 3 view .LVU13
 292:Drivers/STM32F4xx_HAL_Driver/Src/stm32f4xx_hal_can.c ****   assert_param(IS_CAN_MODE(hcan->Init.Mode));
  76              		.loc 1 292 3 view .LVU14
 293:Drivers/STM32F4xx_HAL_Driver/Src/stm32f4xx_hal_can.c ****   assert_param(IS_CAN_SJW(hcan->Init.SyncJumpWidth));
  77              		.loc 1 293 3 view .LVU15
 294:Drivers/STM32F4xx_HAL_Driver/Src/stm32f4xx_hal_can.c ****   assert_param(IS_CAN_BS1(hcan->Init.TimeSeg1));
  78              		.loc 1 294 3 view .LVU16
 295:Drivers/STM32F4xx_HAL_Driver/Src/stm32f4xx_hal_can.c ****   assert_param(IS_CAN_BS2(hcan->Init.TimeSeg2));
  79              		.loc 1 295 3 view .LVU17
 296:Drivers/STM32F4xx_HAL_Driver/Src/stm32f4xx_hal_can.c ****   assert_param(IS_CAN_PRESCALER(hcan->Init.Prescaler));
  80              		.loc 1 296 3 view .LVU18
 297:Drivers/STM32F4xx_HAL_Driver/Src/stm32f4xx_hal_can.c **** 
  81              		.loc 1 297 3 view .LVU19
 327:Drivers/STM32F4xx_HAL_Driver/Src/stm32f4xx_hal_can.c ****   {
  82              		.loc 1 327 3 view .LVU20
 327:Drivers/STM32F4xx_HAL_Driver/Src/stm32f4xx_hal_can.c ****   {
  83              		.loc 1 327 11 is_stmt 0 view .LVU21
  84 000a 90F82030 		ldrb	r3, [r0, #32]	@ zero_extendqisi2
 327:Drivers/STM32F4xx_HAL_Driver/Src/stm32f4xx_hal_can.c ****   {
  85              		.loc 1 327 6 view .LVU22
  86 000e D3B1     		cbz	r3, .L26
  87              	.LVL2:
  88              	.L4:
 335:Drivers/STM32F4xx_HAL_Driver/Src/stm32f4xx_hal_can.c **** 
  89              		.loc 1 335 3 is_stmt 1 view .LVU23
  90 0010 2268     		ldr	r2, [r4]
  91 0012 1368     		ldr	r3, [r2]
  92 0014 43F00103 		orr	r3, r3, #1
  93 0018 1360     		str	r3, [r2]
 338:Drivers/STM32F4xx_HAL_Driver/Src/stm32f4xx_hal_can.c **** 
ARM GAS  /tmp/cc6hBWA9.s 			page 12


  94              		.loc 1 338 3 view .LVU24
 338:Drivers/STM32F4xx_HAL_Driver/Src/stm32f4xx_hal_can.c **** 
  95              		.loc 1 338 15 is_stmt 0 view .LVU25
  96 001a FFF7FEFF 		bl	HAL_GetTick
  97              	.LVL3:
  98 001e 0546     		mov	r5, r0
  99              	.LVL4:
 341:Drivers/STM32F4xx_HAL_Driver/Src/stm32f4xx_hal_can.c ****   {
 100              		.loc 1 341 3 is_stmt 1 view .LVU26
 101              	.L5:
 341:Drivers/STM32F4xx_HAL_Driver/Src/stm32f4xx_hal_can.c ****   {
 102              		.loc 1 341 9 view .LVU27
 341:Drivers/STM32F4xx_HAL_Driver/Src/stm32f4xx_hal_can.c ****   {
 103              		.loc 1 341 15 is_stmt 0 view .LVU28
 104 0020 2368     		ldr	r3, [r4]
 341:Drivers/STM32F4xx_HAL_Driver/Src/stm32f4xx_hal_can.c ****   {
 105              		.loc 1 341 25 view .LVU29
 106 0022 5A68     		ldr	r2, [r3, #4]
 341:Drivers/STM32F4xx_HAL_Driver/Src/stm32f4xx_hal_can.c ****   {
 107              		.loc 1 341 9 view .LVU30
 108 0024 12F0010F 		tst	r2, #1
 109 0028 10D1     		bne	.L27
 343:Drivers/STM32F4xx_HAL_Driver/Src/stm32f4xx_hal_can.c ****     {
 110              		.loc 1 343 5 is_stmt 1 view .LVU31
 343:Drivers/STM32F4xx_HAL_Driver/Src/stm32f4xx_hal_can.c ****     {
 111              		.loc 1 343 10 is_stmt 0 view .LVU32
 112 002a FFF7FEFF 		bl	HAL_GetTick
 113              	.LVL5:
 343:Drivers/STM32F4xx_HAL_Driver/Src/stm32f4xx_hal_can.c ****     {
 114              		.loc 1 343 24 view .LVU33
 115 002e 401B     		subs	r0, r0, r5
 343:Drivers/STM32F4xx_HAL_Driver/Src/stm32f4xx_hal_can.c ****     {
 116              		.loc 1 343 8 view .LVU34
 117 0030 0A28     		cmp	r0, #10
 118 0032 F5D9     		bls	.L5
 346:Drivers/STM32F4xx_HAL_Driver/Src/stm32f4xx_hal_can.c **** 
 119              		.loc 1 346 7 is_stmt 1 view .LVU35
 346:Drivers/STM32F4xx_HAL_Driver/Src/stm32f4xx_hal_can.c **** 
 120              		.loc 1 346 23 is_stmt 0 view .LVU36
 121 0034 636A     		ldr	r3, [r4, #36]
 122 0036 43F40033 		orr	r3, r3, #131072
 123 003a 6362     		str	r3, [r4, #36]
 349:Drivers/STM32F4xx_HAL_Driver/Src/stm32f4xx_hal_can.c **** 
 124              		.loc 1 349 7 is_stmt 1 view .LVU37
 349:Drivers/STM32F4xx_HAL_Driver/Src/stm32f4xx_hal_can.c **** 
 125              		.loc 1 349 19 is_stmt 0 view .LVU38
 126 003c 0523     		movs	r3, #5
 127 003e 84F82030 		strb	r3, [r4, #32]
 351:Drivers/STM32F4xx_HAL_Driver/Src/stm32f4xx_hal_can.c ****     }
 128              		.loc 1 351 7 is_stmt 1 view .LVU39
 351:Drivers/STM32F4xx_HAL_Driver/Src/stm32f4xx_hal_can.c ****     }
 129              		.loc 1 351 14 is_stmt 0 view .LVU40
 130 0042 0120     		movs	r0, #1
 131              	.L3:
 451:Drivers/STM32F4xx_HAL_Driver/Src/stm32f4xx_hal_can.c **** 
 132              		.loc 1 451 1 view .LVU41
 133 0044 38BD     		pop	{r3, r4, r5, pc}
ARM GAS  /tmp/cc6hBWA9.s 			page 13


 134              	.LVL6:
 135              	.L26:
 330:Drivers/STM32F4xx_HAL_Driver/Src/stm32f4xx_hal_can.c ****   }
 136              		.loc 1 330 5 is_stmt 1 view .LVU42
 137 0046 FFF7FEFF 		bl	HAL_CAN_MspInit
 138              	.LVL7:
 330:Drivers/STM32F4xx_HAL_Driver/Src/stm32f4xx_hal_can.c ****   }
 139              		.loc 1 330 5 is_stmt 0 view .LVU43
 140 004a E1E7     		b	.L4
 141              	.LVL8:
 142              	.L27:
 356:Drivers/STM32F4xx_HAL_Driver/Src/stm32f4xx_hal_can.c **** 
 143              		.loc 1 356 3 is_stmt 1 view .LVU44
 144 004c 1A68     		ldr	r2, [r3]
 145 004e 22F00202 		bic	r2, r2, #2
 146 0052 1A60     		str	r2, [r3]
 359:Drivers/STM32F4xx_HAL_Driver/Src/stm32f4xx_hal_can.c **** 
 147              		.loc 1 359 3 view .LVU45
 359:Drivers/STM32F4xx_HAL_Driver/Src/stm32f4xx_hal_can.c **** 
 148              		.loc 1 359 15 is_stmt 0 view .LVU46
 149 0054 FFF7FEFF 		bl	HAL_GetTick
 150              	.LVL9:
 151 0058 0546     		mov	r5, r0
 152              	.LVL10:
 362:Drivers/STM32F4xx_HAL_Driver/Src/stm32f4xx_hal_can.c ****   {
 153              		.loc 1 362 3 is_stmt 1 view .LVU47
 154              	.L7:
 362:Drivers/STM32F4xx_HAL_Driver/Src/stm32f4xx_hal_can.c ****   {
 155              		.loc 1 362 9 view .LVU48
 362:Drivers/STM32F4xx_HAL_Driver/Src/stm32f4xx_hal_can.c ****   {
 156              		.loc 1 362 15 is_stmt 0 view .LVU49
 157 005a 2368     		ldr	r3, [r4]
 362:Drivers/STM32F4xx_HAL_Driver/Src/stm32f4xx_hal_can.c ****   {
 158              		.loc 1 362 25 view .LVU50
 159 005c 5A68     		ldr	r2, [r3, #4]
 362:Drivers/STM32F4xx_HAL_Driver/Src/stm32f4xx_hal_can.c ****   {
 160              		.loc 1 362 9 view .LVU51
 161 005e 12F0020F 		tst	r2, #2
 162 0062 0DD0     		beq	.L28
 364:Drivers/STM32F4xx_HAL_Driver/Src/stm32f4xx_hal_can.c ****     {
 163              		.loc 1 364 5 is_stmt 1 view .LVU52
 364:Drivers/STM32F4xx_HAL_Driver/Src/stm32f4xx_hal_can.c ****     {
 164              		.loc 1 364 10 is_stmt 0 view .LVU53
 165 0064 FFF7FEFF 		bl	HAL_GetTick
 166              	.LVL11:
 364:Drivers/STM32F4xx_HAL_Driver/Src/stm32f4xx_hal_can.c ****     {
 167              		.loc 1 364 24 view .LVU54
 168 0068 401B     		subs	r0, r0, r5
 364:Drivers/STM32F4xx_HAL_Driver/Src/stm32f4xx_hal_can.c ****     {
 169              		.loc 1 364 8 view .LVU55
 170 006a 0A28     		cmp	r0, #10
 171 006c F5D9     		bls	.L7
 367:Drivers/STM32F4xx_HAL_Driver/Src/stm32f4xx_hal_can.c **** 
 172              		.loc 1 367 7 is_stmt 1 view .LVU56
 367:Drivers/STM32F4xx_HAL_Driver/Src/stm32f4xx_hal_can.c **** 
 173              		.loc 1 367 23 is_stmt 0 view .LVU57
 174 006e 636A     		ldr	r3, [r4, #36]
ARM GAS  /tmp/cc6hBWA9.s 			page 14


 175 0070 43F40033 		orr	r3, r3, #131072
 176 0074 6362     		str	r3, [r4, #36]
 370:Drivers/STM32F4xx_HAL_Driver/Src/stm32f4xx_hal_can.c **** 
 177              		.loc 1 370 7 is_stmt 1 view .LVU58
 370:Drivers/STM32F4xx_HAL_Driver/Src/stm32f4xx_hal_can.c **** 
 178              		.loc 1 370 19 is_stmt 0 view .LVU59
 179 0076 0523     		movs	r3, #5
 180 0078 84F82030 		strb	r3, [r4, #32]
 372:Drivers/STM32F4xx_HAL_Driver/Src/stm32f4xx_hal_can.c ****     }
 181              		.loc 1 372 7 is_stmt 1 view .LVU60
 372:Drivers/STM32F4xx_HAL_Driver/Src/stm32f4xx_hal_can.c ****     }
 182              		.loc 1 372 14 is_stmt 0 view .LVU61
 183 007c 0120     		movs	r0, #1
 184 007e E1E7     		b	.L3
 185              	.L28:
 377:Drivers/STM32F4xx_HAL_Driver/Src/stm32f4xx_hal_can.c ****   {
 186              		.loc 1 377 3 is_stmt 1 view .LVU62
 377:Drivers/STM32F4xx_HAL_Driver/Src/stm32f4xx_hal_can.c ****   {
 187              		.loc 1 377 17 is_stmt 0 view .LVU63
 188 0080 227E     		ldrb	r2, [r4, #24]	@ zero_extendqisi2
 377:Drivers/STM32F4xx_HAL_Driver/Src/stm32f4xx_hal_can.c ****   {
 189              		.loc 1 377 6 view .LVU64
 190 0082 012A     		cmp	r2, #1
 191 0084 3DD0     		beq	.L29
 383:Drivers/STM32F4xx_HAL_Driver/Src/stm32f4xx_hal_can.c ****   }
 192              		.loc 1 383 5 is_stmt 1 view .LVU65
 193 0086 1A68     		ldr	r2, [r3]
 194 0088 22F08002 		bic	r2, r2, #128
 195 008c 1A60     		str	r2, [r3]
 196              	.L10:
 387:Drivers/STM32F4xx_HAL_Driver/Src/stm32f4xx_hal_can.c ****   {
 197              		.loc 1 387 3 view .LVU66
 387:Drivers/STM32F4xx_HAL_Driver/Src/stm32f4xx_hal_can.c ****   {
 198              		.loc 1 387 17 is_stmt 0 view .LVU67
 199 008e 637E     		ldrb	r3, [r4, #25]	@ zero_extendqisi2
 387:Drivers/STM32F4xx_HAL_Driver/Src/stm32f4xx_hal_can.c ****   {
 200              		.loc 1 387 6 view .LVU68
 201 0090 012B     		cmp	r3, #1
 202 0092 3BD0     		beq	.L30
 393:Drivers/STM32F4xx_HAL_Driver/Src/stm32f4xx_hal_can.c ****   }
 203              		.loc 1 393 5 is_stmt 1 view .LVU69
 204 0094 2268     		ldr	r2, [r4]
 205 0096 1368     		ldr	r3, [r2]
 206 0098 23F04003 		bic	r3, r3, #64
 207 009c 1360     		str	r3, [r2]
 208              	.L12:
 397:Drivers/STM32F4xx_HAL_Driver/Src/stm32f4xx_hal_can.c ****   {
 209              		.loc 1 397 3 view .LVU70
 397:Drivers/STM32F4xx_HAL_Driver/Src/stm32f4xx_hal_can.c ****   {
 210              		.loc 1 397 17 is_stmt 0 view .LVU71
 211 009e A37E     		ldrb	r3, [r4, #26]	@ zero_extendqisi2
 397:Drivers/STM32F4xx_HAL_Driver/Src/stm32f4xx_hal_can.c ****   {
 212              		.loc 1 397 6 view .LVU72
 213 00a0 012B     		cmp	r3, #1
 214 00a2 39D0     		beq	.L31
 403:Drivers/STM32F4xx_HAL_Driver/Src/stm32f4xx_hal_can.c ****   }
 215              		.loc 1 403 5 is_stmt 1 view .LVU73
ARM GAS  /tmp/cc6hBWA9.s 			page 15


 216 00a4 2268     		ldr	r2, [r4]
 217 00a6 1368     		ldr	r3, [r2]
 218 00a8 23F02003 		bic	r3, r3, #32
 219 00ac 1360     		str	r3, [r2]
 220              	.L14:
 407:Drivers/STM32F4xx_HAL_Driver/Src/stm32f4xx_hal_can.c ****   {
 221              		.loc 1 407 3 view .LVU74
 407:Drivers/STM32F4xx_HAL_Driver/Src/stm32f4xx_hal_can.c ****   {
 222              		.loc 1 407 17 is_stmt 0 view .LVU75
 223 00ae E37E     		ldrb	r3, [r4, #27]	@ zero_extendqisi2
 407:Drivers/STM32F4xx_HAL_Driver/Src/stm32f4xx_hal_can.c ****   {
 224              		.loc 1 407 6 view .LVU76
 225 00b0 012B     		cmp	r3, #1
 226 00b2 37D0     		beq	.L32
 413:Drivers/STM32F4xx_HAL_Driver/Src/stm32f4xx_hal_can.c ****   }
 227              		.loc 1 413 5 is_stmt 1 view .LVU77
 228 00b4 2268     		ldr	r2, [r4]
 229 00b6 1368     		ldr	r3, [r2]
 230 00b8 43F01003 		orr	r3, r3, #16
 231 00bc 1360     		str	r3, [r2]
 232              	.L16:
 417:Drivers/STM32F4xx_HAL_Driver/Src/stm32f4xx_hal_can.c ****   {
 233              		.loc 1 417 3 view .LVU78
 417:Drivers/STM32F4xx_HAL_Driver/Src/stm32f4xx_hal_can.c ****   {
 234              		.loc 1 417 17 is_stmt 0 view .LVU79
 235 00be 237F     		ldrb	r3, [r4, #28]	@ zero_extendqisi2
 417:Drivers/STM32F4xx_HAL_Driver/Src/stm32f4xx_hal_can.c ****   {
 236              		.loc 1 417 6 view .LVU80
 237 00c0 012B     		cmp	r3, #1
 238 00c2 35D0     		beq	.L33
 423:Drivers/STM32F4xx_HAL_Driver/Src/stm32f4xx_hal_can.c ****   }
 239              		.loc 1 423 5 is_stmt 1 view .LVU81
 240 00c4 2268     		ldr	r2, [r4]
 241 00c6 1368     		ldr	r3, [r2]
 242 00c8 23F00803 		bic	r3, r3, #8
 243 00cc 1360     		str	r3, [r2]
 244              	.L18:
 427:Drivers/STM32F4xx_HAL_Driver/Src/stm32f4xx_hal_can.c ****   {
 245              		.loc 1 427 3 view .LVU82
 427:Drivers/STM32F4xx_HAL_Driver/Src/stm32f4xx_hal_can.c ****   {
 246              		.loc 1 427 17 is_stmt 0 view .LVU83
 247 00ce 637F     		ldrb	r3, [r4, #29]	@ zero_extendqisi2
 427:Drivers/STM32F4xx_HAL_Driver/Src/stm32f4xx_hal_can.c ****   {
 248              		.loc 1 427 6 view .LVU84
 249 00d0 012B     		cmp	r3, #1
 250 00d2 33D0     		beq	.L34
 433:Drivers/STM32F4xx_HAL_Driver/Src/stm32f4xx_hal_can.c ****   }
 251              		.loc 1 433 5 is_stmt 1 view .LVU85
 252 00d4 2268     		ldr	r2, [r4]
 253 00d6 1368     		ldr	r3, [r2]
 254 00d8 23F00403 		bic	r3, r3, #4
 255 00dc 1360     		str	r3, [r2]
 256              	.L20:
 437:Drivers/STM32F4xx_HAL_Driver/Src/stm32f4xx_hal_can.c ****                                             hcan->Init.SyncJumpWidth  |
 257              		.loc 1 437 3 view .LVU86
 258 00de A368     		ldr	r3, [r4, #8]
 259 00e0 E268     		ldr	r2, [r4, #12]
ARM GAS  /tmp/cc6hBWA9.s 			page 16


 260 00e2 1343     		orrs	r3, r3, r2
 261 00e4 2269     		ldr	r2, [r4, #16]
 262 00e6 1343     		orrs	r3, r3, r2
 263 00e8 6269     		ldr	r2, [r4, #20]
 264 00ea 1343     		orrs	r3, r3, r2
 265 00ec 6268     		ldr	r2, [r4, #4]
 266 00ee 013A     		subs	r2, r2, #1
 267 00f0 2168     		ldr	r1, [r4]
 268 00f2 1343     		orrs	r3, r3, r2
 269 00f4 CB61     		str	r3, [r1, #28]
 444:Drivers/STM32F4xx_HAL_Driver/Src/stm32f4xx_hal_can.c **** 
 270              		.loc 1 444 3 view .LVU87
 444:Drivers/STM32F4xx_HAL_Driver/Src/stm32f4xx_hal_can.c **** 
 271              		.loc 1 444 19 is_stmt 0 view .LVU88
 272 00f6 0020     		movs	r0, #0
 273 00f8 6062     		str	r0, [r4, #36]
 447:Drivers/STM32F4xx_HAL_Driver/Src/stm32f4xx_hal_can.c **** 
 274              		.loc 1 447 3 is_stmt 1 view .LVU89
 447:Drivers/STM32F4xx_HAL_Driver/Src/stm32f4xx_hal_can.c **** 
 275              		.loc 1 447 15 is_stmt 0 view .LVU90
 276 00fa 0123     		movs	r3, #1
 277 00fc 84F82030 		strb	r3, [r4, #32]
 450:Drivers/STM32F4xx_HAL_Driver/Src/stm32f4xx_hal_can.c **** }
 278              		.loc 1 450 3 is_stmt 1 view .LVU91
 450:Drivers/STM32F4xx_HAL_Driver/Src/stm32f4xx_hal_can.c **** }
 279              		.loc 1 450 10 is_stmt 0 view .LVU92
 280 0100 A0E7     		b	.L3
 281              	.L29:
 379:Drivers/STM32F4xx_HAL_Driver/Src/stm32f4xx_hal_can.c ****   }
 282              		.loc 1 379 5 is_stmt 1 view .LVU93
 283 0102 1A68     		ldr	r2, [r3]
 284 0104 42F08002 		orr	r2, r2, #128
 285 0108 1A60     		str	r2, [r3]
 286 010a C0E7     		b	.L10
 287              	.L30:
 389:Drivers/STM32F4xx_HAL_Driver/Src/stm32f4xx_hal_can.c ****   }
 288              		.loc 1 389 5 view .LVU94
 289 010c 2268     		ldr	r2, [r4]
 290 010e 1368     		ldr	r3, [r2]
 291 0110 43F04003 		orr	r3, r3, #64
 292 0114 1360     		str	r3, [r2]
 293 0116 C2E7     		b	.L12
 294              	.L31:
 399:Drivers/STM32F4xx_HAL_Driver/Src/stm32f4xx_hal_can.c ****   }
 295              		.loc 1 399 5 view .LVU95
 296 0118 2268     		ldr	r2, [r4]
 297 011a 1368     		ldr	r3, [r2]
 298 011c 43F02003 		orr	r3, r3, #32
 299 0120 1360     		str	r3, [r2]
 300 0122 C4E7     		b	.L14
 301              	.L32:
 409:Drivers/STM32F4xx_HAL_Driver/Src/stm32f4xx_hal_can.c ****   }
 302              		.loc 1 409 5 view .LVU96
 303 0124 2268     		ldr	r2, [r4]
 304 0126 1368     		ldr	r3, [r2]
 305 0128 23F01003 		bic	r3, r3, #16
 306 012c 1360     		str	r3, [r2]
ARM GAS  /tmp/cc6hBWA9.s 			page 17


 307 012e C6E7     		b	.L16
 308              	.L33:
 419:Drivers/STM32F4xx_HAL_Driver/Src/stm32f4xx_hal_can.c ****   }
 309              		.loc 1 419 5 view .LVU97
 310 0130 2268     		ldr	r2, [r4]
 311 0132 1368     		ldr	r3, [r2]
 312 0134 43F00803 		orr	r3, r3, #8
 313 0138 1360     		str	r3, [r2]
 314 013a C8E7     		b	.L18
 315              	.L34:
 429:Drivers/STM32F4xx_HAL_Driver/Src/stm32f4xx_hal_can.c ****   }
 316              		.loc 1 429 5 view .LVU98
 317 013c 2268     		ldr	r2, [r4]
 318 013e 1368     		ldr	r3, [r2]
 319 0140 43F00403 		orr	r3, r3, #4
 320 0144 1360     		str	r3, [r2]
 321 0146 CAE7     		b	.L20
 322              	.LVL12:
 323              	.L21:
 324              	.LCFI1:
 325              		.cfi_def_cfa_offset 0
 326              		.cfi_restore 3
 327              		.cfi_restore 4
 328              		.cfi_restore 5
 329              		.cfi_restore 14
 282:Drivers/STM32F4xx_HAL_Driver/Src/stm32f4xx_hal_can.c ****   }
 330              		.loc 1 282 12 is_stmt 0 view .LVU99
 331 0148 0120     		movs	r0, #1
 332              	.LVL13:
 451:Drivers/STM32F4xx_HAL_Driver/Src/stm32f4xx_hal_can.c **** 
 333              		.loc 1 451 1 view .LVU100
 334 014a 7047     		bx	lr
 335              		.cfi_endproc
 336              	.LFE134:
 338              		.section	.text.HAL_CAN_MspDeInit,"ax",%progbits
 339              		.align	1
 340              		.weak	HAL_CAN_MspDeInit
 341              		.syntax unified
 342              		.thumb
 343              		.thumb_func
 344              		.fpu fpv4-sp-d16
 346              	HAL_CAN_MspDeInit:
 347              	.LVL14:
 348              	.LFB137:
 516:Drivers/STM32F4xx_HAL_Driver/Src/stm32f4xx_hal_can.c **** 
 517:Drivers/STM32F4xx_HAL_Driver/Src/stm32f4xx_hal_can.c **** /**
 518:Drivers/STM32F4xx_HAL_Driver/Src/stm32f4xx_hal_can.c ****   * @brief  DeInitializes the CAN MSP.
 519:Drivers/STM32F4xx_HAL_Driver/Src/stm32f4xx_hal_can.c ****   * @param  hcan pointer to a CAN_HandleTypeDef structure that contains
 520:Drivers/STM32F4xx_HAL_Driver/Src/stm32f4xx_hal_can.c ****   *         the configuration information for the specified CAN.
 521:Drivers/STM32F4xx_HAL_Driver/Src/stm32f4xx_hal_can.c ****   * @retval None
 522:Drivers/STM32F4xx_HAL_Driver/Src/stm32f4xx_hal_can.c ****   */
 523:Drivers/STM32F4xx_HAL_Driver/Src/stm32f4xx_hal_can.c **** __weak void HAL_CAN_MspDeInit(CAN_HandleTypeDef *hcan)
 524:Drivers/STM32F4xx_HAL_Driver/Src/stm32f4xx_hal_can.c **** {
 349              		.loc 1 524 1 is_stmt 1 view -0
 350              		.cfi_startproc
 351              		@ args = 0, pretend = 0, frame = 0
 352              		@ frame_needed = 0, uses_anonymous_args = 0
ARM GAS  /tmp/cc6hBWA9.s 			page 18


 353              		@ link register save eliminated.
 525:Drivers/STM32F4xx_HAL_Driver/Src/stm32f4xx_hal_can.c ****   /* Prevent unused argument(s) compilation warning */
 526:Drivers/STM32F4xx_HAL_Driver/Src/stm32f4xx_hal_can.c ****   UNUSED(hcan);
 354              		.loc 1 526 3 view .LVU102
 527:Drivers/STM32F4xx_HAL_Driver/Src/stm32f4xx_hal_can.c **** 
 528:Drivers/STM32F4xx_HAL_Driver/Src/stm32f4xx_hal_can.c ****   /* NOTE : This function Should not be modified, when the callback is needed,
 529:Drivers/STM32F4xx_HAL_Driver/Src/stm32f4xx_hal_can.c ****             the HAL_CAN_MspDeInit could be implemented in the user file
 530:Drivers/STM32F4xx_HAL_Driver/Src/stm32f4xx_hal_can.c ****    */
 531:Drivers/STM32F4xx_HAL_Driver/Src/stm32f4xx_hal_can.c **** }
 355              		.loc 1 531 1 is_stmt 0 view .LVU103
 356 0000 7047     		bx	lr
 357              		.cfi_endproc
 358              	.LFE137:
 360              		.section	.text.HAL_CAN_ConfigFilter,"ax",%progbits
 361              		.align	1
 362              		.global	HAL_CAN_ConfigFilter
 363              		.syntax unified
 364              		.thumb
 365              		.thumb_func
 366              		.fpu fpv4-sp-d16
 368              	HAL_CAN_ConfigFilter:
 369              	.LVL15:
 370              	.LFB138:
 532:Drivers/STM32F4xx_HAL_Driver/Src/stm32f4xx_hal_can.c **** 
 533:Drivers/STM32F4xx_HAL_Driver/Src/stm32f4xx_hal_can.c **** #if USE_HAL_CAN_REGISTER_CALLBACKS == 1
 534:Drivers/STM32F4xx_HAL_Driver/Src/stm32f4xx_hal_can.c **** /**
 535:Drivers/STM32F4xx_HAL_Driver/Src/stm32f4xx_hal_can.c ****   * @brief  Register a CAN CallBack.
 536:Drivers/STM32F4xx_HAL_Driver/Src/stm32f4xx_hal_can.c ****   *         To be used instead of the weak predefined callback
 537:Drivers/STM32F4xx_HAL_Driver/Src/stm32f4xx_hal_can.c ****   * @param  hcan pointer to a CAN_HandleTypeDef structure that contains
 538:Drivers/STM32F4xx_HAL_Driver/Src/stm32f4xx_hal_can.c ****   *         the configuration information for CAN module
 539:Drivers/STM32F4xx_HAL_Driver/Src/stm32f4xx_hal_can.c ****   * @param  CallbackID ID of the callback to be registered
 540:Drivers/STM32F4xx_HAL_Driver/Src/stm32f4xx_hal_can.c ****   *         This parameter can be one of the following values:
 541:Drivers/STM32F4xx_HAL_Driver/Src/stm32f4xx_hal_can.c ****   *           @arg @ref HAL_CAN_TX_MAILBOX0_COMPLETE_CB_ID Tx Mailbox 0 Complete callback ID
 542:Drivers/STM32F4xx_HAL_Driver/Src/stm32f4xx_hal_can.c ****   *           @arg @ref HAL_CAN_TX_MAILBOX1_COMPLETE_CB_ID Tx Mailbox 1 Complete callback ID
 543:Drivers/STM32F4xx_HAL_Driver/Src/stm32f4xx_hal_can.c ****   *           @arg @ref HAL_CAN_TX_MAILBOX2_COMPLETE_CB_ID Tx Mailbox 2 Complete callback ID
 544:Drivers/STM32F4xx_HAL_Driver/Src/stm32f4xx_hal_can.c ****   *           @arg @ref HAL_CAN_TX_MAILBOX0_ABORT_CB_ID Tx Mailbox 0 Abort callback ID
 545:Drivers/STM32F4xx_HAL_Driver/Src/stm32f4xx_hal_can.c ****   *           @arg @ref HAL_CAN_TX_MAILBOX1_ABORT_CB_ID Tx Mailbox 1 Abort callback ID
 546:Drivers/STM32F4xx_HAL_Driver/Src/stm32f4xx_hal_can.c ****   *           @arg @ref HAL_CAN_TX_MAILBOX2_ABORT_CB_ID Tx Mailbox 2 Abort callback ID
 547:Drivers/STM32F4xx_HAL_Driver/Src/stm32f4xx_hal_can.c ****   *           @arg @ref HAL_CAN_RX_FIFO0_MSG_PENDING_CB_ID Rx Fifo 0 message pending callback ID
 548:Drivers/STM32F4xx_HAL_Driver/Src/stm32f4xx_hal_can.c ****   *           @arg @ref HAL_CAN_RX_FIFO0_FULL_CB_ID Rx Fifo 0 full callback ID
 549:Drivers/STM32F4xx_HAL_Driver/Src/stm32f4xx_hal_can.c ****   *           @arg @ref HAL_CAN_RX_FIFO1_MSG_PENDING_CB_ID Rx Fifo 1 message pending callback ID
 550:Drivers/STM32F4xx_HAL_Driver/Src/stm32f4xx_hal_can.c ****   *           @arg @ref HAL_CAN_RX_FIFO1_FULL_CB_ID Rx Fifo 1 full callback ID
 551:Drivers/STM32F4xx_HAL_Driver/Src/stm32f4xx_hal_can.c ****   *           @arg @ref HAL_CAN_SLEEP_CB_ID Sleep callback ID
 552:Drivers/STM32F4xx_HAL_Driver/Src/stm32f4xx_hal_can.c ****   *           @arg @ref HAL_CAN_WAKEUP_FROM_RX_MSG_CB_ID Wake Up from Rx message callback ID
 553:Drivers/STM32F4xx_HAL_Driver/Src/stm32f4xx_hal_can.c ****   *           @arg @ref HAL_CAN_ERROR_CB_ID Error callback ID
 554:Drivers/STM32F4xx_HAL_Driver/Src/stm32f4xx_hal_can.c ****   *           @arg @ref HAL_CAN_MSPINIT_CB_ID MspInit callback ID
 555:Drivers/STM32F4xx_HAL_Driver/Src/stm32f4xx_hal_can.c ****   *           @arg @ref HAL_CAN_MSPDEINIT_CB_ID MspDeInit callback ID
 556:Drivers/STM32F4xx_HAL_Driver/Src/stm32f4xx_hal_can.c ****   * @param  pCallback pointer to the Callback function
 557:Drivers/STM32F4xx_HAL_Driver/Src/stm32f4xx_hal_can.c ****   * @retval HAL status
 558:Drivers/STM32F4xx_HAL_Driver/Src/stm32f4xx_hal_can.c ****   */
 559:Drivers/STM32F4xx_HAL_Driver/Src/stm32f4xx_hal_can.c **** HAL_StatusTypeDef HAL_CAN_RegisterCallback(CAN_HandleTypeDef *hcan, HAL_CAN_CallbackIDTypeDef Callb
 560:Drivers/STM32F4xx_HAL_Driver/Src/stm32f4xx_hal_can.c ****                                            void (* pCallback)(CAN_HandleTypeDef *_hcan))
 561:Drivers/STM32F4xx_HAL_Driver/Src/stm32f4xx_hal_can.c **** {
 562:Drivers/STM32F4xx_HAL_Driver/Src/stm32f4xx_hal_can.c ****   HAL_StatusTypeDef status = HAL_OK;
 563:Drivers/STM32F4xx_HAL_Driver/Src/stm32f4xx_hal_can.c **** 
 564:Drivers/STM32F4xx_HAL_Driver/Src/stm32f4xx_hal_can.c ****   if (pCallback == NULL)
 565:Drivers/STM32F4xx_HAL_Driver/Src/stm32f4xx_hal_can.c ****   {
ARM GAS  /tmp/cc6hBWA9.s 			page 19


 566:Drivers/STM32F4xx_HAL_Driver/Src/stm32f4xx_hal_can.c ****     /* Update the error code */
 567:Drivers/STM32F4xx_HAL_Driver/Src/stm32f4xx_hal_can.c ****     hcan->ErrorCode |= HAL_CAN_ERROR_INVALID_CALLBACK;
 568:Drivers/STM32F4xx_HAL_Driver/Src/stm32f4xx_hal_can.c **** 
 569:Drivers/STM32F4xx_HAL_Driver/Src/stm32f4xx_hal_can.c ****     return HAL_ERROR;
 570:Drivers/STM32F4xx_HAL_Driver/Src/stm32f4xx_hal_can.c ****   }
 571:Drivers/STM32F4xx_HAL_Driver/Src/stm32f4xx_hal_can.c **** 
 572:Drivers/STM32F4xx_HAL_Driver/Src/stm32f4xx_hal_can.c ****   if (hcan->State == HAL_CAN_STATE_READY)
 573:Drivers/STM32F4xx_HAL_Driver/Src/stm32f4xx_hal_can.c ****   {
 574:Drivers/STM32F4xx_HAL_Driver/Src/stm32f4xx_hal_can.c ****     switch (CallbackID)
 575:Drivers/STM32F4xx_HAL_Driver/Src/stm32f4xx_hal_can.c ****     {
 576:Drivers/STM32F4xx_HAL_Driver/Src/stm32f4xx_hal_can.c ****       case HAL_CAN_TX_MAILBOX0_COMPLETE_CB_ID :
 577:Drivers/STM32F4xx_HAL_Driver/Src/stm32f4xx_hal_can.c ****         hcan->TxMailbox0CompleteCallback = pCallback;
 578:Drivers/STM32F4xx_HAL_Driver/Src/stm32f4xx_hal_can.c ****         break;
 579:Drivers/STM32F4xx_HAL_Driver/Src/stm32f4xx_hal_can.c **** 
 580:Drivers/STM32F4xx_HAL_Driver/Src/stm32f4xx_hal_can.c ****       case HAL_CAN_TX_MAILBOX1_COMPLETE_CB_ID :
 581:Drivers/STM32F4xx_HAL_Driver/Src/stm32f4xx_hal_can.c ****         hcan->TxMailbox1CompleteCallback = pCallback;
 582:Drivers/STM32F4xx_HAL_Driver/Src/stm32f4xx_hal_can.c ****         break;
 583:Drivers/STM32F4xx_HAL_Driver/Src/stm32f4xx_hal_can.c **** 
 584:Drivers/STM32F4xx_HAL_Driver/Src/stm32f4xx_hal_can.c ****       case HAL_CAN_TX_MAILBOX2_COMPLETE_CB_ID :
 585:Drivers/STM32F4xx_HAL_Driver/Src/stm32f4xx_hal_can.c ****         hcan->TxMailbox2CompleteCallback = pCallback;
 586:Drivers/STM32F4xx_HAL_Driver/Src/stm32f4xx_hal_can.c ****         break;
 587:Drivers/STM32F4xx_HAL_Driver/Src/stm32f4xx_hal_can.c **** 
 588:Drivers/STM32F4xx_HAL_Driver/Src/stm32f4xx_hal_can.c ****       case HAL_CAN_TX_MAILBOX0_ABORT_CB_ID :
 589:Drivers/STM32F4xx_HAL_Driver/Src/stm32f4xx_hal_can.c ****         hcan->TxMailbox0AbortCallback = pCallback;
 590:Drivers/STM32F4xx_HAL_Driver/Src/stm32f4xx_hal_can.c ****         break;
 591:Drivers/STM32F4xx_HAL_Driver/Src/stm32f4xx_hal_can.c **** 
 592:Drivers/STM32F4xx_HAL_Driver/Src/stm32f4xx_hal_can.c ****       case HAL_CAN_TX_MAILBOX1_ABORT_CB_ID :
 593:Drivers/STM32F4xx_HAL_Driver/Src/stm32f4xx_hal_can.c ****         hcan->TxMailbox1AbortCallback = pCallback;
 594:Drivers/STM32F4xx_HAL_Driver/Src/stm32f4xx_hal_can.c ****         break;
 595:Drivers/STM32F4xx_HAL_Driver/Src/stm32f4xx_hal_can.c **** 
 596:Drivers/STM32F4xx_HAL_Driver/Src/stm32f4xx_hal_can.c ****       case HAL_CAN_TX_MAILBOX2_ABORT_CB_ID :
 597:Drivers/STM32F4xx_HAL_Driver/Src/stm32f4xx_hal_can.c ****         hcan->TxMailbox2AbortCallback = pCallback;
 598:Drivers/STM32F4xx_HAL_Driver/Src/stm32f4xx_hal_can.c ****         break;
 599:Drivers/STM32F4xx_HAL_Driver/Src/stm32f4xx_hal_can.c **** 
 600:Drivers/STM32F4xx_HAL_Driver/Src/stm32f4xx_hal_can.c ****       case HAL_CAN_RX_FIFO0_MSG_PENDING_CB_ID :
 601:Drivers/STM32F4xx_HAL_Driver/Src/stm32f4xx_hal_can.c ****         hcan->RxFifo0MsgPendingCallback = pCallback;
 602:Drivers/STM32F4xx_HAL_Driver/Src/stm32f4xx_hal_can.c ****         break;
 603:Drivers/STM32F4xx_HAL_Driver/Src/stm32f4xx_hal_can.c **** 
 604:Drivers/STM32F4xx_HAL_Driver/Src/stm32f4xx_hal_can.c ****       case HAL_CAN_RX_FIFO0_FULL_CB_ID :
 605:Drivers/STM32F4xx_HAL_Driver/Src/stm32f4xx_hal_can.c ****         hcan->RxFifo0FullCallback = pCallback;
 606:Drivers/STM32F4xx_HAL_Driver/Src/stm32f4xx_hal_can.c ****         break;
 607:Drivers/STM32F4xx_HAL_Driver/Src/stm32f4xx_hal_can.c **** 
 608:Drivers/STM32F4xx_HAL_Driver/Src/stm32f4xx_hal_can.c ****       case HAL_CAN_RX_FIFO1_MSG_PENDING_CB_ID :
 609:Drivers/STM32F4xx_HAL_Driver/Src/stm32f4xx_hal_can.c ****         hcan->RxFifo1MsgPendingCallback = pCallback;
 610:Drivers/STM32F4xx_HAL_Driver/Src/stm32f4xx_hal_can.c ****         break;
 611:Drivers/STM32F4xx_HAL_Driver/Src/stm32f4xx_hal_can.c **** 
 612:Drivers/STM32F4xx_HAL_Driver/Src/stm32f4xx_hal_can.c ****       case HAL_CAN_RX_FIFO1_FULL_CB_ID :
 613:Drivers/STM32F4xx_HAL_Driver/Src/stm32f4xx_hal_can.c ****         hcan->RxFifo1FullCallback = pCallback;
 614:Drivers/STM32F4xx_HAL_Driver/Src/stm32f4xx_hal_can.c ****         break;
 615:Drivers/STM32F4xx_HAL_Driver/Src/stm32f4xx_hal_can.c **** 
 616:Drivers/STM32F4xx_HAL_Driver/Src/stm32f4xx_hal_can.c ****       case HAL_CAN_SLEEP_CB_ID :
 617:Drivers/STM32F4xx_HAL_Driver/Src/stm32f4xx_hal_can.c ****         hcan->SleepCallback = pCallback;
 618:Drivers/STM32F4xx_HAL_Driver/Src/stm32f4xx_hal_can.c ****         break;
 619:Drivers/STM32F4xx_HAL_Driver/Src/stm32f4xx_hal_can.c **** 
 620:Drivers/STM32F4xx_HAL_Driver/Src/stm32f4xx_hal_can.c ****       case HAL_CAN_WAKEUP_FROM_RX_MSG_CB_ID :
 621:Drivers/STM32F4xx_HAL_Driver/Src/stm32f4xx_hal_can.c ****         hcan->WakeUpFromRxMsgCallback = pCallback;
 622:Drivers/STM32F4xx_HAL_Driver/Src/stm32f4xx_hal_can.c ****         break;
ARM GAS  /tmp/cc6hBWA9.s 			page 20


 623:Drivers/STM32F4xx_HAL_Driver/Src/stm32f4xx_hal_can.c **** 
 624:Drivers/STM32F4xx_HAL_Driver/Src/stm32f4xx_hal_can.c ****       case HAL_CAN_ERROR_CB_ID :
 625:Drivers/STM32F4xx_HAL_Driver/Src/stm32f4xx_hal_can.c ****         hcan->ErrorCallback = pCallback;
 626:Drivers/STM32F4xx_HAL_Driver/Src/stm32f4xx_hal_can.c ****         break;
 627:Drivers/STM32F4xx_HAL_Driver/Src/stm32f4xx_hal_can.c **** 
 628:Drivers/STM32F4xx_HAL_Driver/Src/stm32f4xx_hal_can.c ****       case HAL_CAN_MSPINIT_CB_ID :
 629:Drivers/STM32F4xx_HAL_Driver/Src/stm32f4xx_hal_can.c ****         hcan->MspInitCallback = pCallback;
 630:Drivers/STM32F4xx_HAL_Driver/Src/stm32f4xx_hal_can.c ****         break;
 631:Drivers/STM32F4xx_HAL_Driver/Src/stm32f4xx_hal_can.c **** 
 632:Drivers/STM32F4xx_HAL_Driver/Src/stm32f4xx_hal_can.c ****       case HAL_CAN_MSPDEINIT_CB_ID :
 633:Drivers/STM32F4xx_HAL_Driver/Src/stm32f4xx_hal_can.c ****         hcan->MspDeInitCallback = pCallback;
 634:Drivers/STM32F4xx_HAL_Driver/Src/stm32f4xx_hal_can.c ****         break;
 635:Drivers/STM32F4xx_HAL_Driver/Src/stm32f4xx_hal_can.c **** 
 636:Drivers/STM32F4xx_HAL_Driver/Src/stm32f4xx_hal_can.c ****       default :
 637:Drivers/STM32F4xx_HAL_Driver/Src/stm32f4xx_hal_can.c ****         /* Update the error code */
 638:Drivers/STM32F4xx_HAL_Driver/Src/stm32f4xx_hal_can.c ****         hcan->ErrorCode |= HAL_CAN_ERROR_INVALID_CALLBACK;
 639:Drivers/STM32F4xx_HAL_Driver/Src/stm32f4xx_hal_can.c **** 
 640:Drivers/STM32F4xx_HAL_Driver/Src/stm32f4xx_hal_can.c ****         /* Return error status */
 641:Drivers/STM32F4xx_HAL_Driver/Src/stm32f4xx_hal_can.c ****         status =  HAL_ERROR;
 642:Drivers/STM32F4xx_HAL_Driver/Src/stm32f4xx_hal_can.c ****         break;
 643:Drivers/STM32F4xx_HAL_Driver/Src/stm32f4xx_hal_can.c ****     }
 644:Drivers/STM32F4xx_HAL_Driver/Src/stm32f4xx_hal_can.c ****   }
 645:Drivers/STM32F4xx_HAL_Driver/Src/stm32f4xx_hal_can.c ****   else if (hcan->State == HAL_CAN_STATE_RESET)
 646:Drivers/STM32F4xx_HAL_Driver/Src/stm32f4xx_hal_can.c ****   {
 647:Drivers/STM32F4xx_HAL_Driver/Src/stm32f4xx_hal_can.c ****     switch (CallbackID)
 648:Drivers/STM32F4xx_HAL_Driver/Src/stm32f4xx_hal_can.c ****     {
 649:Drivers/STM32F4xx_HAL_Driver/Src/stm32f4xx_hal_can.c ****       case HAL_CAN_MSPINIT_CB_ID :
 650:Drivers/STM32F4xx_HAL_Driver/Src/stm32f4xx_hal_can.c ****         hcan->MspInitCallback = pCallback;
 651:Drivers/STM32F4xx_HAL_Driver/Src/stm32f4xx_hal_can.c ****         break;
 652:Drivers/STM32F4xx_HAL_Driver/Src/stm32f4xx_hal_can.c **** 
 653:Drivers/STM32F4xx_HAL_Driver/Src/stm32f4xx_hal_can.c ****       case HAL_CAN_MSPDEINIT_CB_ID :
 654:Drivers/STM32F4xx_HAL_Driver/Src/stm32f4xx_hal_can.c ****         hcan->MspDeInitCallback = pCallback;
 655:Drivers/STM32F4xx_HAL_Driver/Src/stm32f4xx_hal_can.c ****         break;
 656:Drivers/STM32F4xx_HAL_Driver/Src/stm32f4xx_hal_can.c **** 
 657:Drivers/STM32F4xx_HAL_Driver/Src/stm32f4xx_hal_can.c ****       default :
 658:Drivers/STM32F4xx_HAL_Driver/Src/stm32f4xx_hal_can.c ****         /* Update the error code */
 659:Drivers/STM32F4xx_HAL_Driver/Src/stm32f4xx_hal_can.c ****         hcan->ErrorCode |= HAL_CAN_ERROR_INVALID_CALLBACK;
 660:Drivers/STM32F4xx_HAL_Driver/Src/stm32f4xx_hal_can.c **** 
 661:Drivers/STM32F4xx_HAL_Driver/Src/stm32f4xx_hal_can.c ****         /* Return error status */
 662:Drivers/STM32F4xx_HAL_Driver/Src/stm32f4xx_hal_can.c ****         status =  HAL_ERROR;
 663:Drivers/STM32F4xx_HAL_Driver/Src/stm32f4xx_hal_can.c ****         break;
 664:Drivers/STM32F4xx_HAL_Driver/Src/stm32f4xx_hal_can.c ****     }
 665:Drivers/STM32F4xx_HAL_Driver/Src/stm32f4xx_hal_can.c ****   }
 666:Drivers/STM32F4xx_HAL_Driver/Src/stm32f4xx_hal_can.c ****   else
 667:Drivers/STM32F4xx_HAL_Driver/Src/stm32f4xx_hal_can.c ****   {
 668:Drivers/STM32F4xx_HAL_Driver/Src/stm32f4xx_hal_can.c ****     /* Update the error code */
 669:Drivers/STM32F4xx_HAL_Driver/Src/stm32f4xx_hal_can.c ****     hcan->ErrorCode |= HAL_CAN_ERROR_INVALID_CALLBACK;
 670:Drivers/STM32F4xx_HAL_Driver/Src/stm32f4xx_hal_can.c **** 
 671:Drivers/STM32F4xx_HAL_Driver/Src/stm32f4xx_hal_can.c ****     /* Return error status */
 672:Drivers/STM32F4xx_HAL_Driver/Src/stm32f4xx_hal_can.c ****     status =  HAL_ERROR;
 673:Drivers/STM32F4xx_HAL_Driver/Src/stm32f4xx_hal_can.c ****   }
 674:Drivers/STM32F4xx_HAL_Driver/Src/stm32f4xx_hal_can.c **** 
 675:Drivers/STM32F4xx_HAL_Driver/Src/stm32f4xx_hal_can.c ****   return status;
 676:Drivers/STM32F4xx_HAL_Driver/Src/stm32f4xx_hal_can.c **** }
 677:Drivers/STM32F4xx_HAL_Driver/Src/stm32f4xx_hal_can.c **** 
 678:Drivers/STM32F4xx_HAL_Driver/Src/stm32f4xx_hal_can.c **** /**
 679:Drivers/STM32F4xx_HAL_Driver/Src/stm32f4xx_hal_can.c ****   * @brief  Unregister a CAN CallBack.
ARM GAS  /tmp/cc6hBWA9.s 			page 21


 680:Drivers/STM32F4xx_HAL_Driver/Src/stm32f4xx_hal_can.c ****   *         CAN callback is redirected to the weak predefined callback
 681:Drivers/STM32F4xx_HAL_Driver/Src/stm32f4xx_hal_can.c ****   * @param  hcan pointer to a CAN_HandleTypeDef structure that contains
 682:Drivers/STM32F4xx_HAL_Driver/Src/stm32f4xx_hal_can.c ****   *         the configuration information for CAN module
 683:Drivers/STM32F4xx_HAL_Driver/Src/stm32f4xx_hal_can.c ****   * @param  CallbackID ID of the callback to be unregistered
 684:Drivers/STM32F4xx_HAL_Driver/Src/stm32f4xx_hal_can.c ****   *         This parameter can be one of the following values:
 685:Drivers/STM32F4xx_HAL_Driver/Src/stm32f4xx_hal_can.c ****   *           @arg @ref HAL_CAN_TX_MAILBOX0_COMPLETE_CB_ID Tx Mailbox 0 Complete callback ID
 686:Drivers/STM32F4xx_HAL_Driver/Src/stm32f4xx_hal_can.c ****   *           @arg @ref HAL_CAN_TX_MAILBOX1_COMPLETE_CB_ID Tx Mailbox 1 Complete callback ID
 687:Drivers/STM32F4xx_HAL_Driver/Src/stm32f4xx_hal_can.c ****   *           @arg @ref HAL_CAN_TX_MAILBOX2_COMPLETE_CB_ID Tx Mailbox 2 Complete callback ID
 688:Drivers/STM32F4xx_HAL_Driver/Src/stm32f4xx_hal_can.c ****   *           @arg @ref HAL_CAN_TX_MAILBOX0_ABORT_CB_ID Tx Mailbox 0 Abort callback ID
 689:Drivers/STM32F4xx_HAL_Driver/Src/stm32f4xx_hal_can.c ****   *           @arg @ref HAL_CAN_TX_MAILBOX1_ABORT_CB_ID Tx Mailbox 1 Abort callback ID
 690:Drivers/STM32F4xx_HAL_Driver/Src/stm32f4xx_hal_can.c ****   *           @arg @ref HAL_CAN_TX_MAILBOX2_ABORT_CB_ID Tx Mailbox 2 Abort callback ID
 691:Drivers/STM32F4xx_HAL_Driver/Src/stm32f4xx_hal_can.c ****   *           @arg @ref HAL_CAN_RX_FIFO0_MSG_PENDING_CB_ID Rx Fifo 0 message pending callback ID
 692:Drivers/STM32F4xx_HAL_Driver/Src/stm32f4xx_hal_can.c ****   *           @arg @ref HAL_CAN_RX_FIFO0_FULL_CB_ID Rx Fifo 0 full callback ID
 693:Drivers/STM32F4xx_HAL_Driver/Src/stm32f4xx_hal_can.c ****   *           @arg @ref HAL_CAN_RX_FIFO1_MSG_PENDING_CB_ID Rx Fifo 1 message pending callback ID
 694:Drivers/STM32F4xx_HAL_Driver/Src/stm32f4xx_hal_can.c ****   *           @arg @ref HAL_CAN_RX_FIFO1_FULL_CB_ID Rx Fifo 1 full callback ID
 695:Drivers/STM32F4xx_HAL_Driver/Src/stm32f4xx_hal_can.c ****   *           @arg @ref HAL_CAN_SLEEP_CB_ID Sleep callback ID
 696:Drivers/STM32F4xx_HAL_Driver/Src/stm32f4xx_hal_can.c ****   *           @arg @ref HAL_CAN_WAKEUP_FROM_RX_MSG_CB_ID Wake Up from Rx message callback ID
 697:Drivers/STM32F4xx_HAL_Driver/Src/stm32f4xx_hal_can.c ****   *           @arg @ref HAL_CAN_ERROR_CB_ID Error callback ID
 698:Drivers/STM32F4xx_HAL_Driver/Src/stm32f4xx_hal_can.c ****   *           @arg @ref HAL_CAN_MSPINIT_CB_ID MspInit callback ID
 699:Drivers/STM32F4xx_HAL_Driver/Src/stm32f4xx_hal_can.c ****   *           @arg @ref HAL_CAN_MSPDEINIT_CB_ID MspDeInit callback ID
 700:Drivers/STM32F4xx_HAL_Driver/Src/stm32f4xx_hal_can.c ****   * @retval HAL status
 701:Drivers/STM32F4xx_HAL_Driver/Src/stm32f4xx_hal_can.c ****   */
 702:Drivers/STM32F4xx_HAL_Driver/Src/stm32f4xx_hal_can.c **** HAL_StatusTypeDef HAL_CAN_UnRegisterCallback(CAN_HandleTypeDef *hcan, HAL_CAN_CallbackIDTypeDef Cal
 703:Drivers/STM32F4xx_HAL_Driver/Src/stm32f4xx_hal_can.c **** {
 704:Drivers/STM32F4xx_HAL_Driver/Src/stm32f4xx_hal_can.c ****   HAL_StatusTypeDef status = HAL_OK;
 705:Drivers/STM32F4xx_HAL_Driver/Src/stm32f4xx_hal_can.c **** 
 706:Drivers/STM32F4xx_HAL_Driver/Src/stm32f4xx_hal_can.c ****   if (hcan->State == HAL_CAN_STATE_READY)
 707:Drivers/STM32F4xx_HAL_Driver/Src/stm32f4xx_hal_can.c ****   {
 708:Drivers/STM32F4xx_HAL_Driver/Src/stm32f4xx_hal_can.c ****     switch (CallbackID)
 709:Drivers/STM32F4xx_HAL_Driver/Src/stm32f4xx_hal_can.c ****     {
 710:Drivers/STM32F4xx_HAL_Driver/Src/stm32f4xx_hal_can.c ****       case HAL_CAN_TX_MAILBOX0_COMPLETE_CB_ID :
 711:Drivers/STM32F4xx_HAL_Driver/Src/stm32f4xx_hal_can.c ****         hcan->TxMailbox0CompleteCallback = HAL_CAN_TxMailbox0CompleteCallback;
 712:Drivers/STM32F4xx_HAL_Driver/Src/stm32f4xx_hal_can.c ****         break;
 713:Drivers/STM32F4xx_HAL_Driver/Src/stm32f4xx_hal_can.c **** 
 714:Drivers/STM32F4xx_HAL_Driver/Src/stm32f4xx_hal_can.c ****       case HAL_CAN_TX_MAILBOX1_COMPLETE_CB_ID :
 715:Drivers/STM32F4xx_HAL_Driver/Src/stm32f4xx_hal_can.c ****         hcan->TxMailbox1CompleteCallback = HAL_CAN_TxMailbox1CompleteCallback;
 716:Drivers/STM32F4xx_HAL_Driver/Src/stm32f4xx_hal_can.c ****         break;
 717:Drivers/STM32F4xx_HAL_Driver/Src/stm32f4xx_hal_can.c **** 
 718:Drivers/STM32F4xx_HAL_Driver/Src/stm32f4xx_hal_can.c ****       case HAL_CAN_TX_MAILBOX2_COMPLETE_CB_ID :
 719:Drivers/STM32F4xx_HAL_Driver/Src/stm32f4xx_hal_can.c ****         hcan->TxMailbox2CompleteCallback = HAL_CAN_TxMailbox2CompleteCallback;
 720:Drivers/STM32F4xx_HAL_Driver/Src/stm32f4xx_hal_can.c ****         break;
 721:Drivers/STM32F4xx_HAL_Driver/Src/stm32f4xx_hal_can.c **** 
 722:Drivers/STM32F4xx_HAL_Driver/Src/stm32f4xx_hal_can.c ****       case HAL_CAN_TX_MAILBOX0_ABORT_CB_ID :
 723:Drivers/STM32F4xx_HAL_Driver/Src/stm32f4xx_hal_can.c ****         hcan->TxMailbox0AbortCallback = HAL_CAN_TxMailbox0AbortCallback;
 724:Drivers/STM32F4xx_HAL_Driver/Src/stm32f4xx_hal_can.c ****         break;
 725:Drivers/STM32F4xx_HAL_Driver/Src/stm32f4xx_hal_can.c **** 
 726:Drivers/STM32F4xx_HAL_Driver/Src/stm32f4xx_hal_can.c ****       case HAL_CAN_TX_MAILBOX1_ABORT_CB_ID :
 727:Drivers/STM32F4xx_HAL_Driver/Src/stm32f4xx_hal_can.c ****         hcan->TxMailbox1AbortCallback = HAL_CAN_TxMailbox1AbortCallback;
 728:Drivers/STM32F4xx_HAL_Driver/Src/stm32f4xx_hal_can.c ****         break;
 729:Drivers/STM32F4xx_HAL_Driver/Src/stm32f4xx_hal_can.c **** 
 730:Drivers/STM32F4xx_HAL_Driver/Src/stm32f4xx_hal_can.c ****       case HAL_CAN_TX_MAILBOX2_ABORT_CB_ID :
 731:Drivers/STM32F4xx_HAL_Driver/Src/stm32f4xx_hal_can.c ****         hcan->TxMailbox2AbortCallback = HAL_CAN_TxMailbox2AbortCallback;
 732:Drivers/STM32F4xx_HAL_Driver/Src/stm32f4xx_hal_can.c ****         break;
 733:Drivers/STM32F4xx_HAL_Driver/Src/stm32f4xx_hal_can.c **** 
 734:Drivers/STM32F4xx_HAL_Driver/Src/stm32f4xx_hal_can.c ****       case HAL_CAN_RX_FIFO0_MSG_PENDING_CB_ID :
 735:Drivers/STM32F4xx_HAL_Driver/Src/stm32f4xx_hal_can.c ****         hcan->RxFifo0MsgPendingCallback = HAL_CAN_RxFifo0MsgPendingCallback;
 736:Drivers/STM32F4xx_HAL_Driver/Src/stm32f4xx_hal_can.c ****         break;
ARM GAS  /tmp/cc6hBWA9.s 			page 22


 737:Drivers/STM32F4xx_HAL_Driver/Src/stm32f4xx_hal_can.c **** 
 738:Drivers/STM32F4xx_HAL_Driver/Src/stm32f4xx_hal_can.c ****       case HAL_CAN_RX_FIFO0_FULL_CB_ID :
 739:Drivers/STM32F4xx_HAL_Driver/Src/stm32f4xx_hal_can.c ****         hcan->RxFifo0FullCallback = HAL_CAN_RxFifo0FullCallback;
 740:Drivers/STM32F4xx_HAL_Driver/Src/stm32f4xx_hal_can.c ****         break;
 741:Drivers/STM32F4xx_HAL_Driver/Src/stm32f4xx_hal_can.c **** 
 742:Drivers/STM32F4xx_HAL_Driver/Src/stm32f4xx_hal_can.c ****       case HAL_CAN_RX_FIFO1_MSG_PENDING_CB_ID :
 743:Drivers/STM32F4xx_HAL_Driver/Src/stm32f4xx_hal_can.c ****         hcan->RxFifo1MsgPendingCallback = HAL_CAN_RxFifo1MsgPendingCallback;
 744:Drivers/STM32F4xx_HAL_Driver/Src/stm32f4xx_hal_can.c ****         break;
 745:Drivers/STM32F4xx_HAL_Driver/Src/stm32f4xx_hal_can.c **** 
 746:Drivers/STM32F4xx_HAL_Driver/Src/stm32f4xx_hal_can.c ****       case HAL_CAN_RX_FIFO1_FULL_CB_ID :
 747:Drivers/STM32F4xx_HAL_Driver/Src/stm32f4xx_hal_can.c ****         hcan->RxFifo1FullCallback = HAL_CAN_RxFifo1FullCallback;
 748:Drivers/STM32F4xx_HAL_Driver/Src/stm32f4xx_hal_can.c ****         break;
 749:Drivers/STM32F4xx_HAL_Driver/Src/stm32f4xx_hal_can.c **** 
 750:Drivers/STM32F4xx_HAL_Driver/Src/stm32f4xx_hal_can.c ****       case HAL_CAN_SLEEP_CB_ID :
 751:Drivers/STM32F4xx_HAL_Driver/Src/stm32f4xx_hal_can.c ****         hcan->SleepCallback = HAL_CAN_SleepCallback;
 752:Drivers/STM32F4xx_HAL_Driver/Src/stm32f4xx_hal_can.c ****         break;
 753:Drivers/STM32F4xx_HAL_Driver/Src/stm32f4xx_hal_can.c **** 
 754:Drivers/STM32F4xx_HAL_Driver/Src/stm32f4xx_hal_can.c ****       case HAL_CAN_WAKEUP_FROM_RX_MSG_CB_ID :
 755:Drivers/STM32F4xx_HAL_Driver/Src/stm32f4xx_hal_can.c ****         hcan->WakeUpFromRxMsgCallback = HAL_CAN_WakeUpFromRxMsgCallback;
 756:Drivers/STM32F4xx_HAL_Driver/Src/stm32f4xx_hal_can.c ****         break;
 757:Drivers/STM32F4xx_HAL_Driver/Src/stm32f4xx_hal_can.c **** 
 758:Drivers/STM32F4xx_HAL_Driver/Src/stm32f4xx_hal_can.c ****       case HAL_CAN_ERROR_CB_ID :
 759:Drivers/STM32F4xx_HAL_Driver/Src/stm32f4xx_hal_can.c ****         hcan->ErrorCallback = HAL_CAN_ErrorCallback;
 760:Drivers/STM32F4xx_HAL_Driver/Src/stm32f4xx_hal_can.c ****         break;
 761:Drivers/STM32F4xx_HAL_Driver/Src/stm32f4xx_hal_can.c **** 
 762:Drivers/STM32F4xx_HAL_Driver/Src/stm32f4xx_hal_can.c ****       case HAL_CAN_MSPINIT_CB_ID :
 763:Drivers/STM32F4xx_HAL_Driver/Src/stm32f4xx_hal_can.c ****         hcan->MspInitCallback = HAL_CAN_MspInit;
 764:Drivers/STM32F4xx_HAL_Driver/Src/stm32f4xx_hal_can.c ****         break;
 765:Drivers/STM32F4xx_HAL_Driver/Src/stm32f4xx_hal_can.c **** 
 766:Drivers/STM32F4xx_HAL_Driver/Src/stm32f4xx_hal_can.c ****       case HAL_CAN_MSPDEINIT_CB_ID :
 767:Drivers/STM32F4xx_HAL_Driver/Src/stm32f4xx_hal_can.c ****         hcan->MspDeInitCallback = HAL_CAN_MspDeInit;
 768:Drivers/STM32F4xx_HAL_Driver/Src/stm32f4xx_hal_can.c ****         break;
 769:Drivers/STM32F4xx_HAL_Driver/Src/stm32f4xx_hal_can.c **** 
 770:Drivers/STM32F4xx_HAL_Driver/Src/stm32f4xx_hal_can.c ****       default :
 771:Drivers/STM32F4xx_HAL_Driver/Src/stm32f4xx_hal_can.c ****         /* Update the error code */
 772:Drivers/STM32F4xx_HAL_Driver/Src/stm32f4xx_hal_can.c ****         hcan->ErrorCode |= HAL_CAN_ERROR_INVALID_CALLBACK;
 773:Drivers/STM32F4xx_HAL_Driver/Src/stm32f4xx_hal_can.c **** 
 774:Drivers/STM32F4xx_HAL_Driver/Src/stm32f4xx_hal_can.c ****         /* Return error status */
 775:Drivers/STM32F4xx_HAL_Driver/Src/stm32f4xx_hal_can.c ****         status =  HAL_ERROR;
 776:Drivers/STM32F4xx_HAL_Driver/Src/stm32f4xx_hal_can.c ****         break;
 777:Drivers/STM32F4xx_HAL_Driver/Src/stm32f4xx_hal_can.c ****     }
 778:Drivers/STM32F4xx_HAL_Driver/Src/stm32f4xx_hal_can.c ****   }
 779:Drivers/STM32F4xx_HAL_Driver/Src/stm32f4xx_hal_can.c ****   else if (hcan->State == HAL_CAN_STATE_RESET)
 780:Drivers/STM32F4xx_HAL_Driver/Src/stm32f4xx_hal_can.c ****   {
 781:Drivers/STM32F4xx_HAL_Driver/Src/stm32f4xx_hal_can.c ****     switch (CallbackID)
 782:Drivers/STM32F4xx_HAL_Driver/Src/stm32f4xx_hal_can.c ****     {
 783:Drivers/STM32F4xx_HAL_Driver/Src/stm32f4xx_hal_can.c ****       case HAL_CAN_MSPINIT_CB_ID :
 784:Drivers/STM32F4xx_HAL_Driver/Src/stm32f4xx_hal_can.c ****         hcan->MspInitCallback = HAL_CAN_MspInit;
 785:Drivers/STM32F4xx_HAL_Driver/Src/stm32f4xx_hal_can.c ****         break;
 786:Drivers/STM32F4xx_HAL_Driver/Src/stm32f4xx_hal_can.c **** 
 787:Drivers/STM32F4xx_HAL_Driver/Src/stm32f4xx_hal_can.c ****       case HAL_CAN_MSPDEINIT_CB_ID :
 788:Drivers/STM32F4xx_HAL_Driver/Src/stm32f4xx_hal_can.c ****         hcan->MspDeInitCallback = HAL_CAN_MspDeInit;
 789:Drivers/STM32F4xx_HAL_Driver/Src/stm32f4xx_hal_can.c ****         break;
 790:Drivers/STM32F4xx_HAL_Driver/Src/stm32f4xx_hal_can.c **** 
 791:Drivers/STM32F4xx_HAL_Driver/Src/stm32f4xx_hal_can.c ****       default :
 792:Drivers/STM32F4xx_HAL_Driver/Src/stm32f4xx_hal_can.c ****         /* Update the error code */
 793:Drivers/STM32F4xx_HAL_Driver/Src/stm32f4xx_hal_can.c ****         hcan->ErrorCode |= HAL_CAN_ERROR_INVALID_CALLBACK;
ARM GAS  /tmp/cc6hBWA9.s 			page 23


 794:Drivers/STM32F4xx_HAL_Driver/Src/stm32f4xx_hal_can.c **** 
 795:Drivers/STM32F4xx_HAL_Driver/Src/stm32f4xx_hal_can.c ****         /* Return error status */
 796:Drivers/STM32F4xx_HAL_Driver/Src/stm32f4xx_hal_can.c ****         status =  HAL_ERROR;
 797:Drivers/STM32F4xx_HAL_Driver/Src/stm32f4xx_hal_can.c ****         break;
 798:Drivers/STM32F4xx_HAL_Driver/Src/stm32f4xx_hal_can.c ****     }
 799:Drivers/STM32F4xx_HAL_Driver/Src/stm32f4xx_hal_can.c ****   }
 800:Drivers/STM32F4xx_HAL_Driver/Src/stm32f4xx_hal_can.c ****   else
 801:Drivers/STM32F4xx_HAL_Driver/Src/stm32f4xx_hal_can.c ****   {
 802:Drivers/STM32F4xx_HAL_Driver/Src/stm32f4xx_hal_can.c ****     /* Update the error code */
 803:Drivers/STM32F4xx_HAL_Driver/Src/stm32f4xx_hal_can.c ****     hcan->ErrorCode |= HAL_CAN_ERROR_INVALID_CALLBACK;
 804:Drivers/STM32F4xx_HAL_Driver/Src/stm32f4xx_hal_can.c **** 
 805:Drivers/STM32F4xx_HAL_Driver/Src/stm32f4xx_hal_can.c ****     /* Return error status */
 806:Drivers/STM32F4xx_HAL_Driver/Src/stm32f4xx_hal_can.c ****     status =  HAL_ERROR;
 807:Drivers/STM32F4xx_HAL_Driver/Src/stm32f4xx_hal_can.c ****   }
 808:Drivers/STM32F4xx_HAL_Driver/Src/stm32f4xx_hal_can.c **** 
 809:Drivers/STM32F4xx_HAL_Driver/Src/stm32f4xx_hal_can.c ****   return status;
 810:Drivers/STM32F4xx_HAL_Driver/Src/stm32f4xx_hal_can.c **** }
 811:Drivers/STM32F4xx_HAL_Driver/Src/stm32f4xx_hal_can.c **** #endif /* USE_HAL_CAN_REGISTER_CALLBACKS */
 812:Drivers/STM32F4xx_HAL_Driver/Src/stm32f4xx_hal_can.c **** 
 813:Drivers/STM32F4xx_HAL_Driver/Src/stm32f4xx_hal_can.c **** /**
 814:Drivers/STM32F4xx_HAL_Driver/Src/stm32f4xx_hal_can.c ****   * @}
 815:Drivers/STM32F4xx_HAL_Driver/Src/stm32f4xx_hal_can.c ****   */
 816:Drivers/STM32F4xx_HAL_Driver/Src/stm32f4xx_hal_can.c **** 
 817:Drivers/STM32F4xx_HAL_Driver/Src/stm32f4xx_hal_can.c **** /** @defgroup CAN_Exported_Functions_Group2 Configuration functions
 818:Drivers/STM32F4xx_HAL_Driver/Src/stm32f4xx_hal_can.c ****   * @brief    Configuration functions.
 819:Drivers/STM32F4xx_HAL_Driver/Src/stm32f4xx_hal_can.c ****   *
 820:Drivers/STM32F4xx_HAL_Driver/Src/stm32f4xx_hal_can.c **** @verbatim
 821:Drivers/STM32F4xx_HAL_Driver/Src/stm32f4xx_hal_can.c ****   ==============================================================================
 822:Drivers/STM32F4xx_HAL_Driver/Src/stm32f4xx_hal_can.c ****               ##### Configuration functions #####
 823:Drivers/STM32F4xx_HAL_Driver/Src/stm32f4xx_hal_can.c ****   ==============================================================================
 824:Drivers/STM32F4xx_HAL_Driver/Src/stm32f4xx_hal_can.c ****     [..]  This section provides functions allowing to:
 825:Drivers/STM32F4xx_HAL_Driver/Src/stm32f4xx_hal_can.c ****       (+) HAL_CAN_ConfigFilter            : Configure the CAN reception filters
 826:Drivers/STM32F4xx_HAL_Driver/Src/stm32f4xx_hal_can.c **** 
 827:Drivers/STM32F4xx_HAL_Driver/Src/stm32f4xx_hal_can.c **** @endverbatim
 828:Drivers/STM32F4xx_HAL_Driver/Src/stm32f4xx_hal_can.c ****   * @{
 829:Drivers/STM32F4xx_HAL_Driver/Src/stm32f4xx_hal_can.c ****   */
 830:Drivers/STM32F4xx_HAL_Driver/Src/stm32f4xx_hal_can.c **** 
 831:Drivers/STM32F4xx_HAL_Driver/Src/stm32f4xx_hal_can.c **** /**
 832:Drivers/STM32F4xx_HAL_Driver/Src/stm32f4xx_hal_can.c ****   * @brief  Configures the CAN reception filter according to the specified
 833:Drivers/STM32F4xx_HAL_Driver/Src/stm32f4xx_hal_can.c ****   *         parameters in the CAN_FilterInitStruct.
 834:Drivers/STM32F4xx_HAL_Driver/Src/stm32f4xx_hal_can.c ****   * @param  hcan pointer to a CAN_HandleTypeDef structure that contains
 835:Drivers/STM32F4xx_HAL_Driver/Src/stm32f4xx_hal_can.c ****   *         the configuration information for the specified CAN.
 836:Drivers/STM32F4xx_HAL_Driver/Src/stm32f4xx_hal_can.c ****   * @param  sFilterConfig pointer to a CAN_FilterTypeDef structure that
 837:Drivers/STM32F4xx_HAL_Driver/Src/stm32f4xx_hal_can.c ****   *         contains the filter configuration information.
 838:Drivers/STM32F4xx_HAL_Driver/Src/stm32f4xx_hal_can.c ****   * @retval None
 839:Drivers/STM32F4xx_HAL_Driver/Src/stm32f4xx_hal_can.c ****   */
 840:Drivers/STM32F4xx_HAL_Driver/Src/stm32f4xx_hal_can.c **** HAL_StatusTypeDef HAL_CAN_ConfigFilter(CAN_HandleTypeDef *hcan, const CAN_FilterTypeDef *sFilterCon
 841:Drivers/STM32F4xx_HAL_Driver/Src/stm32f4xx_hal_can.c **** {
 371              		.loc 1 841 1 is_stmt 1 view -0
 372              		.cfi_startproc
 373              		@ args = 0, pretend = 0, frame = 0
 374              		@ frame_needed = 0, uses_anonymous_args = 0
 842:Drivers/STM32F4xx_HAL_Driver/Src/stm32f4xx_hal_can.c ****   uint32_t filternbrbitpos;
 375              		.loc 1 842 3 view .LVU105
 843:Drivers/STM32F4xx_HAL_Driver/Src/stm32f4xx_hal_can.c ****   CAN_TypeDef *can_ip;
 376              		.loc 1 843 3 view .LVU106
 844:Drivers/STM32F4xx_HAL_Driver/Src/stm32f4xx_hal_can.c ****   HAL_CAN_StateTypeDef state = hcan->State;
ARM GAS  /tmp/cc6hBWA9.s 			page 24


 377              		.loc 1 844 3 view .LVU107
 378              		.loc 1 844 24 is_stmt 0 view .LVU108
 379 0000 90F82030 		ldrb	r3, [r0, #32]	@ zero_extendqisi2
 380              	.LVL16:
 845:Drivers/STM32F4xx_HAL_Driver/Src/stm32f4xx_hal_can.c **** 
 846:Drivers/STM32F4xx_HAL_Driver/Src/stm32f4xx_hal_can.c ****   if ((state == HAL_CAN_STATE_READY) ||
 381              		.loc 1 846 3 is_stmt 1 view .LVU109
 382              		.loc 1 846 38 is_stmt 0 view .LVU110
 383 0004 013B     		subs	r3, r3, #1
 384              	.LVL17:
 385              		.loc 1 846 38 view .LVU111
 386 0006 DBB2     		uxtb	r3, r3
 387              		.loc 1 846 6 view .LVU112
 388 0008 012B     		cmp	r3, #1
 389 000a 05D9     		bls	.L50
 847:Drivers/STM32F4xx_HAL_Driver/Src/stm32f4xx_hal_can.c ****       (state == HAL_CAN_STATE_LISTENING))
 848:Drivers/STM32F4xx_HAL_Driver/Src/stm32f4xx_hal_can.c ****   {
 849:Drivers/STM32F4xx_HAL_Driver/Src/stm32f4xx_hal_can.c ****     /* Check the parameters */
 850:Drivers/STM32F4xx_HAL_Driver/Src/stm32f4xx_hal_can.c ****     assert_param(IS_CAN_FILTER_ID_HALFWORD(sFilterConfig->FilterIdHigh));
 851:Drivers/STM32F4xx_HAL_Driver/Src/stm32f4xx_hal_can.c ****     assert_param(IS_CAN_FILTER_ID_HALFWORD(sFilterConfig->FilterIdLow));
 852:Drivers/STM32F4xx_HAL_Driver/Src/stm32f4xx_hal_can.c ****     assert_param(IS_CAN_FILTER_ID_HALFWORD(sFilterConfig->FilterMaskIdHigh));
 853:Drivers/STM32F4xx_HAL_Driver/Src/stm32f4xx_hal_can.c ****     assert_param(IS_CAN_FILTER_ID_HALFWORD(sFilterConfig->FilterMaskIdLow));
 854:Drivers/STM32F4xx_HAL_Driver/Src/stm32f4xx_hal_can.c ****     assert_param(IS_CAN_FILTER_MODE(sFilterConfig->FilterMode));
 855:Drivers/STM32F4xx_HAL_Driver/Src/stm32f4xx_hal_can.c ****     assert_param(IS_CAN_FILTER_SCALE(sFilterConfig->FilterScale));
 856:Drivers/STM32F4xx_HAL_Driver/Src/stm32f4xx_hal_can.c ****     assert_param(IS_CAN_FILTER_FIFO(sFilterConfig->FilterFIFOAssignment));
 857:Drivers/STM32F4xx_HAL_Driver/Src/stm32f4xx_hal_can.c ****     assert_param(IS_CAN_FILTER_ACTIVATION(sFilterConfig->FilterActivation));
 858:Drivers/STM32F4xx_HAL_Driver/Src/stm32f4xx_hal_can.c **** 
 859:Drivers/STM32F4xx_HAL_Driver/Src/stm32f4xx_hal_can.c **** #if defined(CAN3)
 860:Drivers/STM32F4xx_HAL_Driver/Src/stm32f4xx_hal_can.c ****     /* Check the CAN instance */
 861:Drivers/STM32F4xx_HAL_Driver/Src/stm32f4xx_hal_can.c ****     if (hcan->Instance == CAN3)
 862:Drivers/STM32F4xx_HAL_Driver/Src/stm32f4xx_hal_can.c ****     {
 863:Drivers/STM32F4xx_HAL_Driver/Src/stm32f4xx_hal_can.c ****       /* CAN3 is single instance with 14 dedicated filters banks */
 864:Drivers/STM32F4xx_HAL_Driver/Src/stm32f4xx_hal_can.c ****       can_ip = hcan->Instance;
 865:Drivers/STM32F4xx_HAL_Driver/Src/stm32f4xx_hal_can.c **** 
 866:Drivers/STM32F4xx_HAL_Driver/Src/stm32f4xx_hal_can.c ****       /* Check the parameters */
 867:Drivers/STM32F4xx_HAL_Driver/Src/stm32f4xx_hal_can.c ****       assert_param(IS_CAN_FILTER_BANK_SINGLE(sFilterConfig->FilterBank));
 868:Drivers/STM32F4xx_HAL_Driver/Src/stm32f4xx_hal_can.c ****     }
 869:Drivers/STM32F4xx_HAL_Driver/Src/stm32f4xx_hal_can.c ****     else
 870:Drivers/STM32F4xx_HAL_Driver/Src/stm32f4xx_hal_can.c ****     {
 871:Drivers/STM32F4xx_HAL_Driver/Src/stm32f4xx_hal_can.c ****       /* CAN1 and CAN2 are dual instances with 28 common filters banks */
 872:Drivers/STM32F4xx_HAL_Driver/Src/stm32f4xx_hal_can.c ****       /* Select master instance to access the filter banks */
 873:Drivers/STM32F4xx_HAL_Driver/Src/stm32f4xx_hal_can.c ****       can_ip = CAN1;
 874:Drivers/STM32F4xx_HAL_Driver/Src/stm32f4xx_hal_can.c **** 
 875:Drivers/STM32F4xx_HAL_Driver/Src/stm32f4xx_hal_can.c ****       /* Check the parameters */
 876:Drivers/STM32F4xx_HAL_Driver/Src/stm32f4xx_hal_can.c ****       assert_param(IS_CAN_FILTER_BANK_DUAL(sFilterConfig->FilterBank));
 877:Drivers/STM32F4xx_HAL_Driver/Src/stm32f4xx_hal_can.c ****       assert_param(IS_CAN_FILTER_BANK_DUAL(sFilterConfig->SlaveStartFilterBank));
 878:Drivers/STM32F4xx_HAL_Driver/Src/stm32f4xx_hal_can.c ****     }
 879:Drivers/STM32F4xx_HAL_Driver/Src/stm32f4xx_hal_can.c **** #elif defined(CAN2)
 880:Drivers/STM32F4xx_HAL_Driver/Src/stm32f4xx_hal_can.c ****     /* CAN1 and CAN2 are dual instances with 28 common filters banks */
 881:Drivers/STM32F4xx_HAL_Driver/Src/stm32f4xx_hal_can.c ****     /* Select master instance to access the filter banks */
 882:Drivers/STM32F4xx_HAL_Driver/Src/stm32f4xx_hal_can.c ****     can_ip = CAN1;
 883:Drivers/STM32F4xx_HAL_Driver/Src/stm32f4xx_hal_can.c **** 
 884:Drivers/STM32F4xx_HAL_Driver/Src/stm32f4xx_hal_can.c ****     /* Check the parameters */
 885:Drivers/STM32F4xx_HAL_Driver/Src/stm32f4xx_hal_can.c ****     assert_param(IS_CAN_FILTER_BANK_DUAL(sFilterConfig->FilterBank));
 886:Drivers/STM32F4xx_HAL_Driver/Src/stm32f4xx_hal_can.c ****     assert_param(IS_CAN_FILTER_BANK_DUAL(sFilterConfig->SlaveStartFilterBank));
 887:Drivers/STM32F4xx_HAL_Driver/Src/stm32f4xx_hal_can.c **** #else
 888:Drivers/STM32F4xx_HAL_Driver/Src/stm32f4xx_hal_can.c ****     /* CAN1 is single instance with 14 dedicated filters banks */
ARM GAS  /tmp/cc6hBWA9.s 			page 25


 889:Drivers/STM32F4xx_HAL_Driver/Src/stm32f4xx_hal_can.c ****     can_ip = hcan->Instance;
 890:Drivers/STM32F4xx_HAL_Driver/Src/stm32f4xx_hal_can.c **** 
 891:Drivers/STM32F4xx_HAL_Driver/Src/stm32f4xx_hal_can.c ****     /* Check the parameters */
 892:Drivers/STM32F4xx_HAL_Driver/Src/stm32f4xx_hal_can.c ****     assert_param(IS_CAN_FILTER_BANK_SINGLE(sFilterConfig->FilterBank));
 893:Drivers/STM32F4xx_HAL_Driver/Src/stm32f4xx_hal_can.c **** #endif /* CAN3 */
 894:Drivers/STM32F4xx_HAL_Driver/Src/stm32f4xx_hal_can.c **** 
 895:Drivers/STM32F4xx_HAL_Driver/Src/stm32f4xx_hal_can.c ****     /* Initialisation mode for the filter */
 896:Drivers/STM32F4xx_HAL_Driver/Src/stm32f4xx_hal_can.c ****     SET_BIT(can_ip->FMR, CAN_FMR_FINIT);
 897:Drivers/STM32F4xx_HAL_Driver/Src/stm32f4xx_hal_can.c **** 
 898:Drivers/STM32F4xx_HAL_Driver/Src/stm32f4xx_hal_can.c **** #if defined(CAN3)
 899:Drivers/STM32F4xx_HAL_Driver/Src/stm32f4xx_hal_can.c ****     /* Check the CAN instance */
 900:Drivers/STM32F4xx_HAL_Driver/Src/stm32f4xx_hal_can.c ****     if (can_ip == CAN1)
 901:Drivers/STM32F4xx_HAL_Driver/Src/stm32f4xx_hal_can.c ****     {
 902:Drivers/STM32F4xx_HAL_Driver/Src/stm32f4xx_hal_can.c ****       /* Select the start filter number of CAN2 slave instance */
 903:Drivers/STM32F4xx_HAL_Driver/Src/stm32f4xx_hal_can.c ****       CLEAR_BIT(can_ip->FMR, CAN_FMR_CAN2SB);
 904:Drivers/STM32F4xx_HAL_Driver/Src/stm32f4xx_hal_can.c ****       SET_BIT(can_ip->FMR, sFilterConfig->SlaveStartFilterBank << CAN_FMR_CAN2SB_Pos);
 905:Drivers/STM32F4xx_HAL_Driver/Src/stm32f4xx_hal_can.c ****     }
 906:Drivers/STM32F4xx_HAL_Driver/Src/stm32f4xx_hal_can.c **** 
 907:Drivers/STM32F4xx_HAL_Driver/Src/stm32f4xx_hal_can.c **** #elif defined(CAN2)
 908:Drivers/STM32F4xx_HAL_Driver/Src/stm32f4xx_hal_can.c ****     /* Select the start filter number of CAN2 slave instance */
 909:Drivers/STM32F4xx_HAL_Driver/Src/stm32f4xx_hal_can.c ****     CLEAR_BIT(can_ip->FMR, CAN_FMR_CAN2SB);
 910:Drivers/STM32F4xx_HAL_Driver/Src/stm32f4xx_hal_can.c ****     SET_BIT(can_ip->FMR, sFilterConfig->SlaveStartFilterBank << CAN_FMR_CAN2SB_Pos);
 911:Drivers/STM32F4xx_HAL_Driver/Src/stm32f4xx_hal_can.c **** 
 912:Drivers/STM32F4xx_HAL_Driver/Src/stm32f4xx_hal_can.c **** #endif /* CAN3 */
 913:Drivers/STM32F4xx_HAL_Driver/Src/stm32f4xx_hal_can.c ****     /* Convert filter number into bit position */
 914:Drivers/STM32F4xx_HAL_Driver/Src/stm32f4xx_hal_can.c ****     filternbrbitpos = (uint32_t)1 << (sFilterConfig->FilterBank & 0x1FU);
 915:Drivers/STM32F4xx_HAL_Driver/Src/stm32f4xx_hal_can.c **** 
 916:Drivers/STM32F4xx_HAL_Driver/Src/stm32f4xx_hal_can.c ****     /* Filter Deactivation */
 917:Drivers/STM32F4xx_HAL_Driver/Src/stm32f4xx_hal_can.c ****     CLEAR_BIT(can_ip->FA1R, filternbrbitpos);
 918:Drivers/STM32F4xx_HAL_Driver/Src/stm32f4xx_hal_can.c **** 
 919:Drivers/STM32F4xx_HAL_Driver/Src/stm32f4xx_hal_can.c ****     /* Filter Scale */
 920:Drivers/STM32F4xx_HAL_Driver/Src/stm32f4xx_hal_can.c ****     if (sFilterConfig->FilterScale == CAN_FILTERSCALE_16BIT)
 921:Drivers/STM32F4xx_HAL_Driver/Src/stm32f4xx_hal_can.c ****     {
 922:Drivers/STM32F4xx_HAL_Driver/Src/stm32f4xx_hal_can.c ****       /* 16-bit scale for the filter */
 923:Drivers/STM32F4xx_HAL_Driver/Src/stm32f4xx_hal_can.c ****       CLEAR_BIT(can_ip->FS1R, filternbrbitpos);
 924:Drivers/STM32F4xx_HAL_Driver/Src/stm32f4xx_hal_can.c **** 
 925:Drivers/STM32F4xx_HAL_Driver/Src/stm32f4xx_hal_can.c ****       /* First 16-bit identifier and First 16-bit mask */
 926:Drivers/STM32F4xx_HAL_Driver/Src/stm32f4xx_hal_can.c ****       /* Or First 16-bit identifier and Second 16-bit identifier */
 927:Drivers/STM32F4xx_HAL_Driver/Src/stm32f4xx_hal_can.c ****       can_ip->sFilterRegister[sFilterConfig->FilterBank].FR1 =
 928:Drivers/STM32F4xx_HAL_Driver/Src/stm32f4xx_hal_can.c ****         ((0x0000FFFFU & (uint32_t)sFilterConfig->FilterMaskIdLow) << 16U) |
 929:Drivers/STM32F4xx_HAL_Driver/Src/stm32f4xx_hal_can.c ****         (0x0000FFFFU & (uint32_t)sFilterConfig->FilterIdLow);
 930:Drivers/STM32F4xx_HAL_Driver/Src/stm32f4xx_hal_can.c **** 
 931:Drivers/STM32F4xx_HAL_Driver/Src/stm32f4xx_hal_can.c ****       /* Second 16-bit identifier and Second 16-bit mask */
 932:Drivers/STM32F4xx_HAL_Driver/Src/stm32f4xx_hal_can.c ****       /* Or Third 16-bit identifier and Fourth 16-bit identifier */
 933:Drivers/STM32F4xx_HAL_Driver/Src/stm32f4xx_hal_can.c ****       can_ip->sFilterRegister[sFilterConfig->FilterBank].FR2 =
 934:Drivers/STM32F4xx_HAL_Driver/Src/stm32f4xx_hal_can.c ****         ((0x0000FFFFU & (uint32_t)sFilterConfig->FilterMaskIdHigh) << 16U) |
 935:Drivers/STM32F4xx_HAL_Driver/Src/stm32f4xx_hal_can.c ****         (0x0000FFFFU & (uint32_t)sFilterConfig->FilterIdHigh);
 936:Drivers/STM32F4xx_HAL_Driver/Src/stm32f4xx_hal_can.c ****     }
 937:Drivers/STM32F4xx_HAL_Driver/Src/stm32f4xx_hal_can.c **** 
 938:Drivers/STM32F4xx_HAL_Driver/Src/stm32f4xx_hal_can.c ****     if (sFilterConfig->FilterScale == CAN_FILTERSCALE_32BIT)
 939:Drivers/STM32F4xx_HAL_Driver/Src/stm32f4xx_hal_can.c ****     {
 940:Drivers/STM32F4xx_HAL_Driver/Src/stm32f4xx_hal_can.c ****       /* 32-bit scale for the filter */
 941:Drivers/STM32F4xx_HAL_Driver/Src/stm32f4xx_hal_can.c ****       SET_BIT(can_ip->FS1R, filternbrbitpos);
 942:Drivers/STM32F4xx_HAL_Driver/Src/stm32f4xx_hal_can.c **** 
 943:Drivers/STM32F4xx_HAL_Driver/Src/stm32f4xx_hal_can.c ****       /* 32-bit identifier or First 32-bit identifier */
 944:Drivers/STM32F4xx_HAL_Driver/Src/stm32f4xx_hal_can.c ****       can_ip->sFilterRegister[sFilterConfig->FilterBank].FR1 =
 945:Drivers/STM32F4xx_HAL_Driver/Src/stm32f4xx_hal_can.c ****         ((0x0000FFFFU & (uint32_t)sFilterConfig->FilterIdHigh) << 16U) |
ARM GAS  /tmp/cc6hBWA9.s 			page 26


 946:Drivers/STM32F4xx_HAL_Driver/Src/stm32f4xx_hal_can.c ****         (0x0000FFFFU & (uint32_t)sFilterConfig->FilterIdLow);
 947:Drivers/STM32F4xx_HAL_Driver/Src/stm32f4xx_hal_can.c **** 
 948:Drivers/STM32F4xx_HAL_Driver/Src/stm32f4xx_hal_can.c ****       /* 32-bit mask or Second 32-bit identifier */
 949:Drivers/STM32F4xx_HAL_Driver/Src/stm32f4xx_hal_can.c ****       can_ip->sFilterRegister[sFilterConfig->FilterBank].FR2 =
 950:Drivers/STM32F4xx_HAL_Driver/Src/stm32f4xx_hal_can.c ****         ((0x0000FFFFU & (uint32_t)sFilterConfig->FilterMaskIdHigh) << 16U) |
 951:Drivers/STM32F4xx_HAL_Driver/Src/stm32f4xx_hal_can.c ****         (0x0000FFFFU & (uint32_t)sFilterConfig->FilterMaskIdLow);
 952:Drivers/STM32F4xx_HAL_Driver/Src/stm32f4xx_hal_can.c ****     }
 953:Drivers/STM32F4xx_HAL_Driver/Src/stm32f4xx_hal_can.c **** 
 954:Drivers/STM32F4xx_HAL_Driver/Src/stm32f4xx_hal_can.c ****     /* Filter Mode */
 955:Drivers/STM32F4xx_HAL_Driver/Src/stm32f4xx_hal_can.c ****     if (sFilterConfig->FilterMode == CAN_FILTERMODE_IDMASK)
 956:Drivers/STM32F4xx_HAL_Driver/Src/stm32f4xx_hal_can.c ****     {
 957:Drivers/STM32F4xx_HAL_Driver/Src/stm32f4xx_hal_can.c ****       /* Id/Mask mode for the filter*/
 958:Drivers/STM32F4xx_HAL_Driver/Src/stm32f4xx_hal_can.c ****       CLEAR_BIT(can_ip->FM1R, filternbrbitpos);
 959:Drivers/STM32F4xx_HAL_Driver/Src/stm32f4xx_hal_can.c ****     }
 960:Drivers/STM32F4xx_HAL_Driver/Src/stm32f4xx_hal_can.c ****     else /* CAN_FilterInitStruct->CAN_FilterMode == CAN_FilterMode_IdList */
 961:Drivers/STM32F4xx_HAL_Driver/Src/stm32f4xx_hal_can.c ****     {
 962:Drivers/STM32F4xx_HAL_Driver/Src/stm32f4xx_hal_can.c ****       /* Identifier list mode for the filter*/
 963:Drivers/STM32F4xx_HAL_Driver/Src/stm32f4xx_hal_can.c ****       SET_BIT(can_ip->FM1R, filternbrbitpos);
 964:Drivers/STM32F4xx_HAL_Driver/Src/stm32f4xx_hal_can.c ****     }
 965:Drivers/STM32F4xx_HAL_Driver/Src/stm32f4xx_hal_can.c **** 
 966:Drivers/STM32F4xx_HAL_Driver/Src/stm32f4xx_hal_can.c ****     /* Filter FIFO assignment */
 967:Drivers/STM32F4xx_HAL_Driver/Src/stm32f4xx_hal_can.c ****     if (sFilterConfig->FilterFIFOAssignment == CAN_FILTER_FIFO0)
 968:Drivers/STM32F4xx_HAL_Driver/Src/stm32f4xx_hal_can.c ****     {
 969:Drivers/STM32F4xx_HAL_Driver/Src/stm32f4xx_hal_can.c ****       /* FIFO 0 assignation for the filter */
 970:Drivers/STM32F4xx_HAL_Driver/Src/stm32f4xx_hal_can.c ****       CLEAR_BIT(can_ip->FFA1R, filternbrbitpos);
 971:Drivers/STM32F4xx_HAL_Driver/Src/stm32f4xx_hal_can.c ****     }
 972:Drivers/STM32F4xx_HAL_Driver/Src/stm32f4xx_hal_can.c ****     else
 973:Drivers/STM32F4xx_HAL_Driver/Src/stm32f4xx_hal_can.c ****     {
 974:Drivers/STM32F4xx_HAL_Driver/Src/stm32f4xx_hal_can.c ****       /* FIFO 1 assignation for the filter */
 975:Drivers/STM32F4xx_HAL_Driver/Src/stm32f4xx_hal_can.c ****       SET_BIT(can_ip->FFA1R, filternbrbitpos);
 976:Drivers/STM32F4xx_HAL_Driver/Src/stm32f4xx_hal_can.c ****     }
 977:Drivers/STM32F4xx_HAL_Driver/Src/stm32f4xx_hal_can.c **** 
 978:Drivers/STM32F4xx_HAL_Driver/Src/stm32f4xx_hal_can.c ****     /* Filter activation */
 979:Drivers/STM32F4xx_HAL_Driver/Src/stm32f4xx_hal_can.c ****     if (sFilterConfig->FilterActivation == CAN_FILTER_ENABLE)
 980:Drivers/STM32F4xx_HAL_Driver/Src/stm32f4xx_hal_can.c ****     {
 981:Drivers/STM32F4xx_HAL_Driver/Src/stm32f4xx_hal_can.c ****       SET_BIT(can_ip->FA1R, filternbrbitpos);
 982:Drivers/STM32F4xx_HAL_Driver/Src/stm32f4xx_hal_can.c ****     }
 983:Drivers/STM32F4xx_HAL_Driver/Src/stm32f4xx_hal_can.c **** 
 984:Drivers/STM32F4xx_HAL_Driver/Src/stm32f4xx_hal_can.c ****     /* Leave the initialisation mode for the filter */
 985:Drivers/STM32F4xx_HAL_Driver/Src/stm32f4xx_hal_can.c ****     CLEAR_BIT(can_ip->FMR, CAN_FMR_FINIT);
 986:Drivers/STM32F4xx_HAL_Driver/Src/stm32f4xx_hal_can.c **** 
 987:Drivers/STM32F4xx_HAL_Driver/Src/stm32f4xx_hal_can.c ****     /* Return function status */
 988:Drivers/STM32F4xx_HAL_Driver/Src/stm32f4xx_hal_can.c ****     return HAL_OK;
 989:Drivers/STM32F4xx_HAL_Driver/Src/stm32f4xx_hal_can.c ****   }
 990:Drivers/STM32F4xx_HAL_Driver/Src/stm32f4xx_hal_can.c ****   else
 991:Drivers/STM32F4xx_HAL_Driver/Src/stm32f4xx_hal_can.c ****   {
 992:Drivers/STM32F4xx_HAL_Driver/Src/stm32f4xx_hal_can.c ****     /* Update error code */
 993:Drivers/STM32F4xx_HAL_Driver/Src/stm32f4xx_hal_can.c ****     hcan->ErrorCode |= HAL_CAN_ERROR_NOT_INITIALIZED;
 390              		.loc 1 993 5 is_stmt 1 view .LVU113
 391              		.loc 1 993 21 is_stmt 0 view .LVU114
 392 000c 436A     		ldr	r3, [r0, #36]
 393 000e 43F48023 		orr	r3, r3, #262144
 394 0012 4362     		str	r3, [r0, #36]
 994:Drivers/STM32F4xx_HAL_Driver/Src/stm32f4xx_hal_can.c **** 
 995:Drivers/STM32F4xx_HAL_Driver/Src/stm32f4xx_hal_can.c ****     return HAL_ERROR;
 395              		.loc 1 995 5 is_stmt 1 view .LVU115
 396              		.loc 1 995 12 is_stmt 0 view .LVU116
ARM GAS  /tmp/cc6hBWA9.s 			page 27


 397 0014 0120     		movs	r0, #1
 398              	.LVL18:
 996:Drivers/STM32F4xx_HAL_Driver/Src/stm32f4xx_hal_can.c ****   }
 997:Drivers/STM32F4xx_HAL_Driver/Src/stm32f4xx_hal_can.c **** }
 399              		.loc 1 997 1 view .LVU117
 400 0016 7047     		bx	lr
 401              	.LVL19:
 402              	.L50:
 841:Drivers/STM32F4xx_HAL_Driver/Src/stm32f4xx_hal_can.c ****   uint32_t filternbrbitpos;
 403              		.loc 1 841 1 view .LVU118
 404 0018 30B5     		push	{r4, r5, lr}
 405              	.LCFI2:
 406              		.cfi_def_cfa_offset 12
 407              		.cfi_offset 4, -12
 408              		.cfi_offset 5, -8
 409              		.cfi_offset 14, -4
 850:Drivers/STM32F4xx_HAL_Driver/Src/stm32f4xx_hal_can.c ****     assert_param(IS_CAN_FILTER_ID_HALFWORD(sFilterConfig->FilterIdLow));
 410              		.loc 1 850 5 is_stmt 1 view .LVU119
 851:Drivers/STM32F4xx_HAL_Driver/Src/stm32f4xx_hal_can.c ****     assert_param(IS_CAN_FILTER_ID_HALFWORD(sFilterConfig->FilterMaskIdHigh));
 411              		.loc 1 851 5 view .LVU120
 852:Drivers/STM32F4xx_HAL_Driver/Src/stm32f4xx_hal_can.c ****     assert_param(IS_CAN_FILTER_ID_HALFWORD(sFilterConfig->FilterMaskIdLow));
 412              		.loc 1 852 5 view .LVU121
 853:Drivers/STM32F4xx_HAL_Driver/Src/stm32f4xx_hal_can.c ****     assert_param(IS_CAN_FILTER_MODE(sFilterConfig->FilterMode));
 413              		.loc 1 853 5 view .LVU122
 854:Drivers/STM32F4xx_HAL_Driver/Src/stm32f4xx_hal_can.c ****     assert_param(IS_CAN_FILTER_SCALE(sFilterConfig->FilterScale));
 414              		.loc 1 854 5 view .LVU123
 855:Drivers/STM32F4xx_HAL_Driver/Src/stm32f4xx_hal_can.c ****     assert_param(IS_CAN_FILTER_FIFO(sFilterConfig->FilterFIFOAssignment));
 415              		.loc 1 855 5 view .LVU124
 856:Drivers/STM32F4xx_HAL_Driver/Src/stm32f4xx_hal_can.c ****     assert_param(IS_CAN_FILTER_ACTIVATION(sFilterConfig->FilterActivation));
 416              		.loc 1 856 5 view .LVU125
 857:Drivers/STM32F4xx_HAL_Driver/Src/stm32f4xx_hal_can.c **** 
 417              		.loc 1 857 5 view .LVU126
 882:Drivers/STM32F4xx_HAL_Driver/Src/stm32f4xx_hal_can.c **** 
 418              		.loc 1 882 5 view .LVU127
 419              	.LVL20:
 885:Drivers/STM32F4xx_HAL_Driver/Src/stm32f4xx_hal_can.c ****     assert_param(IS_CAN_FILTER_BANK_DUAL(sFilterConfig->SlaveStartFilterBank));
 420              		.loc 1 885 5 view .LVU128
 886:Drivers/STM32F4xx_HAL_Driver/Src/stm32f4xx_hal_can.c **** #else
 421              		.loc 1 886 5 view .LVU129
 896:Drivers/STM32F4xx_HAL_Driver/Src/stm32f4xx_hal_can.c **** 
 422              		.loc 1 896 5 view .LVU130
 423 001a 464B     		ldr	r3, .L53
 424 001c D3F80022 		ldr	r2, [r3, #512]
 425 0020 42F00102 		orr	r2, r2, #1
 426 0024 C3F80022 		str	r2, [r3, #512]
 909:Drivers/STM32F4xx_HAL_Driver/Src/stm32f4xx_hal_can.c ****     SET_BIT(can_ip->FMR, sFilterConfig->SlaveStartFilterBank << CAN_FMR_CAN2SB_Pos);
 427              		.loc 1 909 5 view .LVU131
 428 0028 D3F80022 		ldr	r2, [r3, #512]
 429 002c 22F47C52 		bic	r2, r2, #16128
 430 0030 C3F80022 		str	r2, [r3, #512]
 910:Drivers/STM32F4xx_HAL_Driver/Src/stm32f4xx_hal_can.c **** 
 431              		.loc 1 910 5 view .LVU132
 432 0034 D3F80022 		ldr	r2, [r3, #512]
 433 0038 486A     		ldr	r0, [r1, #36]
 434              	.LVL21:
 910:Drivers/STM32F4xx_HAL_Driver/Src/stm32f4xx_hal_can.c **** 
 435              		.loc 1 910 5 is_stmt 0 view .LVU133
ARM GAS  /tmp/cc6hBWA9.s 			page 28


 436 003a 42EA0022 		orr	r2, r2, r0, lsl #8
 437 003e C3F80022 		str	r2, [r3, #512]
 914:Drivers/STM32F4xx_HAL_Driver/Src/stm32f4xx_hal_can.c **** 
 438              		.loc 1 914 5 is_stmt 1 view .LVU134
 914:Drivers/STM32F4xx_HAL_Driver/Src/stm32f4xx_hal_can.c **** 
 439              		.loc 1 914 52 is_stmt 0 view .LVU135
 440 0042 4A69     		ldr	r2, [r1, #20]
 914:Drivers/STM32F4xx_HAL_Driver/Src/stm32f4xx_hal_can.c **** 
 441              		.loc 1 914 65 view .LVU136
 442 0044 02F01F02 		and	r2, r2, #31
 914:Drivers/STM32F4xx_HAL_Driver/Src/stm32f4xx_hal_can.c **** 
 443              		.loc 1 914 21 view .LVU137
 444 0048 0120     		movs	r0, #1
 445 004a 00FA02F2 		lsl	r2, r0, r2
 446              	.LVL22:
 917:Drivers/STM32F4xx_HAL_Driver/Src/stm32f4xx_hal_can.c **** 
 447              		.loc 1 917 5 is_stmt 1 view .LVU138
 448 004e D3F81C02 		ldr	r0, [r3, #540]
 449 0052 6FEA020C 		mvn	ip, r2
 450 0056 20EA0200 		bic	r0, r0, r2
 451 005a C3F81C02 		str	r0, [r3, #540]
 920:Drivers/STM32F4xx_HAL_Driver/Src/stm32f4xx_hal_can.c ****     {
 452              		.loc 1 920 5 view .LVU139
 920:Drivers/STM32F4xx_HAL_Driver/Src/stm32f4xx_hal_can.c ****     {
 453              		.loc 1 920 22 is_stmt 0 view .LVU140
 454 005e CB69     		ldr	r3, [r1, #28]
 920:Drivers/STM32F4xx_HAL_Driver/Src/stm32f4xx_hal_can.c ****     {
 455              		.loc 1 920 8 view .LVU141
 456 0060 C3B9     		cbnz	r3, .L38
 923:Drivers/STM32F4xx_HAL_Driver/Src/stm32f4xx_hal_can.c **** 
 457              		.loc 1 923 7 is_stmt 1 view .LVU142
 458 0062 344B     		ldr	r3, .L53
 459 0064 D3F80C02 		ldr	r0, [r3, #524]
 460 0068 0CEA0000 		and	r0, ip, r0
 461 006c C3F80C02 		str	r0, [r3, #524]
 927:Drivers/STM32F4xx_HAL_Driver/Src/stm32f4xx_hal_can.c ****         ((0x0000FFFFU & (uint32_t)sFilterConfig->FilterMaskIdLow) << 16U) |
 462              		.loc 1 927 7 view .LVU143
 929:Drivers/STM32F4xx_HAL_Driver/Src/stm32f4xx_hal_can.c **** 
 463              		.loc 1 929 22 is_stmt 0 view .LVU144
 464 0070 8C88     		ldrh	r4, [r1, #4]
 927:Drivers/STM32F4xx_HAL_Driver/Src/stm32f4xx_hal_can.c ****         ((0x0000FFFFU & (uint32_t)sFilterConfig->FilterMaskIdLow) << 16U) |
 465              		.loc 1 927 44 view .LVU145
 466 0072 4869     		ldr	r0, [r1, #20]
 928:Drivers/STM32F4xx_HAL_Driver/Src/stm32f4xx_hal_can.c ****         (0x0000FFFFU & (uint32_t)sFilterConfig->FilterIdLow);
 467              		.loc 1 928 75 view .LVU146
 468 0074 CD68     		ldr	r5, [r1, #12]
 469 0076 44EA0544 		orr	r4, r4, r5, lsl #16
 927:Drivers/STM32F4xx_HAL_Driver/Src/stm32f4xx_hal_can.c ****         ((0x0000FFFFU & (uint32_t)sFilterConfig->FilterMaskIdLow) << 16U) |
 470              		.loc 1 927 62 view .LVU147
 471 007a 4830     		adds	r0, r0, #72
 472 007c 43F83040 		str	r4, [r3, r0, lsl #3]
 933:Drivers/STM32F4xx_HAL_Driver/Src/stm32f4xx_hal_can.c ****         ((0x0000FFFFU & (uint32_t)sFilterConfig->FilterMaskIdHigh) << 16U) |
 473              		.loc 1 933 7 is_stmt 1 view .LVU148
 934:Drivers/STM32F4xx_HAL_Driver/Src/stm32f4xx_hal_can.c ****         (0x0000FFFFU & (uint32_t)sFilterConfig->FilterIdHigh);
 474              		.loc 1 934 48 is_stmt 0 view .LVU149
 475 0080 8C68     		ldr	r4, [r1, #8]
 935:Drivers/STM32F4xx_HAL_Driver/Src/stm32f4xx_hal_can.c ****     }
ARM GAS  /tmp/cc6hBWA9.s 			page 29


 476              		.loc 1 935 22 view .LVU150
 477 0082 0888     		ldrh	r0, [r1]
 934:Drivers/STM32F4xx_HAL_Driver/Src/stm32f4xx_hal_can.c ****         (0x0000FFFFU & (uint32_t)sFilterConfig->FilterIdHigh);
 478              		.loc 1 934 76 view .LVU151
 479 0084 40EA0440 		orr	r0, r0, r4, lsl #16
 933:Drivers/STM32F4xx_HAL_Driver/Src/stm32f4xx_hal_can.c ****         ((0x0000FFFFU & (uint32_t)sFilterConfig->FilterMaskIdHigh) << 16U) |
 480              		.loc 1 933 62 view .LVU152
 481 0088 4C69     		ldr	r4, [r1, #20]
 482 008a 04F1480E 		add	lr, r4, #72
 483 008e 03EBCE03 		add	r3, r3, lr, lsl #3
 484 0092 5860     		str	r0, [r3, #4]
 485              	.L38:
 938:Drivers/STM32F4xx_HAL_Driver/Src/stm32f4xx_hal_can.c ****     {
 486              		.loc 1 938 5 is_stmt 1 view .LVU153
 938:Drivers/STM32F4xx_HAL_Driver/Src/stm32f4xx_hal_can.c ****     {
 487              		.loc 1 938 22 is_stmt 0 view .LVU154
 488 0094 CB69     		ldr	r3, [r1, #28]
 938:Drivers/STM32F4xx_HAL_Driver/Src/stm32f4xx_hal_can.c ****     {
 489              		.loc 1 938 8 view .LVU155
 490 0096 012B     		cmp	r3, #1
 491 0098 1ED0     		beq	.L51
 492              	.L39:
 955:Drivers/STM32F4xx_HAL_Driver/Src/stm32f4xx_hal_can.c ****     {
 493              		.loc 1 955 5 is_stmt 1 view .LVU156
 955:Drivers/STM32F4xx_HAL_Driver/Src/stm32f4xx_hal_can.c ****     {
 494              		.loc 1 955 22 is_stmt 0 view .LVU157
 495 009a 8B69     		ldr	r3, [r1, #24]
 955:Drivers/STM32F4xx_HAL_Driver/Src/stm32f4xx_hal_can.c ****     {
 496              		.loc 1 955 8 view .LVU158
 497 009c 002B     		cmp	r3, #0
 498 009e 33D1     		bne	.L40
 958:Drivers/STM32F4xx_HAL_Driver/Src/stm32f4xx_hal_can.c ****     }
 499              		.loc 1 958 7 is_stmt 1 view .LVU159
 500 00a0 2448     		ldr	r0, .L53
 501 00a2 D0F80432 		ldr	r3, [r0, #516]
 502 00a6 0CEA0303 		and	r3, ip, r3
 503 00aa C0F80432 		str	r3, [r0, #516]
 504              	.L41:
 967:Drivers/STM32F4xx_HAL_Driver/Src/stm32f4xx_hal_can.c ****     {
 505              		.loc 1 967 5 view .LVU160
 967:Drivers/STM32F4xx_HAL_Driver/Src/stm32f4xx_hal_can.c ****     {
 506              		.loc 1 967 22 is_stmt 0 view .LVU161
 507 00ae 0B69     		ldr	r3, [r1, #16]
 967:Drivers/STM32F4xx_HAL_Driver/Src/stm32f4xx_hal_can.c ****     {
 508              		.loc 1 967 8 view .LVU162
 509 00b0 8BBB     		cbnz	r3, .L42
 970:Drivers/STM32F4xx_HAL_Driver/Src/stm32f4xx_hal_can.c ****     }
 510              		.loc 1 970 7 is_stmt 1 view .LVU163
 511 00b2 2048     		ldr	r0, .L53
 512 00b4 D0F81432 		ldr	r3, [r0, #532]
 513 00b8 0CEA0303 		and	r3, ip, r3
 514 00bc C0F81432 		str	r3, [r0, #532]
 515              	.L43:
 979:Drivers/STM32F4xx_HAL_Driver/Src/stm32f4xx_hal_can.c ****     {
 516              		.loc 1 979 5 view .LVU164
 979:Drivers/STM32F4xx_HAL_Driver/Src/stm32f4xx_hal_can.c ****     {
 517              		.loc 1 979 22 is_stmt 0 view .LVU165
ARM GAS  /tmp/cc6hBWA9.s 			page 30


 518 00c0 0B6A     		ldr	r3, [r1, #32]
 979:Drivers/STM32F4xx_HAL_Driver/Src/stm32f4xx_hal_can.c ****     {
 519              		.loc 1 979 8 view .LVU166
 520 00c2 012B     		cmp	r3, #1
 521 00c4 2ED0     		beq	.L52
 522              	.LVL23:
 523              	.L44:
 985:Drivers/STM32F4xx_HAL_Driver/Src/stm32f4xx_hal_can.c **** 
 524              		.loc 1 985 5 is_stmt 1 view .LVU167
 525 00c6 1B4A     		ldr	r2, .L53
 526 00c8 D2F80032 		ldr	r3, [r2, #512]
 527 00cc 23F00103 		bic	r3, r3, #1
 528 00d0 C2F80032 		str	r3, [r2, #512]
 988:Drivers/STM32F4xx_HAL_Driver/Src/stm32f4xx_hal_can.c ****   }
 529              		.loc 1 988 5 view .LVU168
 988:Drivers/STM32F4xx_HAL_Driver/Src/stm32f4xx_hal_can.c ****   }
 530              		.loc 1 988 12 is_stmt 0 view .LVU169
 531 00d4 0020     		movs	r0, #0
 532              		.loc 1 997 1 view .LVU170
 533 00d6 30BD     		pop	{r4, r5, pc}
 534              	.LVL24:
 535              	.L51:
 941:Drivers/STM32F4xx_HAL_Driver/Src/stm32f4xx_hal_can.c **** 
 536              		.loc 1 941 7 is_stmt 1 view .LVU171
 537 00d8 164B     		ldr	r3, .L53
 538 00da D3F80C02 		ldr	r0, [r3, #524]
 539 00de 1043     		orrs	r0, r0, r2
 540 00e0 C3F80C02 		str	r0, [r3, #524]
 944:Drivers/STM32F4xx_HAL_Driver/Src/stm32f4xx_hal_can.c ****         ((0x0000FFFFU & (uint32_t)sFilterConfig->FilterIdHigh) << 16U) |
 541              		.loc 1 944 7 view .LVU172
 946:Drivers/STM32F4xx_HAL_Driver/Src/stm32f4xx_hal_can.c **** 
 542              		.loc 1 946 22 is_stmt 0 view .LVU173
 543 00e4 8C88     		ldrh	r4, [r1, #4]
 944:Drivers/STM32F4xx_HAL_Driver/Src/stm32f4xx_hal_can.c ****         ((0x0000FFFFU & (uint32_t)sFilterConfig->FilterIdHigh) << 16U) |
 544              		.loc 1 944 44 view .LVU174
 545 00e6 4869     		ldr	r0, [r1, #20]
 945:Drivers/STM32F4xx_HAL_Driver/Src/stm32f4xx_hal_can.c ****         (0x0000FFFFU & (uint32_t)sFilterConfig->FilterIdLow);
 546              		.loc 1 945 72 view .LVU175
 547 00e8 0D68     		ldr	r5, [r1]
 548 00ea 44EA0544 		orr	r4, r4, r5, lsl #16
 944:Drivers/STM32F4xx_HAL_Driver/Src/stm32f4xx_hal_can.c ****         ((0x0000FFFFU & (uint32_t)sFilterConfig->FilterIdHigh) << 16U) |
 549              		.loc 1 944 62 view .LVU176
 550 00ee 4830     		adds	r0, r0, #72
 551 00f0 43F83040 		str	r4, [r3, r0, lsl #3]
 949:Drivers/STM32F4xx_HAL_Driver/Src/stm32f4xx_hal_can.c ****         ((0x0000FFFFU & (uint32_t)sFilterConfig->FilterMaskIdHigh) << 16U) |
 552              		.loc 1 949 7 is_stmt 1 view .LVU177
 951:Drivers/STM32F4xx_HAL_Driver/Src/stm32f4xx_hal_can.c ****     }
 553              		.loc 1 951 22 is_stmt 0 view .LVU178
 554 00f4 8889     		ldrh	r0, [r1, #12]
 949:Drivers/STM32F4xx_HAL_Driver/Src/stm32f4xx_hal_can.c ****         ((0x0000FFFFU & (uint32_t)sFilterConfig->FilterMaskIdHigh) << 16U) |
 555              		.loc 1 949 44 view .LVU179
 556 00f6 4C69     		ldr	r4, [r1, #20]
 950:Drivers/STM32F4xx_HAL_Driver/Src/stm32f4xx_hal_can.c ****         (0x0000FFFFU & (uint32_t)sFilterConfig->FilterMaskIdLow);
 557              		.loc 1 950 76 view .LVU180
 558 00f8 8D68     		ldr	r5, [r1, #8]
 559 00fa 40EA0540 		orr	r0, r0, r5, lsl #16
 949:Drivers/STM32F4xx_HAL_Driver/Src/stm32f4xx_hal_can.c ****         ((0x0000FFFFU & (uint32_t)sFilterConfig->FilterMaskIdHigh) << 16U) |
ARM GAS  /tmp/cc6hBWA9.s 			page 31


 560              		.loc 1 949 62 view .LVU181
 561 00fe 4834     		adds	r4, r4, #72
 562 0100 03EBC403 		add	r3, r3, r4, lsl #3
 563 0104 5860     		str	r0, [r3, #4]
 564 0106 C8E7     		b	.L39
 565              	.L40:
 963:Drivers/STM32F4xx_HAL_Driver/Src/stm32f4xx_hal_can.c ****     }
 566              		.loc 1 963 7 is_stmt 1 view .LVU182
 567 0108 0A48     		ldr	r0, .L53
 568 010a D0F80432 		ldr	r3, [r0, #516]
 569 010e 1343     		orrs	r3, r3, r2
 570 0110 C0F80432 		str	r3, [r0, #516]
 571 0114 CBE7     		b	.L41
 572              	.L42:
 975:Drivers/STM32F4xx_HAL_Driver/Src/stm32f4xx_hal_can.c ****     }
 573              		.loc 1 975 7 view .LVU183
 574 0116 0748     		ldr	r0, .L53
 575 0118 D0F81432 		ldr	r3, [r0, #532]
 576 011c 1343     		orrs	r3, r3, r2
 577 011e C0F81432 		str	r3, [r0, #532]
 578 0122 CDE7     		b	.L43
 579              	.L52:
 981:Drivers/STM32F4xx_HAL_Driver/Src/stm32f4xx_hal_can.c ****     }
 580              		.loc 1 981 7 view .LVU184
 581 0124 0349     		ldr	r1, .L53
 582              	.LVL25:
 981:Drivers/STM32F4xx_HAL_Driver/Src/stm32f4xx_hal_can.c ****     }
 583              		.loc 1 981 7 is_stmt 0 view .LVU185
 584 0126 D1F81C32 		ldr	r3, [r1, #540]
 585 012a 1A43     		orrs	r2, r2, r3
 586              	.LVL26:
 981:Drivers/STM32F4xx_HAL_Driver/Src/stm32f4xx_hal_can.c ****     }
 587              		.loc 1 981 7 view .LVU186
 588 012c C1F81C22 		str	r2, [r1, #540]
 589 0130 C9E7     		b	.L44
 590              	.L54:
 591 0132 00BF     		.align	2
 592              	.L53:
 593 0134 00640040 		.word	1073767424
 594              		.cfi_endproc
 595              	.LFE138:
 597              		.section	.text.HAL_CAN_Start,"ax",%progbits
 598              		.align	1
 599              		.global	HAL_CAN_Start
 600              		.syntax unified
 601              		.thumb
 602              		.thumb_func
 603              		.fpu fpv4-sp-d16
 605              	HAL_CAN_Start:
 606              	.LVL27:
 607              	.LFB139:
 998:Drivers/STM32F4xx_HAL_Driver/Src/stm32f4xx_hal_can.c **** 
 999:Drivers/STM32F4xx_HAL_Driver/Src/stm32f4xx_hal_can.c **** /**
1000:Drivers/STM32F4xx_HAL_Driver/Src/stm32f4xx_hal_can.c ****   * @}
1001:Drivers/STM32F4xx_HAL_Driver/Src/stm32f4xx_hal_can.c ****   */
1002:Drivers/STM32F4xx_HAL_Driver/Src/stm32f4xx_hal_can.c **** 
1003:Drivers/STM32F4xx_HAL_Driver/Src/stm32f4xx_hal_can.c **** /** @defgroup CAN_Exported_Functions_Group3 Control functions
ARM GAS  /tmp/cc6hBWA9.s 			page 32


1004:Drivers/STM32F4xx_HAL_Driver/Src/stm32f4xx_hal_can.c ****   * @brief    Control functions
1005:Drivers/STM32F4xx_HAL_Driver/Src/stm32f4xx_hal_can.c ****   *
1006:Drivers/STM32F4xx_HAL_Driver/Src/stm32f4xx_hal_can.c **** @verbatim
1007:Drivers/STM32F4xx_HAL_Driver/Src/stm32f4xx_hal_can.c ****   ==============================================================================
1008:Drivers/STM32F4xx_HAL_Driver/Src/stm32f4xx_hal_can.c ****                       ##### Control functions #####
1009:Drivers/STM32F4xx_HAL_Driver/Src/stm32f4xx_hal_can.c ****   ==============================================================================
1010:Drivers/STM32F4xx_HAL_Driver/Src/stm32f4xx_hal_can.c ****     [..]  This section provides functions allowing to:
1011:Drivers/STM32F4xx_HAL_Driver/Src/stm32f4xx_hal_can.c ****       (+) HAL_CAN_Start                    : Start the CAN module
1012:Drivers/STM32F4xx_HAL_Driver/Src/stm32f4xx_hal_can.c ****       (+) HAL_CAN_Stop                     : Stop the CAN module
1013:Drivers/STM32F4xx_HAL_Driver/Src/stm32f4xx_hal_can.c ****       (+) HAL_CAN_RequestSleep             : Request sleep mode entry.
1014:Drivers/STM32F4xx_HAL_Driver/Src/stm32f4xx_hal_can.c ****       (+) HAL_CAN_WakeUp                   : Wake up from sleep mode.
1015:Drivers/STM32F4xx_HAL_Driver/Src/stm32f4xx_hal_can.c ****       (+) HAL_CAN_IsSleepActive            : Check is sleep mode is active.
1016:Drivers/STM32F4xx_HAL_Driver/Src/stm32f4xx_hal_can.c ****       (+) HAL_CAN_AddTxMessage             : Add a message to the Tx mailboxes
1017:Drivers/STM32F4xx_HAL_Driver/Src/stm32f4xx_hal_can.c ****                                              and activate the corresponding
1018:Drivers/STM32F4xx_HAL_Driver/Src/stm32f4xx_hal_can.c ****                                              transmission request
1019:Drivers/STM32F4xx_HAL_Driver/Src/stm32f4xx_hal_can.c ****       (+) HAL_CAN_AbortTxRequest           : Abort transmission request
1020:Drivers/STM32F4xx_HAL_Driver/Src/stm32f4xx_hal_can.c ****       (+) HAL_CAN_GetTxMailboxesFreeLevel  : Return Tx mailboxes free level
1021:Drivers/STM32F4xx_HAL_Driver/Src/stm32f4xx_hal_can.c ****       (+) HAL_CAN_IsTxMessagePending       : Check if a transmission request is
1022:Drivers/STM32F4xx_HAL_Driver/Src/stm32f4xx_hal_can.c ****                                              pending on the selected Tx mailbox
1023:Drivers/STM32F4xx_HAL_Driver/Src/stm32f4xx_hal_can.c ****       (+) HAL_CAN_GetRxMessage             : Get a CAN frame from the Rx FIFO
1024:Drivers/STM32F4xx_HAL_Driver/Src/stm32f4xx_hal_can.c ****       (+) HAL_CAN_GetRxFifoFillLevel       : Return Rx FIFO fill level
1025:Drivers/STM32F4xx_HAL_Driver/Src/stm32f4xx_hal_can.c **** 
1026:Drivers/STM32F4xx_HAL_Driver/Src/stm32f4xx_hal_can.c **** @endverbatim
1027:Drivers/STM32F4xx_HAL_Driver/Src/stm32f4xx_hal_can.c ****   * @{
1028:Drivers/STM32F4xx_HAL_Driver/Src/stm32f4xx_hal_can.c ****   */
1029:Drivers/STM32F4xx_HAL_Driver/Src/stm32f4xx_hal_can.c **** 
1030:Drivers/STM32F4xx_HAL_Driver/Src/stm32f4xx_hal_can.c **** /**
1031:Drivers/STM32F4xx_HAL_Driver/Src/stm32f4xx_hal_can.c ****   * @brief  Start the CAN module.
1032:Drivers/STM32F4xx_HAL_Driver/Src/stm32f4xx_hal_can.c ****   * @param  hcan pointer to an CAN_HandleTypeDef structure that contains
1033:Drivers/STM32F4xx_HAL_Driver/Src/stm32f4xx_hal_can.c ****   *         the configuration information for the specified CAN.
1034:Drivers/STM32F4xx_HAL_Driver/Src/stm32f4xx_hal_can.c ****   * @retval HAL status
1035:Drivers/STM32F4xx_HAL_Driver/Src/stm32f4xx_hal_can.c ****   */
1036:Drivers/STM32F4xx_HAL_Driver/Src/stm32f4xx_hal_can.c **** HAL_StatusTypeDef HAL_CAN_Start(CAN_HandleTypeDef *hcan)
1037:Drivers/STM32F4xx_HAL_Driver/Src/stm32f4xx_hal_can.c **** {
 608              		.loc 1 1037 1 is_stmt 1 view -0
 609              		.cfi_startproc
 610              		@ args = 0, pretend = 0, frame = 0
 611              		@ frame_needed = 0, uses_anonymous_args = 0
 612              		.loc 1 1037 1 is_stmt 0 view .LVU188
 613 0000 70B5     		push	{r4, r5, r6, lr}
 614              	.LCFI3:
 615              		.cfi_def_cfa_offset 16
 616              		.cfi_offset 4, -16
 617              		.cfi_offset 5, -12
 618              		.cfi_offset 6, -8
 619              		.cfi_offset 14, -4
 620 0002 0446     		mov	r4, r0
1038:Drivers/STM32F4xx_HAL_Driver/Src/stm32f4xx_hal_can.c ****   uint32_t tickstart;
 621              		.loc 1 1038 3 is_stmt 1 view .LVU189
1039:Drivers/STM32F4xx_HAL_Driver/Src/stm32f4xx_hal_can.c **** 
1040:Drivers/STM32F4xx_HAL_Driver/Src/stm32f4xx_hal_can.c ****   if (hcan->State == HAL_CAN_STATE_READY)
 622              		.loc 1 1040 3 view .LVU190
 623              		.loc 1 1040 11 is_stmt 0 view .LVU191
 624 0004 90F82050 		ldrb	r5, [r0, #32]	@ zero_extendqisi2
 625 0008 EDB2     		uxtb	r5, r5
 626              		.loc 1 1040 6 view .LVU192
 627 000a 012D     		cmp	r5, #1
ARM GAS  /tmp/cc6hBWA9.s 			page 33


 628 000c 06D0     		beq	.L61
1041:Drivers/STM32F4xx_HAL_Driver/Src/stm32f4xx_hal_can.c ****   {
1042:Drivers/STM32F4xx_HAL_Driver/Src/stm32f4xx_hal_can.c ****     /* Change CAN peripheral state */
1043:Drivers/STM32F4xx_HAL_Driver/Src/stm32f4xx_hal_can.c ****     hcan->State = HAL_CAN_STATE_LISTENING;
1044:Drivers/STM32F4xx_HAL_Driver/Src/stm32f4xx_hal_can.c **** 
1045:Drivers/STM32F4xx_HAL_Driver/Src/stm32f4xx_hal_can.c ****     /* Request leave initialisation */
1046:Drivers/STM32F4xx_HAL_Driver/Src/stm32f4xx_hal_can.c ****     CLEAR_BIT(hcan->Instance->MCR, CAN_MCR_INRQ);
1047:Drivers/STM32F4xx_HAL_Driver/Src/stm32f4xx_hal_can.c **** 
1048:Drivers/STM32F4xx_HAL_Driver/Src/stm32f4xx_hal_can.c ****     /* Get tick */
1049:Drivers/STM32F4xx_HAL_Driver/Src/stm32f4xx_hal_can.c ****     tickstart = HAL_GetTick();
1050:Drivers/STM32F4xx_HAL_Driver/Src/stm32f4xx_hal_can.c **** 
1051:Drivers/STM32F4xx_HAL_Driver/Src/stm32f4xx_hal_can.c ****     /* Wait the acknowledge */
1052:Drivers/STM32F4xx_HAL_Driver/Src/stm32f4xx_hal_can.c ****     while ((hcan->Instance->MSR & CAN_MSR_INAK) != 0U)
1053:Drivers/STM32F4xx_HAL_Driver/Src/stm32f4xx_hal_can.c ****     {
1054:Drivers/STM32F4xx_HAL_Driver/Src/stm32f4xx_hal_can.c ****       /* Check for the Timeout */
1055:Drivers/STM32F4xx_HAL_Driver/Src/stm32f4xx_hal_can.c ****       if ((HAL_GetTick() - tickstart) > CAN_TIMEOUT_VALUE)
1056:Drivers/STM32F4xx_HAL_Driver/Src/stm32f4xx_hal_can.c ****       {
1057:Drivers/STM32F4xx_HAL_Driver/Src/stm32f4xx_hal_can.c ****         /* Update error code */
1058:Drivers/STM32F4xx_HAL_Driver/Src/stm32f4xx_hal_can.c ****         hcan->ErrorCode |= HAL_CAN_ERROR_TIMEOUT;
1059:Drivers/STM32F4xx_HAL_Driver/Src/stm32f4xx_hal_can.c **** 
1060:Drivers/STM32F4xx_HAL_Driver/Src/stm32f4xx_hal_can.c ****         /* Change CAN state */
1061:Drivers/STM32F4xx_HAL_Driver/Src/stm32f4xx_hal_can.c ****         hcan->State = HAL_CAN_STATE_ERROR;
1062:Drivers/STM32F4xx_HAL_Driver/Src/stm32f4xx_hal_can.c **** 
1063:Drivers/STM32F4xx_HAL_Driver/Src/stm32f4xx_hal_can.c ****         return HAL_ERROR;
1064:Drivers/STM32F4xx_HAL_Driver/Src/stm32f4xx_hal_can.c ****       }
1065:Drivers/STM32F4xx_HAL_Driver/Src/stm32f4xx_hal_can.c ****     }
1066:Drivers/STM32F4xx_HAL_Driver/Src/stm32f4xx_hal_can.c **** 
1067:Drivers/STM32F4xx_HAL_Driver/Src/stm32f4xx_hal_can.c ****     /* Reset the CAN ErrorCode */
1068:Drivers/STM32F4xx_HAL_Driver/Src/stm32f4xx_hal_can.c ****     hcan->ErrorCode = HAL_CAN_ERROR_NONE;
1069:Drivers/STM32F4xx_HAL_Driver/Src/stm32f4xx_hal_can.c **** 
1070:Drivers/STM32F4xx_HAL_Driver/Src/stm32f4xx_hal_can.c ****     /* Return function status */
1071:Drivers/STM32F4xx_HAL_Driver/Src/stm32f4xx_hal_can.c ****     return HAL_OK;
1072:Drivers/STM32F4xx_HAL_Driver/Src/stm32f4xx_hal_can.c ****   }
1073:Drivers/STM32F4xx_HAL_Driver/Src/stm32f4xx_hal_can.c ****   else
1074:Drivers/STM32F4xx_HAL_Driver/Src/stm32f4xx_hal_can.c ****   {
1075:Drivers/STM32F4xx_HAL_Driver/Src/stm32f4xx_hal_can.c ****     /* Update error code */
1076:Drivers/STM32F4xx_HAL_Driver/Src/stm32f4xx_hal_can.c ****     hcan->ErrorCode |= HAL_CAN_ERROR_NOT_READY;
 629              		.loc 1 1076 5 is_stmt 1 view .LVU193
 630              		.loc 1 1076 21 is_stmt 0 view .LVU194
 631 000e 436A     		ldr	r3, [r0, #36]
 632 0010 43F40023 		orr	r3, r3, #524288
 633 0014 4362     		str	r3, [r0, #36]
1077:Drivers/STM32F4xx_HAL_Driver/Src/stm32f4xx_hal_can.c **** 
1078:Drivers/STM32F4xx_HAL_Driver/Src/stm32f4xx_hal_can.c ****     return HAL_ERROR;
 634              		.loc 1 1078 5 is_stmt 1 view .LVU195
 635              		.loc 1 1078 12 is_stmt 0 view .LVU196
 636 0016 0125     		movs	r5, #1
 637              	.LVL28:
 638              	.L58:
1079:Drivers/STM32F4xx_HAL_Driver/Src/stm32f4xx_hal_can.c ****   }
1080:Drivers/STM32F4xx_HAL_Driver/Src/stm32f4xx_hal_can.c **** }
 639              		.loc 1 1080 1 view .LVU197
 640 0018 2846     		mov	r0, r5
 641 001a 70BD     		pop	{r4, r5, r6, pc}
 642              	.LVL29:
 643              	.L61:
1043:Drivers/STM32F4xx_HAL_Driver/Src/stm32f4xx_hal_can.c **** 
ARM GAS  /tmp/cc6hBWA9.s 			page 34


 644              		.loc 1 1043 5 is_stmt 1 view .LVU198
1043:Drivers/STM32F4xx_HAL_Driver/Src/stm32f4xx_hal_can.c **** 
 645              		.loc 1 1043 17 is_stmt 0 view .LVU199
 646 001c 0223     		movs	r3, #2
 647 001e 80F82030 		strb	r3, [r0, #32]
1046:Drivers/STM32F4xx_HAL_Driver/Src/stm32f4xx_hal_can.c **** 
 648              		.loc 1 1046 5 is_stmt 1 view .LVU200
 649 0022 0268     		ldr	r2, [r0]
 650 0024 1368     		ldr	r3, [r2]
 651 0026 23F00103 		bic	r3, r3, #1
 652 002a 1360     		str	r3, [r2]
1049:Drivers/STM32F4xx_HAL_Driver/Src/stm32f4xx_hal_can.c **** 
 653              		.loc 1 1049 5 view .LVU201
1049:Drivers/STM32F4xx_HAL_Driver/Src/stm32f4xx_hal_can.c **** 
 654              		.loc 1 1049 17 is_stmt 0 view .LVU202
 655 002c FFF7FEFF 		bl	HAL_GetTick
 656              	.LVL30:
1049:Drivers/STM32F4xx_HAL_Driver/Src/stm32f4xx_hal_can.c **** 
 657              		.loc 1 1049 17 view .LVU203
 658 0030 0646     		mov	r6, r0
 659              	.LVL31:
1052:Drivers/STM32F4xx_HAL_Driver/Src/stm32f4xx_hal_can.c ****     {
 660              		.loc 1 1052 5 is_stmt 1 view .LVU204
 661              	.L57:
1052:Drivers/STM32F4xx_HAL_Driver/Src/stm32f4xx_hal_can.c ****     {
 662              		.loc 1 1052 11 view .LVU205
1052:Drivers/STM32F4xx_HAL_Driver/Src/stm32f4xx_hal_can.c ****     {
 663              		.loc 1 1052 17 is_stmt 0 view .LVU206
 664 0032 2368     		ldr	r3, [r4]
1052:Drivers/STM32F4xx_HAL_Driver/Src/stm32f4xx_hal_can.c ****     {
 665              		.loc 1 1052 27 view .LVU207
 666 0034 5B68     		ldr	r3, [r3, #4]
1052:Drivers/STM32F4xx_HAL_Driver/Src/stm32f4xx_hal_can.c ****     {
 667              		.loc 1 1052 11 view .LVU208
 668 0036 13F0010F 		tst	r3, #1
 669 003a 0CD0     		beq	.L62
1055:Drivers/STM32F4xx_HAL_Driver/Src/stm32f4xx_hal_can.c ****       {
 670              		.loc 1 1055 7 is_stmt 1 view .LVU209
1055:Drivers/STM32F4xx_HAL_Driver/Src/stm32f4xx_hal_can.c ****       {
 671              		.loc 1 1055 12 is_stmt 0 view .LVU210
 672 003c FFF7FEFF 		bl	HAL_GetTick
 673              	.LVL32:
1055:Drivers/STM32F4xx_HAL_Driver/Src/stm32f4xx_hal_can.c ****       {
 674              		.loc 1 1055 26 view .LVU211
 675 0040 831B     		subs	r3, r0, r6
1055:Drivers/STM32F4xx_HAL_Driver/Src/stm32f4xx_hal_can.c ****       {
 676              		.loc 1 1055 10 view .LVU212
 677 0042 0A2B     		cmp	r3, #10
 678 0044 F5D9     		bls	.L57
1058:Drivers/STM32F4xx_HAL_Driver/Src/stm32f4xx_hal_can.c **** 
 679              		.loc 1 1058 9 is_stmt 1 view .LVU213
1058:Drivers/STM32F4xx_HAL_Driver/Src/stm32f4xx_hal_can.c **** 
 680              		.loc 1 1058 25 is_stmt 0 view .LVU214
 681 0046 636A     		ldr	r3, [r4, #36]
 682 0048 43F40033 		orr	r3, r3, #131072
 683 004c 6362     		str	r3, [r4, #36]
1061:Drivers/STM32F4xx_HAL_Driver/Src/stm32f4xx_hal_can.c **** 
ARM GAS  /tmp/cc6hBWA9.s 			page 35


 684              		.loc 1 1061 9 is_stmt 1 view .LVU215
1061:Drivers/STM32F4xx_HAL_Driver/Src/stm32f4xx_hal_can.c **** 
 685              		.loc 1 1061 21 is_stmt 0 view .LVU216
 686 004e 0523     		movs	r3, #5
 687 0050 84F82030 		strb	r3, [r4, #32]
1063:Drivers/STM32F4xx_HAL_Driver/Src/stm32f4xx_hal_can.c ****       }
 688              		.loc 1 1063 9 is_stmt 1 view .LVU217
1063:Drivers/STM32F4xx_HAL_Driver/Src/stm32f4xx_hal_can.c ****       }
 689              		.loc 1 1063 16 is_stmt 0 view .LVU218
 690 0054 E0E7     		b	.L58
 691              	.L62:
1068:Drivers/STM32F4xx_HAL_Driver/Src/stm32f4xx_hal_can.c **** 
 692              		.loc 1 1068 5 is_stmt 1 view .LVU219
1068:Drivers/STM32F4xx_HAL_Driver/Src/stm32f4xx_hal_can.c **** 
 693              		.loc 1 1068 21 is_stmt 0 view .LVU220
 694 0056 0025     		movs	r5, #0
 695 0058 6562     		str	r5, [r4, #36]
1071:Drivers/STM32F4xx_HAL_Driver/Src/stm32f4xx_hal_can.c ****   }
 696              		.loc 1 1071 5 is_stmt 1 view .LVU221
1071:Drivers/STM32F4xx_HAL_Driver/Src/stm32f4xx_hal_can.c ****   }
 697              		.loc 1 1071 12 is_stmt 0 view .LVU222
 698 005a DDE7     		b	.L58
 699              		.cfi_endproc
 700              	.LFE139:
 702              		.section	.text.HAL_CAN_Stop,"ax",%progbits
 703              		.align	1
 704              		.global	HAL_CAN_Stop
 705              		.syntax unified
 706              		.thumb
 707              		.thumb_func
 708              		.fpu fpv4-sp-d16
 710              	HAL_CAN_Stop:
 711              	.LVL33:
 712              	.LFB140:
1081:Drivers/STM32F4xx_HAL_Driver/Src/stm32f4xx_hal_can.c **** 
1082:Drivers/STM32F4xx_HAL_Driver/Src/stm32f4xx_hal_can.c **** /**
1083:Drivers/STM32F4xx_HAL_Driver/Src/stm32f4xx_hal_can.c ****   * @brief  Stop the CAN module and enable access to configuration registers.
1084:Drivers/STM32F4xx_HAL_Driver/Src/stm32f4xx_hal_can.c ****   * @param  hcan pointer to an CAN_HandleTypeDef structure that contains
1085:Drivers/STM32F4xx_HAL_Driver/Src/stm32f4xx_hal_can.c ****   *         the configuration information for the specified CAN.
1086:Drivers/STM32F4xx_HAL_Driver/Src/stm32f4xx_hal_can.c ****   * @retval HAL status
1087:Drivers/STM32F4xx_HAL_Driver/Src/stm32f4xx_hal_can.c ****   */
1088:Drivers/STM32F4xx_HAL_Driver/Src/stm32f4xx_hal_can.c **** HAL_StatusTypeDef HAL_CAN_Stop(CAN_HandleTypeDef *hcan)
1089:Drivers/STM32F4xx_HAL_Driver/Src/stm32f4xx_hal_can.c **** {
 713              		.loc 1 1089 1 is_stmt 1 view -0
 714              		.cfi_startproc
 715              		@ args = 0, pretend = 0, frame = 0
 716              		@ frame_needed = 0, uses_anonymous_args = 0
 717              		.loc 1 1089 1 is_stmt 0 view .LVU224
 718 0000 38B5     		push	{r3, r4, r5, lr}
 719              	.LCFI4:
 720              		.cfi_def_cfa_offset 16
 721              		.cfi_offset 3, -16
 722              		.cfi_offset 4, -12
 723              		.cfi_offset 5, -8
 724              		.cfi_offset 14, -4
 725 0002 0446     		mov	r4, r0
1090:Drivers/STM32F4xx_HAL_Driver/Src/stm32f4xx_hal_can.c ****   uint32_t tickstart;
ARM GAS  /tmp/cc6hBWA9.s 			page 36


 726              		.loc 1 1090 3 is_stmt 1 view .LVU225
1091:Drivers/STM32F4xx_HAL_Driver/Src/stm32f4xx_hal_can.c **** 
1092:Drivers/STM32F4xx_HAL_Driver/Src/stm32f4xx_hal_can.c ****   if (hcan->State == HAL_CAN_STATE_LISTENING)
 727              		.loc 1 1092 3 view .LVU226
 728              		.loc 1 1092 11 is_stmt 0 view .LVU227
 729 0004 90F82030 		ldrb	r3, [r0, #32]	@ zero_extendqisi2
 730 0008 DBB2     		uxtb	r3, r3
 731              		.loc 1 1092 6 view .LVU228
 732 000a 022B     		cmp	r3, #2
 733 000c 05D0     		beq	.L69
1093:Drivers/STM32F4xx_HAL_Driver/Src/stm32f4xx_hal_can.c ****   {
1094:Drivers/STM32F4xx_HAL_Driver/Src/stm32f4xx_hal_can.c ****     /* Request initialisation */
1095:Drivers/STM32F4xx_HAL_Driver/Src/stm32f4xx_hal_can.c ****     SET_BIT(hcan->Instance->MCR, CAN_MCR_INRQ);
1096:Drivers/STM32F4xx_HAL_Driver/Src/stm32f4xx_hal_can.c **** 
1097:Drivers/STM32F4xx_HAL_Driver/Src/stm32f4xx_hal_can.c ****     /* Get tick */
1098:Drivers/STM32F4xx_HAL_Driver/Src/stm32f4xx_hal_can.c ****     tickstart = HAL_GetTick();
1099:Drivers/STM32F4xx_HAL_Driver/Src/stm32f4xx_hal_can.c **** 
1100:Drivers/STM32F4xx_HAL_Driver/Src/stm32f4xx_hal_can.c ****     /* Wait the acknowledge */
1101:Drivers/STM32F4xx_HAL_Driver/Src/stm32f4xx_hal_can.c ****     while ((hcan->Instance->MSR & CAN_MSR_INAK) == 0U)
1102:Drivers/STM32F4xx_HAL_Driver/Src/stm32f4xx_hal_can.c ****     {
1103:Drivers/STM32F4xx_HAL_Driver/Src/stm32f4xx_hal_can.c ****       /* Check for the Timeout */
1104:Drivers/STM32F4xx_HAL_Driver/Src/stm32f4xx_hal_can.c ****       if ((HAL_GetTick() - tickstart) > CAN_TIMEOUT_VALUE)
1105:Drivers/STM32F4xx_HAL_Driver/Src/stm32f4xx_hal_can.c ****       {
1106:Drivers/STM32F4xx_HAL_Driver/Src/stm32f4xx_hal_can.c ****         /* Update error code */
1107:Drivers/STM32F4xx_HAL_Driver/Src/stm32f4xx_hal_can.c ****         hcan->ErrorCode |= HAL_CAN_ERROR_TIMEOUT;
1108:Drivers/STM32F4xx_HAL_Driver/Src/stm32f4xx_hal_can.c **** 
1109:Drivers/STM32F4xx_HAL_Driver/Src/stm32f4xx_hal_can.c ****         /* Change CAN state */
1110:Drivers/STM32F4xx_HAL_Driver/Src/stm32f4xx_hal_can.c ****         hcan->State = HAL_CAN_STATE_ERROR;
1111:Drivers/STM32F4xx_HAL_Driver/Src/stm32f4xx_hal_can.c **** 
1112:Drivers/STM32F4xx_HAL_Driver/Src/stm32f4xx_hal_can.c ****         return HAL_ERROR;
1113:Drivers/STM32F4xx_HAL_Driver/Src/stm32f4xx_hal_can.c ****       }
1114:Drivers/STM32F4xx_HAL_Driver/Src/stm32f4xx_hal_can.c ****     }
1115:Drivers/STM32F4xx_HAL_Driver/Src/stm32f4xx_hal_can.c **** 
1116:Drivers/STM32F4xx_HAL_Driver/Src/stm32f4xx_hal_can.c ****     /* Exit from sleep mode */
1117:Drivers/STM32F4xx_HAL_Driver/Src/stm32f4xx_hal_can.c ****     CLEAR_BIT(hcan->Instance->MCR, CAN_MCR_SLEEP);
1118:Drivers/STM32F4xx_HAL_Driver/Src/stm32f4xx_hal_can.c **** 
1119:Drivers/STM32F4xx_HAL_Driver/Src/stm32f4xx_hal_can.c ****     /* Change CAN peripheral state */
1120:Drivers/STM32F4xx_HAL_Driver/Src/stm32f4xx_hal_can.c ****     hcan->State = HAL_CAN_STATE_READY;
1121:Drivers/STM32F4xx_HAL_Driver/Src/stm32f4xx_hal_can.c **** 
1122:Drivers/STM32F4xx_HAL_Driver/Src/stm32f4xx_hal_can.c ****     /* Return function status */
1123:Drivers/STM32F4xx_HAL_Driver/Src/stm32f4xx_hal_can.c ****     return HAL_OK;
1124:Drivers/STM32F4xx_HAL_Driver/Src/stm32f4xx_hal_can.c ****   }
1125:Drivers/STM32F4xx_HAL_Driver/Src/stm32f4xx_hal_can.c ****   else
1126:Drivers/STM32F4xx_HAL_Driver/Src/stm32f4xx_hal_can.c ****   {
1127:Drivers/STM32F4xx_HAL_Driver/Src/stm32f4xx_hal_can.c ****     /* Update error code */
1128:Drivers/STM32F4xx_HAL_Driver/Src/stm32f4xx_hal_can.c ****     hcan->ErrorCode |= HAL_CAN_ERROR_NOT_STARTED;
 734              		.loc 1 1128 5 is_stmt 1 view .LVU229
 735              		.loc 1 1128 21 is_stmt 0 view .LVU230
 736 000e 436A     		ldr	r3, [r0, #36]
 737 0010 43F48013 		orr	r3, r3, #1048576
 738 0014 4362     		str	r3, [r0, #36]
1129:Drivers/STM32F4xx_HAL_Driver/Src/stm32f4xx_hal_can.c **** 
1130:Drivers/STM32F4xx_HAL_Driver/Src/stm32f4xx_hal_can.c ****     return HAL_ERROR;
 739              		.loc 1 1130 5 is_stmt 1 view .LVU231
 740              		.loc 1 1130 12 is_stmt 0 view .LVU232
 741 0016 0120     		movs	r0, #1
 742              	.LVL34:
ARM GAS  /tmp/cc6hBWA9.s 			page 37


 743              	.L66:
1131:Drivers/STM32F4xx_HAL_Driver/Src/stm32f4xx_hal_can.c ****   }
1132:Drivers/STM32F4xx_HAL_Driver/Src/stm32f4xx_hal_can.c **** }
 744              		.loc 1 1132 1 view .LVU233
 745 0018 38BD     		pop	{r3, r4, r5, pc}
 746              	.LVL35:
 747              	.L69:
1095:Drivers/STM32F4xx_HAL_Driver/Src/stm32f4xx_hal_can.c **** 
 748              		.loc 1 1095 5 is_stmt 1 view .LVU234
 749 001a 0268     		ldr	r2, [r0]
 750 001c 1368     		ldr	r3, [r2]
 751 001e 43F00103 		orr	r3, r3, #1
 752 0022 1360     		str	r3, [r2]
1098:Drivers/STM32F4xx_HAL_Driver/Src/stm32f4xx_hal_can.c **** 
 753              		.loc 1 1098 5 view .LVU235
1098:Drivers/STM32F4xx_HAL_Driver/Src/stm32f4xx_hal_can.c **** 
 754              		.loc 1 1098 17 is_stmt 0 view .LVU236
 755 0024 FFF7FEFF 		bl	HAL_GetTick
 756              	.LVL36:
1098:Drivers/STM32F4xx_HAL_Driver/Src/stm32f4xx_hal_can.c **** 
 757              		.loc 1 1098 17 view .LVU237
 758 0028 0546     		mov	r5, r0
 759              	.LVL37:
1101:Drivers/STM32F4xx_HAL_Driver/Src/stm32f4xx_hal_can.c ****     {
 760              		.loc 1 1101 5 is_stmt 1 view .LVU238
 761              	.L65:
1101:Drivers/STM32F4xx_HAL_Driver/Src/stm32f4xx_hal_can.c ****     {
 762              		.loc 1 1101 11 view .LVU239
1101:Drivers/STM32F4xx_HAL_Driver/Src/stm32f4xx_hal_can.c ****     {
 763              		.loc 1 1101 17 is_stmt 0 view .LVU240
 764 002a 2368     		ldr	r3, [r4]
1101:Drivers/STM32F4xx_HAL_Driver/Src/stm32f4xx_hal_can.c ****     {
 765              		.loc 1 1101 27 view .LVU241
 766 002c 5A68     		ldr	r2, [r3, #4]
1101:Drivers/STM32F4xx_HAL_Driver/Src/stm32f4xx_hal_can.c ****     {
 767              		.loc 1 1101 11 view .LVU242
 768 002e 12F0010F 		tst	r2, #1
 769 0032 0DD1     		bne	.L70
1104:Drivers/STM32F4xx_HAL_Driver/Src/stm32f4xx_hal_can.c ****       {
 770              		.loc 1 1104 7 is_stmt 1 view .LVU243
1104:Drivers/STM32F4xx_HAL_Driver/Src/stm32f4xx_hal_can.c ****       {
 771              		.loc 1 1104 12 is_stmt 0 view .LVU244
 772 0034 FFF7FEFF 		bl	HAL_GetTick
 773              	.LVL38:
1104:Drivers/STM32F4xx_HAL_Driver/Src/stm32f4xx_hal_can.c ****       {
 774              		.loc 1 1104 26 view .LVU245
 775 0038 431B     		subs	r3, r0, r5
1104:Drivers/STM32F4xx_HAL_Driver/Src/stm32f4xx_hal_can.c ****       {
 776              		.loc 1 1104 10 view .LVU246
 777 003a 0A2B     		cmp	r3, #10
 778 003c F5D9     		bls	.L65
1107:Drivers/STM32F4xx_HAL_Driver/Src/stm32f4xx_hal_can.c **** 
 779              		.loc 1 1107 9 is_stmt 1 view .LVU247
1107:Drivers/STM32F4xx_HAL_Driver/Src/stm32f4xx_hal_can.c **** 
 780              		.loc 1 1107 25 is_stmt 0 view .LVU248
 781 003e 636A     		ldr	r3, [r4, #36]
 782 0040 43F40033 		orr	r3, r3, #131072
ARM GAS  /tmp/cc6hBWA9.s 			page 38


 783 0044 6362     		str	r3, [r4, #36]
1110:Drivers/STM32F4xx_HAL_Driver/Src/stm32f4xx_hal_can.c **** 
 784              		.loc 1 1110 9 is_stmt 1 view .LVU249
1110:Drivers/STM32F4xx_HAL_Driver/Src/stm32f4xx_hal_can.c **** 
 785              		.loc 1 1110 21 is_stmt 0 view .LVU250
 786 0046 0523     		movs	r3, #5
 787 0048 84F82030 		strb	r3, [r4, #32]
1112:Drivers/STM32F4xx_HAL_Driver/Src/stm32f4xx_hal_can.c ****       }
 788              		.loc 1 1112 9 is_stmt 1 view .LVU251
1112:Drivers/STM32F4xx_HAL_Driver/Src/stm32f4xx_hal_can.c ****       }
 789              		.loc 1 1112 16 is_stmt 0 view .LVU252
 790 004c 0120     		movs	r0, #1
 791 004e E3E7     		b	.L66
 792              	.L70:
1117:Drivers/STM32F4xx_HAL_Driver/Src/stm32f4xx_hal_can.c **** 
 793              		.loc 1 1117 5 is_stmt 1 view .LVU253
 794 0050 1A68     		ldr	r2, [r3]
 795 0052 22F00202 		bic	r2, r2, #2
 796 0056 1A60     		str	r2, [r3]
1120:Drivers/STM32F4xx_HAL_Driver/Src/stm32f4xx_hal_can.c **** 
 797              		.loc 1 1120 5 view .LVU254
1120:Drivers/STM32F4xx_HAL_Driver/Src/stm32f4xx_hal_can.c **** 
 798              		.loc 1 1120 17 is_stmt 0 view .LVU255
 799 0058 0123     		movs	r3, #1
 800 005a 84F82030 		strb	r3, [r4, #32]
1123:Drivers/STM32F4xx_HAL_Driver/Src/stm32f4xx_hal_can.c ****   }
 801              		.loc 1 1123 5 is_stmt 1 view .LVU256
1123:Drivers/STM32F4xx_HAL_Driver/Src/stm32f4xx_hal_can.c ****   }
 802              		.loc 1 1123 12 is_stmt 0 view .LVU257
 803 005e 0020     		movs	r0, #0
 804 0060 DAE7     		b	.L66
 805              		.cfi_endproc
 806              	.LFE140:
 808              		.section	.text.HAL_CAN_DeInit,"ax",%progbits
 809              		.align	1
 810              		.global	HAL_CAN_DeInit
 811              		.syntax unified
 812              		.thumb
 813              		.thumb_func
 814              		.fpu fpv4-sp-d16
 816              	HAL_CAN_DeInit:
 817              	.LVL39:
 818              	.LFB135:
 461:Drivers/STM32F4xx_HAL_Driver/Src/stm32f4xx_hal_can.c ****   /* Check CAN handle */
 819              		.loc 1 461 1 is_stmt 1 view -0
 820              		.cfi_startproc
 821              		@ args = 0, pretend = 0, frame = 0
 822              		@ frame_needed = 0, uses_anonymous_args = 0
 463:Drivers/STM32F4xx_HAL_Driver/Src/stm32f4xx_hal_can.c ****   {
 823              		.loc 1 463 3 view .LVU259
 463:Drivers/STM32F4xx_HAL_Driver/Src/stm32f4xx_hal_can.c ****   {
 824              		.loc 1 463 6 is_stmt 0 view .LVU260
 825 0000 80B1     		cbz	r0, .L73
 461:Drivers/STM32F4xx_HAL_Driver/Src/stm32f4xx_hal_can.c ****   /* Check CAN handle */
 826              		.loc 1 461 1 view .LVU261
 827 0002 10B5     		push	{r4, lr}
 828              	.LCFI5:
ARM GAS  /tmp/cc6hBWA9.s 			page 39


 829              		.cfi_def_cfa_offset 8
 830              		.cfi_offset 4, -8
 831              		.cfi_offset 14, -4
 832 0004 0446     		mov	r4, r0
 469:Drivers/STM32F4xx_HAL_Driver/Src/stm32f4xx_hal_can.c **** 
 833              		.loc 1 469 3 is_stmt 1 view .LVU262
 472:Drivers/STM32F4xx_HAL_Driver/Src/stm32f4xx_hal_can.c **** 
 834              		.loc 1 472 3 view .LVU263
 472:Drivers/STM32F4xx_HAL_Driver/Src/stm32f4xx_hal_can.c **** 
 835              		.loc 1 472 9 is_stmt 0 view .LVU264
 836 0006 FFF7FEFF 		bl	HAL_CAN_Stop
 837              	.LVL40:
 485:Drivers/STM32F4xx_HAL_Driver/Src/stm32f4xx_hal_can.c **** #endif /* USE_HAL_CAN_REGISTER_CALLBACKS */
 838              		.loc 1 485 3 is_stmt 1 view .LVU265
 839 000a 2046     		mov	r0, r4
 840 000c FFF7FEFF 		bl	HAL_CAN_MspDeInit
 841              	.LVL41:
 489:Drivers/STM32F4xx_HAL_Driver/Src/stm32f4xx_hal_can.c **** 
 842              		.loc 1 489 3 view .LVU266
 843 0010 2268     		ldr	r2, [r4]
 844 0012 1368     		ldr	r3, [r2]
 845 0014 43F40043 		orr	r3, r3, #32768
 846 0018 1360     		str	r3, [r2]
 492:Drivers/STM32F4xx_HAL_Driver/Src/stm32f4xx_hal_can.c **** 
 847              		.loc 1 492 3 view .LVU267
 492:Drivers/STM32F4xx_HAL_Driver/Src/stm32f4xx_hal_can.c **** 
 848              		.loc 1 492 19 is_stmt 0 view .LVU268
 849 001a 0020     		movs	r0, #0
 850 001c 6062     		str	r0, [r4, #36]
 495:Drivers/STM32F4xx_HAL_Driver/Src/stm32f4xx_hal_can.c **** 
 851              		.loc 1 495 3 is_stmt 1 view .LVU269
 495:Drivers/STM32F4xx_HAL_Driver/Src/stm32f4xx_hal_can.c **** 
 852              		.loc 1 495 15 is_stmt 0 view .LVU270
 853 001e 84F82000 		strb	r0, [r4, #32]
 498:Drivers/STM32F4xx_HAL_Driver/Src/stm32f4xx_hal_can.c **** }
 854              		.loc 1 498 3 is_stmt 1 view .LVU271
 499:Drivers/STM32F4xx_HAL_Driver/Src/stm32f4xx_hal_can.c **** 
 855              		.loc 1 499 1 is_stmt 0 view .LVU272
 856 0022 10BD     		pop	{r4, pc}
 857              	.LVL42:
 858              	.L73:
 859              	.LCFI6:
 860              		.cfi_def_cfa_offset 0
 861              		.cfi_restore 4
 862              		.cfi_restore 14
 465:Drivers/STM32F4xx_HAL_Driver/Src/stm32f4xx_hal_can.c ****   }
 863              		.loc 1 465 12 view .LVU273
 864 0024 0120     		movs	r0, #1
 865              	.LVL43:
 499:Drivers/STM32F4xx_HAL_Driver/Src/stm32f4xx_hal_can.c **** 
 866              		.loc 1 499 1 view .LVU274
 867 0026 7047     		bx	lr
 868              		.cfi_endproc
 869              	.LFE135:
 871              		.section	.text.HAL_CAN_RequestSleep,"ax",%progbits
 872              		.align	1
 873              		.global	HAL_CAN_RequestSleep
ARM GAS  /tmp/cc6hBWA9.s 			page 40


 874              		.syntax unified
 875              		.thumb
 876              		.thumb_func
 877              		.fpu fpv4-sp-d16
 879              	HAL_CAN_RequestSleep:
 880              	.LVL44:
 881              	.LFB141:
1133:Drivers/STM32F4xx_HAL_Driver/Src/stm32f4xx_hal_can.c **** 
1134:Drivers/STM32F4xx_HAL_Driver/Src/stm32f4xx_hal_can.c **** /**
1135:Drivers/STM32F4xx_HAL_Driver/Src/stm32f4xx_hal_can.c ****   * @brief  Request the sleep mode (low power) entry.
1136:Drivers/STM32F4xx_HAL_Driver/Src/stm32f4xx_hal_can.c ****   *         When returning from this function, Sleep mode will be entered
1137:Drivers/STM32F4xx_HAL_Driver/Src/stm32f4xx_hal_can.c ****   *         as soon as the current CAN activity (transmission or reception
1138:Drivers/STM32F4xx_HAL_Driver/Src/stm32f4xx_hal_can.c ****   *         of a CAN frame) has been completed.
1139:Drivers/STM32F4xx_HAL_Driver/Src/stm32f4xx_hal_can.c ****   * @param  hcan pointer to a CAN_HandleTypeDef structure that contains
1140:Drivers/STM32F4xx_HAL_Driver/Src/stm32f4xx_hal_can.c ****   *         the configuration information for the specified CAN.
1141:Drivers/STM32F4xx_HAL_Driver/Src/stm32f4xx_hal_can.c ****   * @retval HAL status.
1142:Drivers/STM32F4xx_HAL_Driver/Src/stm32f4xx_hal_can.c ****   */
1143:Drivers/STM32F4xx_HAL_Driver/Src/stm32f4xx_hal_can.c **** HAL_StatusTypeDef HAL_CAN_RequestSleep(CAN_HandleTypeDef *hcan)
1144:Drivers/STM32F4xx_HAL_Driver/Src/stm32f4xx_hal_can.c **** {
 882              		.loc 1 1144 1 is_stmt 1 view -0
 883              		.cfi_startproc
 884              		@ args = 0, pretend = 0, frame = 0
 885              		@ frame_needed = 0, uses_anonymous_args = 0
 886              		@ link register save eliminated.
1145:Drivers/STM32F4xx_HAL_Driver/Src/stm32f4xx_hal_can.c ****   HAL_CAN_StateTypeDef state = hcan->State;
 887              		.loc 1 1145 3 view .LVU276
 888              		.loc 1 1145 24 is_stmt 0 view .LVU277
 889 0000 90F82030 		ldrb	r3, [r0, #32]	@ zero_extendqisi2
 890              	.LVL45:
1146:Drivers/STM32F4xx_HAL_Driver/Src/stm32f4xx_hal_can.c **** 
1147:Drivers/STM32F4xx_HAL_Driver/Src/stm32f4xx_hal_can.c ****   if ((state == HAL_CAN_STATE_READY) ||
 891              		.loc 1 1147 3 is_stmt 1 view .LVU278
 892              		.loc 1 1147 38 is_stmt 0 view .LVU279
 893 0004 013B     		subs	r3, r3, #1
 894              	.LVL46:
 895              		.loc 1 1147 38 view .LVU280
 896 0006 DBB2     		uxtb	r3, r3
 897              		.loc 1 1147 6 view .LVU281
 898 0008 012B     		cmp	r3, #1
 899 000a 05D9     		bls	.L81
1148:Drivers/STM32F4xx_HAL_Driver/Src/stm32f4xx_hal_can.c ****       (state == HAL_CAN_STATE_LISTENING))
1149:Drivers/STM32F4xx_HAL_Driver/Src/stm32f4xx_hal_can.c ****   {
1150:Drivers/STM32F4xx_HAL_Driver/Src/stm32f4xx_hal_can.c ****     /* Request Sleep mode */
1151:Drivers/STM32F4xx_HAL_Driver/Src/stm32f4xx_hal_can.c ****     SET_BIT(hcan->Instance->MCR, CAN_MCR_SLEEP);
1152:Drivers/STM32F4xx_HAL_Driver/Src/stm32f4xx_hal_can.c **** 
1153:Drivers/STM32F4xx_HAL_Driver/Src/stm32f4xx_hal_can.c ****     /* Return function status */
1154:Drivers/STM32F4xx_HAL_Driver/Src/stm32f4xx_hal_can.c ****     return HAL_OK;
1155:Drivers/STM32F4xx_HAL_Driver/Src/stm32f4xx_hal_can.c ****   }
1156:Drivers/STM32F4xx_HAL_Driver/Src/stm32f4xx_hal_can.c ****   else
1157:Drivers/STM32F4xx_HAL_Driver/Src/stm32f4xx_hal_can.c ****   {
1158:Drivers/STM32F4xx_HAL_Driver/Src/stm32f4xx_hal_can.c ****     /* Update error code */
1159:Drivers/STM32F4xx_HAL_Driver/Src/stm32f4xx_hal_can.c ****     hcan->ErrorCode |= HAL_CAN_ERROR_NOT_INITIALIZED;
 900              		.loc 1 1159 5 is_stmt 1 view .LVU282
 901              		.loc 1 1159 21 is_stmt 0 view .LVU283
 902 000c 436A     		ldr	r3, [r0, #36]
 903 000e 43F48023 		orr	r3, r3, #262144
 904 0012 4362     		str	r3, [r0, #36]
ARM GAS  /tmp/cc6hBWA9.s 			page 41


1160:Drivers/STM32F4xx_HAL_Driver/Src/stm32f4xx_hal_can.c **** 
1161:Drivers/STM32F4xx_HAL_Driver/Src/stm32f4xx_hal_can.c ****     /* Return function status */
1162:Drivers/STM32F4xx_HAL_Driver/Src/stm32f4xx_hal_can.c ****     return HAL_ERROR;
 905              		.loc 1 1162 5 is_stmt 1 view .LVU284
 906              		.loc 1 1162 12 is_stmt 0 view .LVU285
 907 0014 0120     		movs	r0, #1
 908              	.LVL47:
1163:Drivers/STM32F4xx_HAL_Driver/Src/stm32f4xx_hal_can.c ****   }
1164:Drivers/STM32F4xx_HAL_Driver/Src/stm32f4xx_hal_can.c **** }
 909              		.loc 1 1164 1 view .LVU286
 910 0016 7047     		bx	lr
 911              	.LVL48:
 912              	.L81:
1151:Drivers/STM32F4xx_HAL_Driver/Src/stm32f4xx_hal_can.c **** 
 913              		.loc 1 1151 5 is_stmt 1 view .LVU287
 914 0018 0268     		ldr	r2, [r0]
 915 001a 1368     		ldr	r3, [r2]
 916 001c 43F00203 		orr	r3, r3, #2
 917 0020 1360     		str	r3, [r2]
1154:Drivers/STM32F4xx_HAL_Driver/Src/stm32f4xx_hal_can.c ****   }
 918              		.loc 1 1154 5 view .LVU288
1154:Drivers/STM32F4xx_HAL_Driver/Src/stm32f4xx_hal_can.c ****   }
 919              		.loc 1 1154 12 is_stmt 0 view .LVU289
 920 0022 0020     		movs	r0, #0
 921              	.LVL49:
1154:Drivers/STM32F4xx_HAL_Driver/Src/stm32f4xx_hal_can.c ****   }
 922              		.loc 1 1154 12 view .LVU290
 923 0024 7047     		bx	lr
 924              		.cfi_endproc
 925              	.LFE141:
 927              		.section	.text.HAL_CAN_WakeUp,"ax",%progbits
 928              		.align	1
 929              		.global	HAL_CAN_WakeUp
 930              		.syntax unified
 931              		.thumb
 932              		.thumb_func
 933              		.fpu fpv4-sp-d16
 935              	HAL_CAN_WakeUp:
 936              	.LVL50:
 937              	.LFB142:
1165:Drivers/STM32F4xx_HAL_Driver/Src/stm32f4xx_hal_can.c **** 
1166:Drivers/STM32F4xx_HAL_Driver/Src/stm32f4xx_hal_can.c **** /**
1167:Drivers/STM32F4xx_HAL_Driver/Src/stm32f4xx_hal_can.c ****   * @brief  Wake up from sleep mode.
1168:Drivers/STM32F4xx_HAL_Driver/Src/stm32f4xx_hal_can.c ****   *         When returning with HAL_OK status from this function, Sleep mode
1169:Drivers/STM32F4xx_HAL_Driver/Src/stm32f4xx_hal_can.c ****   *         is exited.
1170:Drivers/STM32F4xx_HAL_Driver/Src/stm32f4xx_hal_can.c ****   * @param  hcan pointer to a CAN_HandleTypeDef structure that contains
1171:Drivers/STM32F4xx_HAL_Driver/Src/stm32f4xx_hal_can.c ****   *         the configuration information for the specified CAN.
1172:Drivers/STM32F4xx_HAL_Driver/Src/stm32f4xx_hal_can.c ****   * @retval HAL status.
1173:Drivers/STM32F4xx_HAL_Driver/Src/stm32f4xx_hal_can.c ****   */
1174:Drivers/STM32F4xx_HAL_Driver/Src/stm32f4xx_hal_can.c **** HAL_StatusTypeDef HAL_CAN_WakeUp(CAN_HandleTypeDef *hcan)
1175:Drivers/STM32F4xx_HAL_Driver/Src/stm32f4xx_hal_can.c **** {
 938              		.loc 1 1175 1 is_stmt 1 view -0
 939              		.cfi_startproc
 940              		@ args = 0, pretend = 0, frame = 8
 941              		@ frame_needed = 0, uses_anonymous_args = 0
 942              		@ link register save eliminated.
 943              		.loc 1 1175 1 is_stmt 0 view .LVU292
ARM GAS  /tmp/cc6hBWA9.s 			page 42


 944 0000 82B0     		sub	sp, sp, #8
 945              	.LCFI7:
 946              		.cfi_def_cfa_offset 8
1176:Drivers/STM32F4xx_HAL_Driver/Src/stm32f4xx_hal_can.c ****   __IO uint32_t count = 0;
 947              		.loc 1 1176 3 is_stmt 1 view .LVU293
 948              		.loc 1 1176 17 is_stmt 0 view .LVU294
 949 0002 0023     		movs	r3, #0
 950 0004 0193     		str	r3, [sp, #4]
1177:Drivers/STM32F4xx_HAL_Driver/Src/stm32f4xx_hal_can.c ****   HAL_CAN_StateTypeDef state = hcan->State;
 951              		.loc 1 1177 3 is_stmt 1 view .LVU295
 952              		.loc 1 1177 24 is_stmt 0 view .LVU296
 953 0006 90F82030 		ldrb	r3, [r0, #32]	@ zero_extendqisi2
 954              	.LVL51:
1178:Drivers/STM32F4xx_HAL_Driver/Src/stm32f4xx_hal_can.c **** 
1179:Drivers/STM32F4xx_HAL_Driver/Src/stm32f4xx_hal_can.c ****   if ((state == HAL_CAN_STATE_READY) ||
 955              		.loc 1 1179 3 is_stmt 1 view .LVU297
 956              		.loc 1 1179 38 is_stmt 0 view .LVU298
 957 000a 013B     		subs	r3, r3, #1
 958              	.LVL52:
 959              		.loc 1 1179 38 view .LVU299
 960 000c DBB2     		uxtb	r3, r3
 961              		.loc 1 1179 6 view .LVU300
 962 000e 012B     		cmp	r3, #1
 963 0010 18D8     		bhi	.L83
1180:Drivers/STM32F4xx_HAL_Driver/Src/stm32f4xx_hal_can.c ****       (state == HAL_CAN_STATE_LISTENING))
1181:Drivers/STM32F4xx_HAL_Driver/Src/stm32f4xx_hal_can.c ****   {
1182:Drivers/STM32F4xx_HAL_Driver/Src/stm32f4xx_hal_can.c ****     /* Wake up request */
1183:Drivers/STM32F4xx_HAL_Driver/Src/stm32f4xx_hal_can.c ****     CLEAR_BIT(hcan->Instance->MCR, CAN_MCR_SLEEP);
 964              		.loc 1 1183 5 is_stmt 1 view .LVU301
 965 0012 0268     		ldr	r2, [r0]
 966 0014 1368     		ldr	r3, [r2]
 967 0016 23F00203 		bic	r3, r3, #2
 968 001a 1360     		str	r3, [r2]
 969              	.L86:
1184:Drivers/STM32F4xx_HAL_Driver/Src/stm32f4xx_hal_can.c **** 
1185:Drivers/STM32F4xx_HAL_Driver/Src/stm32f4xx_hal_can.c ****     /* Wait sleep mode is exited */
1186:Drivers/STM32F4xx_HAL_Driver/Src/stm32f4xx_hal_can.c ****     do
 970              		.loc 1 1186 5 view .LVU302
1187:Drivers/STM32F4xx_HAL_Driver/Src/stm32f4xx_hal_can.c ****     {
1188:Drivers/STM32F4xx_HAL_Driver/Src/stm32f4xx_hal_can.c ****       /* Increment counter */
1189:Drivers/STM32F4xx_HAL_Driver/Src/stm32f4xx_hal_can.c ****       count++;
 971              		.loc 1 1189 7 view .LVU303
 972              		.loc 1 1189 12 is_stmt 0 view .LVU304
 973 001c 019B     		ldr	r3, [sp, #4]
 974 001e 0133     		adds	r3, r3, #1
 975 0020 0193     		str	r3, [sp, #4]
1190:Drivers/STM32F4xx_HAL_Driver/Src/stm32f4xx_hal_can.c **** 
1191:Drivers/STM32F4xx_HAL_Driver/Src/stm32f4xx_hal_can.c ****       /* Check if timeout is reached */
1192:Drivers/STM32F4xx_HAL_Driver/Src/stm32f4xx_hal_can.c ****       if (count > CAN_WAKEUP_TIMEOUT_COUNTER)
 976              		.loc 1 1192 7 is_stmt 1 view .LVU305
 977              		.loc 1 1192 17 is_stmt 0 view .LVU306
 978 0022 019A     		ldr	r2, [sp, #4]
 979              		.loc 1 1192 10 view .LVU307
 980 0024 0B4B     		ldr	r3, .L89
 981 0026 9A42     		cmp	r2, r3
 982 0028 06D8     		bhi	.L88
1193:Drivers/STM32F4xx_HAL_Driver/Src/stm32f4xx_hal_can.c ****       {
ARM GAS  /tmp/cc6hBWA9.s 			page 43


1194:Drivers/STM32F4xx_HAL_Driver/Src/stm32f4xx_hal_can.c ****         /* Update error code */
1195:Drivers/STM32F4xx_HAL_Driver/Src/stm32f4xx_hal_can.c ****         hcan->ErrorCode |= HAL_CAN_ERROR_TIMEOUT;
1196:Drivers/STM32F4xx_HAL_Driver/Src/stm32f4xx_hal_can.c **** 
1197:Drivers/STM32F4xx_HAL_Driver/Src/stm32f4xx_hal_can.c ****         return HAL_ERROR;
1198:Drivers/STM32F4xx_HAL_Driver/Src/stm32f4xx_hal_can.c ****       }
1199:Drivers/STM32F4xx_HAL_Driver/Src/stm32f4xx_hal_can.c ****     } while ((hcan->Instance->MSR & CAN_MSR_SLAK) != 0U);
 983              		.loc 1 1199 13 is_stmt 1 view .LVU308
 984              		.loc 1 1199 19 is_stmt 0 view .LVU309
 985 002a 0368     		ldr	r3, [r0]
 986              		.loc 1 1199 29 view .LVU310
 987 002c 5B68     		ldr	r3, [r3, #4]
 988              		.loc 1 1199 5 view .LVU311
 989 002e 13F0020F 		tst	r3, #2
 990 0032 F3D1     		bne	.L86
1200:Drivers/STM32F4xx_HAL_Driver/Src/stm32f4xx_hal_can.c **** 
1201:Drivers/STM32F4xx_HAL_Driver/Src/stm32f4xx_hal_can.c ****     /* Return function status */
1202:Drivers/STM32F4xx_HAL_Driver/Src/stm32f4xx_hal_can.c ****     return HAL_OK;
 991              		.loc 1 1202 12 view .LVU312
 992 0034 0020     		movs	r0, #0
 993              	.LVL53:
 994              		.loc 1 1202 12 view .LVU313
 995 0036 0AE0     		b	.L85
 996              	.LVL54:
 997              	.L88:
1195:Drivers/STM32F4xx_HAL_Driver/Src/stm32f4xx_hal_can.c **** 
 998              		.loc 1 1195 9 is_stmt 1 view .LVU314
1195:Drivers/STM32F4xx_HAL_Driver/Src/stm32f4xx_hal_can.c **** 
 999              		.loc 1 1195 25 is_stmt 0 view .LVU315
 1000 0038 436A     		ldr	r3, [r0, #36]
 1001 003a 43F40033 		orr	r3, r3, #131072
 1002 003e 4362     		str	r3, [r0, #36]
1197:Drivers/STM32F4xx_HAL_Driver/Src/stm32f4xx_hal_can.c ****       }
 1003              		.loc 1 1197 9 is_stmt 1 view .LVU316
1197:Drivers/STM32F4xx_HAL_Driver/Src/stm32f4xx_hal_can.c ****       }
 1004              		.loc 1 1197 16 is_stmt 0 view .LVU317
 1005 0040 0120     		movs	r0, #1
 1006              	.LVL55:
1197:Drivers/STM32F4xx_HAL_Driver/Src/stm32f4xx_hal_can.c ****       }
 1007              		.loc 1 1197 16 view .LVU318
 1008 0042 04E0     		b	.L85
 1009              	.LVL56:
 1010              	.L83:
1203:Drivers/STM32F4xx_HAL_Driver/Src/stm32f4xx_hal_can.c ****   }
1204:Drivers/STM32F4xx_HAL_Driver/Src/stm32f4xx_hal_can.c ****   else
1205:Drivers/STM32F4xx_HAL_Driver/Src/stm32f4xx_hal_can.c ****   {
1206:Drivers/STM32F4xx_HAL_Driver/Src/stm32f4xx_hal_can.c ****     /* Update error code */
1207:Drivers/STM32F4xx_HAL_Driver/Src/stm32f4xx_hal_can.c ****     hcan->ErrorCode |= HAL_CAN_ERROR_NOT_INITIALIZED;
 1011              		.loc 1 1207 5 is_stmt 1 view .LVU319
 1012              		.loc 1 1207 21 is_stmt 0 view .LVU320
 1013 0044 436A     		ldr	r3, [r0, #36]
 1014 0046 43F48023 		orr	r3, r3, #262144
 1015 004a 4362     		str	r3, [r0, #36]
1208:Drivers/STM32F4xx_HAL_Driver/Src/stm32f4xx_hal_can.c **** 
1209:Drivers/STM32F4xx_HAL_Driver/Src/stm32f4xx_hal_can.c ****     return HAL_ERROR;
 1016              		.loc 1 1209 5 is_stmt 1 view .LVU321
 1017              		.loc 1 1209 12 is_stmt 0 view .LVU322
 1018 004c 0120     		movs	r0, #1
ARM GAS  /tmp/cc6hBWA9.s 			page 44


 1019              	.LVL57:
 1020              	.L85:
1210:Drivers/STM32F4xx_HAL_Driver/Src/stm32f4xx_hal_can.c ****   }
1211:Drivers/STM32F4xx_HAL_Driver/Src/stm32f4xx_hal_can.c **** }
 1021              		.loc 1 1211 1 view .LVU323
 1022 004e 02B0     		add	sp, sp, #8
 1023              	.LCFI8:
 1024              		.cfi_def_cfa_offset 0
 1025              		@ sp needed
 1026 0050 7047     		bx	lr
 1027              	.L90:
 1028 0052 00BF     		.align	2
 1029              	.L89:
 1030 0054 40420F00 		.word	1000000
 1031              		.cfi_endproc
 1032              	.LFE142:
 1034              		.section	.text.HAL_CAN_IsSleepActive,"ax",%progbits
 1035              		.align	1
 1036              		.global	HAL_CAN_IsSleepActive
 1037              		.syntax unified
 1038              		.thumb
 1039              		.thumb_func
 1040              		.fpu fpv4-sp-d16
 1042              	HAL_CAN_IsSleepActive:
 1043              	.LVL58:
 1044              	.LFB143:
1212:Drivers/STM32F4xx_HAL_Driver/Src/stm32f4xx_hal_can.c **** 
1213:Drivers/STM32F4xx_HAL_Driver/Src/stm32f4xx_hal_can.c **** /**
1214:Drivers/STM32F4xx_HAL_Driver/Src/stm32f4xx_hal_can.c ****   * @brief  Check is sleep mode is active.
1215:Drivers/STM32F4xx_HAL_Driver/Src/stm32f4xx_hal_can.c ****   * @param  hcan pointer to a CAN_HandleTypeDef structure that contains
1216:Drivers/STM32F4xx_HAL_Driver/Src/stm32f4xx_hal_can.c ****   *         the configuration information for the specified CAN.
1217:Drivers/STM32F4xx_HAL_Driver/Src/stm32f4xx_hal_can.c ****   * @retval Status
1218:Drivers/STM32F4xx_HAL_Driver/Src/stm32f4xx_hal_can.c ****   *          - 0 : Sleep mode is not active.
1219:Drivers/STM32F4xx_HAL_Driver/Src/stm32f4xx_hal_can.c ****   *          - 1 : Sleep mode is active.
1220:Drivers/STM32F4xx_HAL_Driver/Src/stm32f4xx_hal_can.c ****   */
1221:Drivers/STM32F4xx_HAL_Driver/Src/stm32f4xx_hal_can.c **** uint32_t HAL_CAN_IsSleepActive(const CAN_HandleTypeDef *hcan)
1222:Drivers/STM32F4xx_HAL_Driver/Src/stm32f4xx_hal_can.c **** {
 1045              		.loc 1 1222 1 is_stmt 1 view -0
 1046              		.cfi_startproc
 1047              		@ args = 0, pretend = 0, frame = 0
 1048              		@ frame_needed = 0, uses_anonymous_args = 0
 1049              		@ link register save eliminated.
1223:Drivers/STM32F4xx_HAL_Driver/Src/stm32f4xx_hal_can.c ****   uint32_t status = 0U;
 1050              		.loc 1 1223 3 view .LVU325
1224:Drivers/STM32F4xx_HAL_Driver/Src/stm32f4xx_hal_can.c ****   HAL_CAN_StateTypeDef state = hcan->State;
 1051              		.loc 1 1224 3 view .LVU326
 1052              		.loc 1 1224 24 is_stmt 0 view .LVU327
 1053 0000 90F82030 		ldrb	r3, [r0, #32]	@ zero_extendqisi2
 1054              	.LVL59:
1225:Drivers/STM32F4xx_HAL_Driver/Src/stm32f4xx_hal_can.c **** 
1226:Drivers/STM32F4xx_HAL_Driver/Src/stm32f4xx_hal_can.c ****   if ((state == HAL_CAN_STATE_READY) ||
 1055              		.loc 1 1226 3 is_stmt 1 view .LVU328
 1056              		.loc 1 1226 38 is_stmt 0 view .LVU329
 1057 0004 013B     		subs	r3, r3, #1
 1058              	.LVL60:
 1059              		.loc 1 1226 38 view .LVU330
 1060 0006 DBB2     		uxtb	r3, r3
ARM GAS  /tmp/cc6hBWA9.s 			page 45


 1061              		.loc 1 1226 6 view .LVU331
 1062 0008 012B     		cmp	r3, #1
 1063 000a 01D9     		bls	.L95
1223:Drivers/STM32F4xx_HAL_Driver/Src/stm32f4xx_hal_can.c ****   HAL_CAN_StateTypeDef state = hcan->State;
 1064              		.loc 1 1223 12 view .LVU332
 1065 000c 0020     		movs	r0, #0
 1066              	.LVL61:
1223:Drivers/STM32F4xx_HAL_Driver/Src/stm32f4xx_hal_can.c ****   HAL_CAN_StateTypeDef state = hcan->State;
 1067              		.loc 1 1223 12 view .LVU333
 1068 000e 7047     		bx	lr
 1069              	.LVL62:
 1070              	.L95:
1227:Drivers/STM32F4xx_HAL_Driver/Src/stm32f4xx_hal_can.c ****       (state == HAL_CAN_STATE_LISTENING))
1228:Drivers/STM32F4xx_HAL_Driver/Src/stm32f4xx_hal_can.c ****   {
1229:Drivers/STM32F4xx_HAL_Driver/Src/stm32f4xx_hal_can.c ****     /* Check Sleep mode */
1230:Drivers/STM32F4xx_HAL_Driver/Src/stm32f4xx_hal_can.c ****     if ((hcan->Instance->MSR & CAN_MSR_SLAK) != 0U)
 1071              		.loc 1 1230 5 is_stmt 1 view .LVU334
 1072              		.loc 1 1230 14 is_stmt 0 view .LVU335
 1073 0010 0368     		ldr	r3, [r0]
 1074              		.loc 1 1230 24 view .LVU336
 1075 0012 5868     		ldr	r0, [r3, #4]
 1076              	.LVL63:
 1077              		.loc 1 1230 8 view .LVU337
 1078 0014 10F00200 		ands	r0, r0, #2
 1079 0018 00D1     		bne	.L94
 1080 001a 7047     		bx	lr
 1081              	.L94:
1231:Drivers/STM32F4xx_HAL_Driver/Src/stm32f4xx_hal_can.c ****     {
1232:Drivers/STM32F4xx_HAL_Driver/Src/stm32f4xx_hal_can.c ****       status = 1U;
 1082              		.loc 1 1232 14 view .LVU338
 1083 001c 0120     		movs	r0, #1
 1084              	.LVL64:
1233:Drivers/STM32F4xx_HAL_Driver/Src/stm32f4xx_hal_can.c ****     }
1234:Drivers/STM32F4xx_HAL_Driver/Src/stm32f4xx_hal_can.c ****   }
1235:Drivers/STM32F4xx_HAL_Driver/Src/stm32f4xx_hal_can.c **** 
1236:Drivers/STM32F4xx_HAL_Driver/Src/stm32f4xx_hal_can.c ****   /* Return function status */
1237:Drivers/STM32F4xx_HAL_Driver/Src/stm32f4xx_hal_can.c ****   return status;
 1085              		.loc 1 1237 3 is_stmt 1 view .LVU339
1238:Drivers/STM32F4xx_HAL_Driver/Src/stm32f4xx_hal_can.c **** }
 1086              		.loc 1 1238 1 is_stmt 0 view .LVU340
 1087 001e 7047     		bx	lr
 1088              		.cfi_endproc
 1089              	.LFE143:
 1091              		.section	.text.HAL_CAN_AddTxMessage,"ax",%progbits
 1092              		.align	1
 1093              		.global	HAL_CAN_AddTxMessage
 1094              		.syntax unified
 1095              		.thumb
 1096              		.thumb_func
 1097              		.fpu fpv4-sp-d16
 1099              	HAL_CAN_AddTxMessage:
 1100              	.LVL65:
 1101              	.LFB144:
1239:Drivers/STM32F4xx_HAL_Driver/Src/stm32f4xx_hal_can.c **** 
1240:Drivers/STM32F4xx_HAL_Driver/Src/stm32f4xx_hal_can.c **** /**
1241:Drivers/STM32F4xx_HAL_Driver/Src/stm32f4xx_hal_can.c ****   * @brief  Add a message to the first free Tx mailbox and activate the
1242:Drivers/STM32F4xx_HAL_Driver/Src/stm32f4xx_hal_can.c ****   *         corresponding transmission request.
ARM GAS  /tmp/cc6hBWA9.s 			page 46


1243:Drivers/STM32F4xx_HAL_Driver/Src/stm32f4xx_hal_can.c ****   * @param  hcan pointer to a CAN_HandleTypeDef structure that contains
1244:Drivers/STM32F4xx_HAL_Driver/Src/stm32f4xx_hal_can.c ****   *         the configuration information for the specified CAN.
1245:Drivers/STM32F4xx_HAL_Driver/Src/stm32f4xx_hal_can.c ****   * @param  pHeader pointer to a CAN_TxHeaderTypeDef structure.
1246:Drivers/STM32F4xx_HAL_Driver/Src/stm32f4xx_hal_can.c ****   * @param  aData array containing the payload of the Tx frame.
1247:Drivers/STM32F4xx_HAL_Driver/Src/stm32f4xx_hal_can.c ****   * @param  pTxMailbox pointer to a variable where the function will return
1248:Drivers/STM32F4xx_HAL_Driver/Src/stm32f4xx_hal_can.c ****   *         the TxMailbox used to store the Tx message.
1249:Drivers/STM32F4xx_HAL_Driver/Src/stm32f4xx_hal_can.c ****   *         This parameter can be a value of @arg CAN_Tx_Mailboxes.
1250:Drivers/STM32F4xx_HAL_Driver/Src/stm32f4xx_hal_can.c ****   * @retval HAL status
1251:Drivers/STM32F4xx_HAL_Driver/Src/stm32f4xx_hal_can.c ****   */
1252:Drivers/STM32F4xx_HAL_Driver/Src/stm32f4xx_hal_can.c **** HAL_StatusTypeDef HAL_CAN_AddTxMessage(CAN_HandleTypeDef *hcan, const CAN_TxHeaderTypeDef *pHeader,
1253:Drivers/STM32F4xx_HAL_Driver/Src/stm32f4xx_hal_can.c ****                                        const uint8_t aData[], uint32_t *pTxMailbox)
1254:Drivers/STM32F4xx_HAL_Driver/Src/stm32f4xx_hal_can.c **** {
 1102              		.loc 1 1254 1 is_stmt 1 view -0
 1103              		.cfi_startproc
 1104              		@ args = 0, pretend = 0, frame = 0
 1105              		@ frame_needed = 0, uses_anonymous_args = 0
 1106              		.loc 1 1254 1 is_stmt 0 view .LVU342
 1107 0000 30B5     		push	{r4, r5, lr}
 1108              	.LCFI9:
 1109              		.cfi_def_cfa_offset 12
 1110              		.cfi_offset 4, -12
 1111              		.cfi_offset 5, -8
 1112              		.cfi_offset 14, -4
1255:Drivers/STM32F4xx_HAL_Driver/Src/stm32f4xx_hal_can.c ****   uint32_t transmitmailbox;
 1113              		.loc 1 1255 3 is_stmt 1 view .LVU343
1256:Drivers/STM32F4xx_HAL_Driver/Src/stm32f4xx_hal_can.c ****   HAL_CAN_StateTypeDef state = hcan->State;
 1114              		.loc 1 1256 3 view .LVU344
 1115              		.loc 1 1256 24 is_stmt 0 view .LVU345
 1116 0002 90F820C0 		ldrb	ip, [r0, #32]	@ zero_extendqisi2
 1117              	.LVL66:
1257:Drivers/STM32F4xx_HAL_Driver/Src/stm32f4xx_hal_can.c ****   uint32_t tsr = READ_REG(hcan->Instance->TSR);
 1118              		.loc 1 1257 3 is_stmt 1 view .LVU346
 1119              		.loc 1 1257 12 is_stmt 0 view .LVU347
 1120 0006 0468     		ldr	r4, [r0]
 1121 0008 A468     		ldr	r4, [r4, #8]
 1122              	.LVL67:
1258:Drivers/STM32F4xx_HAL_Driver/Src/stm32f4xx_hal_can.c **** 
1259:Drivers/STM32F4xx_HAL_Driver/Src/stm32f4xx_hal_can.c ****   /* Check the parameters */
1260:Drivers/STM32F4xx_HAL_Driver/Src/stm32f4xx_hal_can.c ****   assert_param(IS_CAN_IDTYPE(pHeader->IDE));
 1123              		.loc 1 1260 3 is_stmt 1 view .LVU348
1261:Drivers/STM32F4xx_HAL_Driver/Src/stm32f4xx_hal_can.c ****   assert_param(IS_CAN_RTR(pHeader->RTR));
 1124              		.loc 1 1261 3 view .LVU349
1262:Drivers/STM32F4xx_HAL_Driver/Src/stm32f4xx_hal_can.c ****   assert_param(IS_CAN_DLC(pHeader->DLC));
 1125              		.loc 1 1262 3 view .LVU350
1263:Drivers/STM32F4xx_HAL_Driver/Src/stm32f4xx_hal_can.c ****   if (pHeader->IDE == CAN_ID_STD)
 1126              		.loc 1 1263 3 view .LVU351
1264:Drivers/STM32F4xx_HAL_Driver/Src/stm32f4xx_hal_can.c ****   {
1265:Drivers/STM32F4xx_HAL_Driver/Src/stm32f4xx_hal_can.c ****     assert_param(IS_CAN_STDID(pHeader->StdId));
1266:Drivers/STM32F4xx_HAL_Driver/Src/stm32f4xx_hal_can.c ****   }
1267:Drivers/STM32F4xx_HAL_Driver/Src/stm32f4xx_hal_can.c ****   else
1268:Drivers/STM32F4xx_HAL_Driver/Src/stm32f4xx_hal_can.c ****   {
1269:Drivers/STM32F4xx_HAL_Driver/Src/stm32f4xx_hal_can.c ****     assert_param(IS_CAN_EXTID(pHeader->ExtId));
 1127              		.loc 1 1269 5 view .LVU352
1270:Drivers/STM32F4xx_HAL_Driver/Src/stm32f4xx_hal_can.c ****   }
1271:Drivers/STM32F4xx_HAL_Driver/Src/stm32f4xx_hal_can.c ****   assert_param(IS_FUNCTIONAL_STATE(pHeader->TransmitGlobalTime));
 1128              		.loc 1 1271 3 view .LVU353
1272:Drivers/STM32F4xx_HAL_Driver/Src/stm32f4xx_hal_can.c **** 
ARM GAS  /tmp/cc6hBWA9.s 			page 47


1273:Drivers/STM32F4xx_HAL_Driver/Src/stm32f4xx_hal_can.c ****   if ((state == HAL_CAN_STATE_READY) ||
 1129              		.loc 1 1273 3 view .LVU354
 1130              		.loc 1 1273 38 is_stmt 0 view .LVU355
 1131 000a 0CF1FF3C 		add	ip, ip, #-1
 1132              	.LVL68:
 1133              		.loc 1 1273 38 view .LVU356
 1134 000e 5FFA8CFC 		uxtb	ip, ip
 1135              		.loc 1 1273 6 view .LVU357
 1136 0012 BCF1010F 		cmp	ip, #1
 1137 0016 62D8     		bhi	.L97
1274:Drivers/STM32F4xx_HAL_Driver/Src/stm32f4xx_hal_can.c ****       (state == HAL_CAN_STATE_LISTENING))
1275:Drivers/STM32F4xx_HAL_Driver/Src/stm32f4xx_hal_can.c ****   {
1276:Drivers/STM32F4xx_HAL_Driver/Src/stm32f4xx_hal_can.c ****     /* Check that all the Tx mailboxes are not full */
1277:Drivers/STM32F4xx_HAL_Driver/Src/stm32f4xx_hal_can.c ****     if (((tsr & CAN_TSR_TME0) != 0U) ||
 1138              		.loc 1 1277 5 is_stmt 1 view .LVU358
 1139              		.loc 1 1277 8 is_stmt 0 view .LVU359
 1140 0018 14F0E05F 		tst	r4, #469762048
 1141 001c 59D0     		beq	.L98
1278:Drivers/STM32F4xx_HAL_Driver/Src/stm32f4xx_hal_can.c ****         ((tsr & CAN_TSR_TME1) != 0U) ||
1279:Drivers/STM32F4xx_HAL_Driver/Src/stm32f4xx_hal_can.c ****         ((tsr & CAN_TSR_TME2) != 0U))
1280:Drivers/STM32F4xx_HAL_Driver/Src/stm32f4xx_hal_can.c ****     {
1281:Drivers/STM32F4xx_HAL_Driver/Src/stm32f4xx_hal_can.c ****       /* Select an empty transmit mailbox */
1282:Drivers/STM32F4xx_HAL_Driver/Src/stm32f4xx_hal_can.c ****       transmitmailbox = (tsr & CAN_TSR_CODE) >> CAN_TSR_CODE_Pos;
 1142              		.loc 1 1282 7 is_stmt 1 view .LVU360
 1143              		.loc 1 1282 23 is_stmt 0 view .LVU361
 1144 001e C4F3016C 		ubfx	ip, r4, #24, #2
 1145              	.LVL69:
1283:Drivers/STM32F4xx_HAL_Driver/Src/stm32f4xx_hal_can.c **** 
1284:Drivers/STM32F4xx_HAL_Driver/Src/stm32f4xx_hal_can.c ****       /* Store the Tx mailbox */
1285:Drivers/STM32F4xx_HAL_Driver/Src/stm32f4xx_hal_can.c ****       *pTxMailbox = (uint32_t)1 << transmitmailbox;
 1146              		.loc 1 1285 7 is_stmt 1 view .LVU362
 1147              		.loc 1 1285 33 is_stmt 0 view .LVU363
 1148 0022 0124     		movs	r4, #1
 1149              	.LVL70:
 1150              		.loc 1 1285 33 view .LVU364
 1151 0024 04FA0CF4 		lsl	r4, r4, ip
 1152              		.loc 1 1285 19 view .LVU365
 1153 0028 1C60     		str	r4, [r3]
1286:Drivers/STM32F4xx_HAL_Driver/Src/stm32f4xx_hal_can.c **** 
1287:Drivers/STM32F4xx_HAL_Driver/Src/stm32f4xx_hal_can.c ****       /* Set up the Id */
1288:Drivers/STM32F4xx_HAL_Driver/Src/stm32f4xx_hal_can.c ****       if (pHeader->IDE == CAN_ID_STD)
 1154              		.loc 1 1288 7 is_stmt 1 view .LVU366
 1155              		.loc 1 1288 18 is_stmt 0 view .LVU367
 1156 002a 8B68     		ldr	r3, [r1, #8]
 1157              	.LVL71:
 1158              		.loc 1 1288 10 view .LVU368
 1159 002c 002B     		cmp	r3, #0
 1160 002e 3DD1     		bne	.L99
1289:Drivers/STM32F4xx_HAL_Driver/Src/stm32f4xx_hal_can.c ****       {
1290:Drivers/STM32F4xx_HAL_Driver/Src/stm32f4xx_hal_can.c ****         hcan->Instance->sTxMailBox[transmitmailbox].TIR = ((pHeader->StdId << CAN_TI0R_STID_Pos) |
 1161              		.loc 1 1290 9 is_stmt 1 view .LVU369
 1162              		.loc 1 1290 68 is_stmt 0 view .LVU370
 1163 0030 0D68     		ldr	r5, [r1]
1291:Drivers/STM32F4xx_HAL_Driver/Src/stm32f4xx_hal_can.c ****                                                            pHeader->RTR);
 1164              		.loc 1 1291 67 view .LVU371
 1165 0032 CB68     		ldr	r3, [r1, #12]
1290:Drivers/STM32F4xx_HAL_Driver/Src/stm32f4xx_hal_can.c ****                                                            pHeader->RTR);
ARM GAS  /tmp/cc6hBWA9.s 			page 48


 1166              		.loc 1 1290 13 view .LVU372
 1167 0034 0468     		ldr	r4, [r0]
1290:Drivers/STM32F4xx_HAL_Driver/Src/stm32f4xx_hal_can.c ****                                                            pHeader->RTR);
 1168              		.loc 1 1290 98 view .LVU373
 1169 0036 43EA4555 		orr	r5, r3, r5, lsl #21
1290:Drivers/STM32F4xx_HAL_Driver/Src/stm32f4xx_hal_can.c ****                                                            pHeader->RTR);
 1170              		.loc 1 1290 57 view .LVU374
 1171 003a 0CF11803 		add	r3, ip, #24
 1172 003e 1B01     		lsls	r3, r3, #4
 1173 0040 E550     		str	r5, [r4, r3]
 1174              	.L100:
1292:Drivers/STM32F4xx_HAL_Driver/Src/stm32f4xx_hal_can.c ****       }
1293:Drivers/STM32F4xx_HAL_Driver/Src/stm32f4xx_hal_can.c ****       else
1294:Drivers/STM32F4xx_HAL_Driver/Src/stm32f4xx_hal_can.c ****       {
1295:Drivers/STM32F4xx_HAL_Driver/Src/stm32f4xx_hal_can.c ****         hcan->Instance->sTxMailBox[transmitmailbox].TIR = ((pHeader->ExtId << CAN_TI0R_EXID_Pos) |
1296:Drivers/STM32F4xx_HAL_Driver/Src/stm32f4xx_hal_can.c ****                                                            pHeader->IDE |
1297:Drivers/STM32F4xx_HAL_Driver/Src/stm32f4xx_hal_can.c ****                                                            pHeader->RTR);
1298:Drivers/STM32F4xx_HAL_Driver/Src/stm32f4xx_hal_can.c ****       }
1299:Drivers/STM32F4xx_HAL_Driver/Src/stm32f4xx_hal_can.c **** 
1300:Drivers/STM32F4xx_HAL_Driver/Src/stm32f4xx_hal_can.c ****       /* Set up the DLC */
1301:Drivers/STM32F4xx_HAL_Driver/Src/stm32f4xx_hal_can.c ****       hcan->Instance->sTxMailBox[transmitmailbox].TDTR = (pHeader->DLC);
 1175              		.loc 1 1301 7 is_stmt 1 view .LVU375
 1176              		.loc 1 1301 11 is_stmt 0 view .LVU376
 1177 0042 0368     		ldr	r3, [r0]
 1178              		.loc 1 1301 66 view .LVU377
 1179 0044 0C69     		ldr	r4, [r1, #16]
 1180              		.loc 1 1301 56 view .LVU378
 1181 0046 0CF1180E 		add	lr, ip, #24
 1182 004a 03EB0E13 		add	r3, r3, lr, lsl #4
 1183 004e 5C60     		str	r4, [r3, #4]
1302:Drivers/STM32F4xx_HAL_Driver/Src/stm32f4xx_hal_can.c **** 
1303:Drivers/STM32F4xx_HAL_Driver/Src/stm32f4xx_hal_can.c ****       /* Set up the Transmit Global Time mode */
1304:Drivers/STM32F4xx_HAL_Driver/Src/stm32f4xx_hal_can.c ****       if (pHeader->TransmitGlobalTime == ENABLE)
 1184              		.loc 1 1304 7 is_stmt 1 view .LVU379
 1185              		.loc 1 1304 18 is_stmt 0 view .LVU380
 1186 0050 0B7D     		ldrb	r3, [r1, #20]	@ zero_extendqisi2
 1187              		.loc 1 1304 10 view .LVU381
 1188 0052 012B     		cmp	r3, #1
 1189 0054 35D0     		beq	.L104
 1190              	.LVL72:
 1191              	.L101:
1305:Drivers/STM32F4xx_HAL_Driver/Src/stm32f4xx_hal_can.c ****       {
1306:Drivers/STM32F4xx_HAL_Driver/Src/stm32f4xx_hal_can.c ****         SET_BIT(hcan->Instance->sTxMailBox[transmitmailbox].TDTR, CAN_TDT0R_TGT);
1307:Drivers/STM32F4xx_HAL_Driver/Src/stm32f4xx_hal_can.c ****       }
1308:Drivers/STM32F4xx_HAL_Driver/Src/stm32f4xx_hal_can.c **** 
1309:Drivers/STM32F4xx_HAL_Driver/Src/stm32f4xx_hal_can.c ****       /* Set up the data field */
1310:Drivers/STM32F4xx_HAL_Driver/Src/stm32f4xx_hal_can.c ****       WRITE_REG(hcan->Instance->sTxMailBox[transmitmailbox].TDHR,
 1192              		.loc 1 1310 7 is_stmt 1 view .LVU382
 1193 0056 D179     		ldrb	r1, [r2, #7]	@ zero_extendqisi2
 1194 0058 9379     		ldrb	r3, [r2, #6]	@ zero_extendqisi2
 1195 005a 1B04     		lsls	r3, r3, #16
 1196 005c 43EA0163 		orr	r3, r3, r1, lsl #24
 1197 0060 5179     		ldrb	r1, [r2, #5]	@ zero_extendqisi2
 1198 0062 43EA0123 		orr	r3, r3, r1, lsl #8
 1199 0066 1479     		ldrb	r4, [r2, #4]	@ zero_extendqisi2
 1200 0068 0168     		ldr	r1, [r0]
 1201 006a 2343     		orrs	r3, r3, r4
ARM GAS  /tmp/cc6hBWA9.s 			page 49


 1202 006c 01EB0C11 		add	r1, r1, ip, lsl #4
 1203 0070 C1F88C31 		str	r3, [r1, #396]
1311:Drivers/STM32F4xx_HAL_Driver/Src/stm32f4xx_hal_can.c ****                 ((uint32_t)aData[7] << CAN_TDH0R_DATA7_Pos) |
1312:Drivers/STM32F4xx_HAL_Driver/Src/stm32f4xx_hal_can.c ****                 ((uint32_t)aData[6] << CAN_TDH0R_DATA6_Pos) |
1313:Drivers/STM32F4xx_HAL_Driver/Src/stm32f4xx_hal_can.c ****                 ((uint32_t)aData[5] << CAN_TDH0R_DATA5_Pos) |
1314:Drivers/STM32F4xx_HAL_Driver/Src/stm32f4xx_hal_can.c ****                 ((uint32_t)aData[4] << CAN_TDH0R_DATA4_Pos));
1315:Drivers/STM32F4xx_HAL_Driver/Src/stm32f4xx_hal_can.c ****       WRITE_REG(hcan->Instance->sTxMailBox[transmitmailbox].TDLR,
 1204              		.loc 1 1315 7 view .LVU383
 1205 0074 D178     		ldrb	r1, [r2, #3]	@ zero_extendqisi2
 1206 0076 9378     		ldrb	r3, [r2, #2]	@ zero_extendqisi2
 1207 0078 1B04     		lsls	r3, r3, #16
 1208 007a 43EA0163 		orr	r3, r3, r1, lsl #24
 1209 007e 5178     		ldrb	r1, [r2, #1]	@ zero_extendqisi2
 1210 0080 43EA0123 		orr	r3, r3, r1, lsl #8
 1211 0084 1178     		ldrb	r1, [r2]	@ zero_extendqisi2
 1212 0086 0268     		ldr	r2, [r0]
 1213              	.LVL73:
 1214              		.loc 1 1315 7 is_stmt 0 view .LVU384
 1215 0088 0B43     		orrs	r3, r3, r1
 1216 008a 02EB0C12 		add	r2, r2, ip, lsl #4
 1217 008e C2F88831 		str	r3, [r2, #392]
1316:Drivers/STM32F4xx_HAL_Driver/Src/stm32f4xx_hal_can.c ****                 ((uint32_t)aData[3] << CAN_TDL0R_DATA3_Pos) |
1317:Drivers/STM32F4xx_HAL_Driver/Src/stm32f4xx_hal_can.c ****                 ((uint32_t)aData[2] << CAN_TDL0R_DATA2_Pos) |
1318:Drivers/STM32F4xx_HAL_Driver/Src/stm32f4xx_hal_can.c ****                 ((uint32_t)aData[1] << CAN_TDL0R_DATA1_Pos) |
1319:Drivers/STM32F4xx_HAL_Driver/Src/stm32f4xx_hal_can.c ****                 ((uint32_t)aData[0] << CAN_TDL0R_DATA0_Pos));
1320:Drivers/STM32F4xx_HAL_Driver/Src/stm32f4xx_hal_can.c **** 
1321:Drivers/STM32F4xx_HAL_Driver/Src/stm32f4xx_hal_can.c ****       /* Request transmission */
1322:Drivers/STM32F4xx_HAL_Driver/Src/stm32f4xx_hal_can.c ****       SET_BIT(hcan->Instance->sTxMailBox[transmitmailbox].TIR, CAN_TI0R_TXRQ);
 1218              		.loc 1 1322 7 is_stmt 1 view .LVU385
 1219 0092 0268     		ldr	r2, [r0]
 1220 0094 0CF1180C 		add	ip, ip, #24
 1221              	.LVL74:
 1222              		.loc 1 1322 7 is_stmt 0 view .LVU386
 1223 0098 4FEA0C1C 		lsl	ip, ip, #4
 1224 009c 52F80C30 		ldr	r3, [r2, ip]
 1225 00a0 43F00103 		orr	r3, r3, #1
 1226 00a4 42F80C30 		str	r3, [r2, ip]
1323:Drivers/STM32F4xx_HAL_Driver/Src/stm32f4xx_hal_can.c **** 
1324:Drivers/STM32F4xx_HAL_Driver/Src/stm32f4xx_hal_can.c ****       /* Return function status */
1325:Drivers/STM32F4xx_HAL_Driver/Src/stm32f4xx_hal_can.c ****       return HAL_OK;
 1227              		.loc 1 1325 7 is_stmt 1 view .LVU387
 1228              		.loc 1 1325 14 is_stmt 0 view .LVU388
 1229 00a8 0020     		movs	r0, #0
 1230              	.LVL75:
 1231              		.loc 1 1325 14 view .LVU389
 1232 00aa 1DE0     		b	.L102
 1233              	.LVL76:
 1234              	.L99:
1295:Drivers/STM32F4xx_HAL_Driver/Src/stm32f4xx_hal_can.c ****                                                            pHeader->IDE |
 1235              		.loc 1 1295 9 is_stmt 1 view .LVU390
1295:Drivers/STM32F4xx_HAL_Driver/Src/stm32f4xx_hal_can.c ****                                                            pHeader->IDE |
 1236              		.loc 1 1295 68 is_stmt 0 view .LVU391
 1237 00ac 4C68     		ldr	r4, [r1, #4]
1295:Drivers/STM32F4xx_HAL_Driver/Src/stm32f4xx_hal_can.c ****                                                            pHeader->IDE |
 1238              		.loc 1 1295 98 view .LVU392
 1239 00ae 43EAC403 		orr	r3, r3, r4, lsl #3
1297:Drivers/STM32F4xx_HAL_Driver/Src/stm32f4xx_hal_can.c ****       }
ARM GAS  /tmp/cc6hBWA9.s 			page 50


 1240              		.loc 1 1297 67 view .LVU393
 1241 00b2 CC68     		ldr	r4, [r1, #12]
1296:Drivers/STM32F4xx_HAL_Driver/Src/stm32f4xx_hal_can.c ****                                                            pHeader->RTR);
 1242              		.loc 1 1296 73 view .LVU394
 1243 00b4 2343     		orrs	r3, r3, r4
1295:Drivers/STM32F4xx_HAL_Driver/Src/stm32f4xx_hal_can.c ****                                                            pHeader->IDE |
 1244              		.loc 1 1295 57 view .LVU395
 1245 00b6 0CF11804 		add	r4, ip, #24
 1246 00ba 2401     		lsls	r4, r4, #4
 1247 00bc 0568     		ldr	r5, [r0]
 1248 00be 2B51     		str	r3, [r5, r4]
 1249 00c0 BFE7     		b	.L100
 1250              	.L104:
1306:Drivers/STM32F4xx_HAL_Driver/Src/stm32f4xx_hal_can.c ****       }
 1251              		.loc 1 1306 9 is_stmt 1 view .LVU396
 1252 00c2 0368     		ldr	r3, [r0]
 1253 00c4 03EB0E13 		add	r3, r3, lr, lsl #4
 1254 00c8 5968     		ldr	r1, [r3, #4]
 1255              	.LVL77:
1306:Drivers/STM32F4xx_HAL_Driver/Src/stm32f4xx_hal_can.c ****       }
 1256              		.loc 1 1306 9 is_stmt 0 view .LVU397
 1257 00ca 41F48071 		orr	r1, r1, #256
 1258 00ce 5960     		str	r1, [r3, #4]
 1259 00d0 C1E7     		b	.L101
 1260              	.LVL78:
 1261              	.L98:
1326:Drivers/STM32F4xx_HAL_Driver/Src/stm32f4xx_hal_can.c ****     }
1327:Drivers/STM32F4xx_HAL_Driver/Src/stm32f4xx_hal_can.c ****     else
1328:Drivers/STM32F4xx_HAL_Driver/Src/stm32f4xx_hal_can.c ****     {
1329:Drivers/STM32F4xx_HAL_Driver/Src/stm32f4xx_hal_can.c ****       /* Update error code */
1330:Drivers/STM32F4xx_HAL_Driver/Src/stm32f4xx_hal_can.c ****       hcan->ErrorCode |= HAL_CAN_ERROR_PARAM;
 1262              		.loc 1 1330 7 is_stmt 1 view .LVU398
 1263              		.loc 1 1330 23 is_stmt 0 view .LVU399
 1264 00d2 436A     		ldr	r3, [r0, #36]
 1265              	.LVL79:
 1266              		.loc 1 1330 23 view .LVU400
 1267 00d4 43F40013 		orr	r3, r3, #2097152
 1268 00d8 4362     		str	r3, [r0, #36]
1331:Drivers/STM32F4xx_HAL_Driver/Src/stm32f4xx_hal_can.c **** 
1332:Drivers/STM32F4xx_HAL_Driver/Src/stm32f4xx_hal_can.c ****       return HAL_ERROR;
 1269              		.loc 1 1332 7 is_stmt 1 view .LVU401
 1270              		.loc 1 1332 14 is_stmt 0 view .LVU402
 1271 00da 0120     		movs	r0, #1
 1272              	.LVL80:
 1273              		.loc 1 1332 14 view .LVU403
 1274 00dc 04E0     		b	.L102
 1275              	.LVL81:
 1276              	.L97:
1333:Drivers/STM32F4xx_HAL_Driver/Src/stm32f4xx_hal_can.c ****     }
1334:Drivers/STM32F4xx_HAL_Driver/Src/stm32f4xx_hal_can.c ****   }
1335:Drivers/STM32F4xx_HAL_Driver/Src/stm32f4xx_hal_can.c ****   else
1336:Drivers/STM32F4xx_HAL_Driver/Src/stm32f4xx_hal_can.c ****   {
1337:Drivers/STM32F4xx_HAL_Driver/Src/stm32f4xx_hal_can.c ****     /* Update error code */
1338:Drivers/STM32F4xx_HAL_Driver/Src/stm32f4xx_hal_can.c ****     hcan->ErrorCode |= HAL_CAN_ERROR_NOT_INITIALIZED;
 1277              		.loc 1 1338 5 is_stmt 1 view .LVU404
 1278              		.loc 1 1338 21 is_stmt 0 view .LVU405
 1279 00de 436A     		ldr	r3, [r0, #36]
ARM GAS  /tmp/cc6hBWA9.s 			page 51


 1280              	.LVL82:
 1281              		.loc 1 1338 21 view .LVU406
 1282 00e0 43F48023 		orr	r3, r3, #262144
 1283 00e4 4362     		str	r3, [r0, #36]
1339:Drivers/STM32F4xx_HAL_Driver/Src/stm32f4xx_hal_can.c **** 
1340:Drivers/STM32F4xx_HAL_Driver/Src/stm32f4xx_hal_can.c ****     return HAL_ERROR;
 1284              		.loc 1 1340 5 is_stmt 1 view .LVU407
 1285              		.loc 1 1340 12 is_stmt 0 view .LVU408
 1286 00e6 0120     		movs	r0, #1
 1287              	.LVL83:
 1288              	.L102:
1341:Drivers/STM32F4xx_HAL_Driver/Src/stm32f4xx_hal_can.c ****   }
1342:Drivers/STM32F4xx_HAL_Driver/Src/stm32f4xx_hal_can.c **** }
 1289              		.loc 1 1342 1 view .LVU409
 1290 00e8 30BD     		pop	{r4, r5, pc}
 1291              		.cfi_endproc
 1292              	.LFE144:
 1294              		.section	.text.HAL_CAN_AbortTxRequest,"ax",%progbits
 1295              		.align	1
 1296              		.global	HAL_CAN_AbortTxRequest
 1297              		.syntax unified
 1298              		.thumb
 1299              		.thumb_func
 1300              		.fpu fpv4-sp-d16
 1302              	HAL_CAN_AbortTxRequest:
 1303              	.LVL84:
 1304              	.LFB145:
1343:Drivers/STM32F4xx_HAL_Driver/Src/stm32f4xx_hal_can.c **** 
1344:Drivers/STM32F4xx_HAL_Driver/Src/stm32f4xx_hal_can.c **** /**
1345:Drivers/STM32F4xx_HAL_Driver/Src/stm32f4xx_hal_can.c ****   * @brief  Abort transmission requests
1346:Drivers/STM32F4xx_HAL_Driver/Src/stm32f4xx_hal_can.c ****   * @param  hcan pointer to an CAN_HandleTypeDef structure that contains
1347:Drivers/STM32F4xx_HAL_Driver/Src/stm32f4xx_hal_can.c ****   *         the configuration information for the specified CAN.
1348:Drivers/STM32F4xx_HAL_Driver/Src/stm32f4xx_hal_can.c ****   * @param  TxMailboxes List of the Tx Mailboxes to abort.
1349:Drivers/STM32F4xx_HAL_Driver/Src/stm32f4xx_hal_can.c ****   *         This parameter can be any combination of @arg CAN_Tx_Mailboxes.
1350:Drivers/STM32F4xx_HAL_Driver/Src/stm32f4xx_hal_can.c ****   * @retval HAL status
1351:Drivers/STM32F4xx_HAL_Driver/Src/stm32f4xx_hal_can.c ****   */
1352:Drivers/STM32F4xx_HAL_Driver/Src/stm32f4xx_hal_can.c **** HAL_StatusTypeDef HAL_CAN_AbortTxRequest(CAN_HandleTypeDef *hcan, uint32_t TxMailboxes)
1353:Drivers/STM32F4xx_HAL_Driver/Src/stm32f4xx_hal_can.c **** {
 1305              		.loc 1 1353 1 is_stmt 1 view -0
 1306              		.cfi_startproc
 1307              		@ args = 0, pretend = 0, frame = 0
 1308              		@ frame_needed = 0, uses_anonymous_args = 0
 1309              		@ link register save eliminated.
1354:Drivers/STM32F4xx_HAL_Driver/Src/stm32f4xx_hal_can.c ****   HAL_CAN_StateTypeDef state = hcan->State;
 1310              		.loc 1 1354 3 view .LVU411
 1311              		.loc 1 1354 24 is_stmt 0 view .LVU412
 1312 0000 90F82030 		ldrb	r3, [r0, #32]	@ zero_extendqisi2
 1313              	.LVL85:
1355:Drivers/STM32F4xx_HAL_Driver/Src/stm32f4xx_hal_can.c **** 
1356:Drivers/STM32F4xx_HAL_Driver/Src/stm32f4xx_hal_can.c ****   /* Check function parameters */
1357:Drivers/STM32F4xx_HAL_Driver/Src/stm32f4xx_hal_can.c ****   assert_param(IS_CAN_TX_MAILBOX_LIST(TxMailboxes));
 1314              		.loc 1 1357 3 is_stmt 1 view .LVU413
1358:Drivers/STM32F4xx_HAL_Driver/Src/stm32f4xx_hal_can.c **** 
1359:Drivers/STM32F4xx_HAL_Driver/Src/stm32f4xx_hal_can.c ****   if ((state == HAL_CAN_STATE_READY) ||
 1315              		.loc 1 1359 3 view .LVU414
 1316              		.loc 1 1359 38 is_stmt 0 view .LVU415
 1317 0004 013B     		subs	r3, r3, #1
ARM GAS  /tmp/cc6hBWA9.s 			page 52


 1318              	.LVL86:
 1319              		.loc 1 1359 38 view .LVU416
 1320 0006 DBB2     		uxtb	r3, r3
 1321              		.loc 1 1359 6 view .LVU417
 1322 0008 012B     		cmp	r3, #1
 1323 000a 05D9     		bls	.L111
1360:Drivers/STM32F4xx_HAL_Driver/Src/stm32f4xx_hal_can.c ****       (state == HAL_CAN_STATE_LISTENING))
1361:Drivers/STM32F4xx_HAL_Driver/Src/stm32f4xx_hal_can.c ****   {
1362:Drivers/STM32F4xx_HAL_Driver/Src/stm32f4xx_hal_can.c ****     /* Check Tx Mailbox 0 */
1363:Drivers/STM32F4xx_HAL_Driver/Src/stm32f4xx_hal_can.c ****     if ((TxMailboxes & CAN_TX_MAILBOX0) != 0U)
1364:Drivers/STM32F4xx_HAL_Driver/Src/stm32f4xx_hal_can.c ****     {
1365:Drivers/STM32F4xx_HAL_Driver/Src/stm32f4xx_hal_can.c ****       /* Add cancellation request for Tx Mailbox 0 */
1366:Drivers/STM32F4xx_HAL_Driver/Src/stm32f4xx_hal_can.c ****       SET_BIT(hcan->Instance->TSR, CAN_TSR_ABRQ0);
1367:Drivers/STM32F4xx_HAL_Driver/Src/stm32f4xx_hal_can.c ****     }
1368:Drivers/STM32F4xx_HAL_Driver/Src/stm32f4xx_hal_can.c **** 
1369:Drivers/STM32F4xx_HAL_Driver/Src/stm32f4xx_hal_can.c ****     /* Check Tx Mailbox 1 */
1370:Drivers/STM32F4xx_HAL_Driver/Src/stm32f4xx_hal_can.c ****     if ((TxMailboxes & CAN_TX_MAILBOX1) != 0U)
1371:Drivers/STM32F4xx_HAL_Driver/Src/stm32f4xx_hal_can.c ****     {
1372:Drivers/STM32F4xx_HAL_Driver/Src/stm32f4xx_hal_can.c ****       /* Add cancellation request for Tx Mailbox 1 */
1373:Drivers/STM32F4xx_HAL_Driver/Src/stm32f4xx_hal_can.c ****       SET_BIT(hcan->Instance->TSR, CAN_TSR_ABRQ1);
1374:Drivers/STM32F4xx_HAL_Driver/Src/stm32f4xx_hal_can.c ****     }
1375:Drivers/STM32F4xx_HAL_Driver/Src/stm32f4xx_hal_can.c **** 
1376:Drivers/STM32F4xx_HAL_Driver/Src/stm32f4xx_hal_can.c ****     /* Check Tx Mailbox 2 */
1377:Drivers/STM32F4xx_HAL_Driver/Src/stm32f4xx_hal_can.c ****     if ((TxMailboxes & CAN_TX_MAILBOX2) != 0U)
1378:Drivers/STM32F4xx_HAL_Driver/Src/stm32f4xx_hal_can.c ****     {
1379:Drivers/STM32F4xx_HAL_Driver/Src/stm32f4xx_hal_can.c ****       /* Add cancellation request for Tx Mailbox 2 */
1380:Drivers/STM32F4xx_HAL_Driver/Src/stm32f4xx_hal_can.c ****       SET_BIT(hcan->Instance->TSR, CAN_TSR_ABRQ2);
1381:Drivers/STM32F4xx_HAL_Driver/Src/stm32f4xx_hal_can.c ****     }
1382:Drivers/STM32F4xx_HAL_Driver/Src/stm32f4xx_hal_can.c **** 
1383:Drivers/STM32F4xx_HAL_Driver/Src/stm32f4xx_hal_can.c ****     /* Return function status */
1384:Drivers/STM32F4xx_HAL_Driver/Src/stm32f4xx_hal_can.c ****     return HAL_OK;
1385:Drivers/STM32F4xx_HAL_Driver/Src/stm32f4xx_hal_can.c ****   }
1386:Drivers/STM32F4xx_HAL_Driver/Src/stm32f4xx_hal_can.c ****   else
1387:Drivers/STM32F4xx_HAL_Driver/Src/stm32f4xx_hal_can.c ****   {
1388:Drivers/STM32F4xx_HAL_Driver/Src/stm32f4xx_hal_can.c ****     /* Update error code */
1389:Drivers/STM32F4xx_HAL_Driver/Src/stm32f4xx_hal_can.c ****     hcan->ErrorCode |= HAL_CAN_ERROR_NOT_INITIALIZED;
 1324              		.loc 1 1389 5 is_stmt 1 view .LVU418
 1325              		.loc 1 1389 21 is_stmt 0 view .LVU419
 1326 000c 436A     		ldr	r3, [r0, #36]
 1327 000e 43F48023 		orr	r3, r3, #262144
 1328 0012 4362     		str	r3, [r0, #36]
1390:Drivers/STM32F4xx_HAL_Driver/Src/stm32f4xx_hal_can.c **** 
1391:Drivers/STM32F4xx_HAL_Driver/Src/stm32f4xx_hal_can.c ****     return HAL_ERROR;
 1329              		.loc 1 1391 5 is_stmt 1 view .LVU420
 1330              		.loc 1 1391 12 is_stmt 0 view .LVU421
 1331 0014 0120     		movs	r0, #1
 1332              	.LVL87:
1392:Drivers/STM32F4xx_HAL_Driver/Src/stm32f4xx_hal_can.c ****   }
1393:Drivers/STM32F4xx_HAL_Driver/Src/stm32f4xx_hal_can.c **** }
 1333              		.loc 1 1393 1 view .LVU422
 1334 0016 7047     		bx	lr
 1335              	.LVL88:
 1336              	.L111:
1363:Drivers/STM32F4xx_HAL_Driver/Src/stm32f4xx_hal_can.c ****     {
 1337              		.loc 1 1363 5 is_stmt 1 view .LVU423
1363:Drivers/STM32F4xx_HAL_Driver/Src/stm32f4xx_hal_can.c ****     {
 1338              		.loc 1 1363 8 is_stmt 0 view .LVU424
ARM GAS  /tmp/cc6hBWA9.s 			page 53


 1339 0018 11F0010F 		tst	r1, #1
 1340 001c 04D0     		beq	.L107
1366:Drivers/STM32F4xx_HAL_Driver/Src/stm32f4xx_hal_can.c ****     }
 1341              		.loc 1 1366 7 is_stmt 1 view .LVU425
 1342 001e 0268     		ldr	r2, [r0]
 1343 0020 9368     		ldr	r3, [r2, #8]
 1344 0022 43F08003 		orr	r3, r3, #128
 1345 0026 9360     		str	r3, [r2, #8]
 1346              	.L107:
1370:Drivers/STM32F4xx_HAL_Driver/Src/stm32f4xx_hal_can.c ****     {
 1347              		.loc 1 1370 5 view .LVU426
1370:Drivers/STM32F4xx_HAL_Driver/Src/stm32f4xx_hal_can.c ****     {
 1348              		.loc 1 1370 8 is_stmt 0 view .LVU427
 1349 0028 11F0020F 		tst	r1, #2
 1350 002c 04D0     		beq	.L108
1373:Drivers/STM32F4xx_HAL_Driver/Src/stm32f4xx_hal_can.c ****     }
 1351              		.loc 1 1373 7 is_stmt 1 view .LVU428
 1352 002e 0268     		ldr	r2, [r0]
 1353 0030 9368     		ldr	r3, [r2, #8]
 1354 0032 43F40043 		orr	r3, r3, #32768
 1355 0036 9360     		str	r3, [r2, #8]
 1356              	.L108:
1377:Drivers/STM32F4xx_HAL_Driver/Src/stm32f4xx_hal_can.c ****     {
 1357              		.loc 1 1377 5 view .LVU429
1377:Drivers/STM32F4xx_HAL_Driver/Src/stm32f4xx_hal_can.c ****     {
 1358              		.loc 1 1377 8 is_stmt 0 view .LVU430
 1359 0038 11F0040F 		tst	r1, #4
 1360 003c 04D0     		beq	.L109
1380:Drivers/STM32F4xx_HAL_Driver/Src/stm32f4xx_hal_can.c ****     }
 1361              		.loc 1 1380 7 is_stmt 1 view .LVU431
 1362 003e 0268     		ldr	r2, [r0]
 1363 0040 9368     		ldr	r3, [r2, #8]
 1364 0042 43F40003 		orr	r3, r3, #8388608
 1365 0046 9360     		str	r3, [r2, #8]
 1366              	.L109:
1384:Drivers/STM32F4xx_HAL_Driver/Src/stm32f4xx_hal_can.c ****   }
 1367              		.loc 1 1384 5 view .LVU432
1384:Drivers/STM32F4xx_HAL_Driver/Src/stm32f4xx_hal_can.c ****   }
 1368              		.loc 1 1384 12 is_stmt 0 view .LVU433
 1369 0048 0020     		movs	r0, #0
 1370              	.LVL89:
1384:Drivers/STM32F4xx_HAL_Driver/Src/stm32f4xx_hal_can.c ****   }
 1371              		.loc 1 1384 12 view .LVU434
 1372 004a 7047     		bx	lr
 1373              		.cfi_endproc
 1374              	.LFE145:
 1376              		.section	.text.HAL_CAN_GetTxMailboxesFreeLevel,"ax",%progbits
 1377              		.align	1
 1378              		.global	HAL_CAN_GetTxMailboxesFreeLevel
 1379              		.syntax unified
 1380              		.thumb
 1381              		.thumb_func
 1382              		.fpu fpv4-sp-d16
 1384              	HAL_CAN_GetTxMailboxesFreeLevel:
 1385              	.LVL90:
 1386              	.LFB146:
1394:Drivers/STM32F4xx_HAL_Driver/Src/stm32f4xx_hal_can.c **** 
ARM GAS  /tmp/cc6hBWA9.s 			page 54


1395:Drivers/STM32F4xx_HAL_Driver/Src/stm32f4xx_hal_can.c **** /**
1396:Drivers/STM32F4xx_HAL_Driver/Src/stm32f4xx_hal_can.c ****   * @brief  Return Tx Mailboxes free level: number of free Tx Mailboxes.
1397:Drivers/STM32F4xx_HAL_Driver/Src/stm32f4xx_hal_can.c ****   * @param  hcan pointer to a CAN_HandleTypeDef structure that contains
1398:Drivers/STM32F4xx_HAL_Driver/Src/stm32f4xx_hal_can.c ****   *         the configuration information for the specified CAN.
1399:Drivers/STM32F4xx_HAL_Driver/Src/stm32f4xx_hal_can.c ****   * @retval Number of free Tx Mailboxes.
1400:Drivers/STM32F4xx_HAL_Driver/Src/stm32f4xx_hal_can.c ****   */
1401:Drivers/STM32F4xx_HAL_Driver/Src/stm32f4xx_hal_can.c **** uint32_t HAL_CAN_GetTxMailboxesFreeLevel(const CAN_HandleTypeDef *hcan)
1402:Drivers/STM32F4xx_HAL_Driver/Src/stm32f4xx_hal_can.c **** {
 1387              		.loc 1 1402 1 is_stmt 1 view -0
 1388              		.cfi_startproc
 1389              		@ args = 0, pretend = 0, frame = 0
 1390              		@ frame_needed = 0, uses_anonymous_args = 0
 1391              		@ link register save eliminated.
1403:Drivers/STM32F4xx_HAL_Driver/Src/stm32f4xx_hal_can.c ****   uint32_t freelevel = 0U;
 1392              		.loc 1 1403 3 view .LVU436
1404:Drivers/STM32F4xx_HAL_Driver/Src/stm32f4xx_hal_can.c ****   HAL_CAN_StateTypeDef state = hcan->State;
 1393              		.loc 1 1404 3 view .LVU437
 1394              		.loc 1 1404 24 is_stmt 0 view .LVU438
 1395 0000 90F82030 		ldrb	r3, [r0, #32]	@ zero_extendqisi2
 1396              	.LVL91:
1405:Drivers/STM32F4xx_HAL_Driver/Src/stm32f4xx_hal_can.c **** 
1406:Drivers/STM32F4xx_HAL_Driver/Src/stm32f4xx_hal_can.c ****   if ((state == HAL_CAN_STATE_READY) ||
 1397              		.loc 1 1406 3 is_stmt 1 view .LVU439
 1398              		.loc 1 1406 38 is_stmt 0 view .LVU440
 1399 0004 013B     		subs	r3, r3, #1
 1400              	.LVL92:
 1401              		.loc 1 1406 38 view .LVU441
 1402 0006 DBB2     		uxtb	r3, r3
 1403              		.loc 1 1406 6 view .LVU442
 1404 0008 012B     		cmp	r3, #1
 1405 000a 01D9     		bls	.L118
1403:Drivers/STM32F4xx_HAL_Driver/Src/stm32f4xx_hal_can.c ****   HAL_CAN_StateTypeDef state = hcan->State;
 1406              		.loc 1 1403 12 view .LVU443
 1407 000c 0020     		movs	r0, #0
 1408              	.LVL93:
1407:Drivers/STM32F4xx_HAL_Driver/Src/stm32f4xx_hal_can.c ****       (state == HAL_CAN_STATE_LISTENING))
1408:Drivers/STM32F4xx_HAL_Driver/Src/stm32f4xx_hal_can.c ****   {
1409:Drivers/STM32F4xx_HAL_Driver/Src/stm32f4xx_hal_can.c ****     /* Check Tx Mailbox 0 status */
1410:Drivers/STM32F4xx_HAL_Driver/Src/stm32f4xx_hal_can.c ****     if ((hcan->Instance->TSR & CAN_TSR_TME0) != 0U)
1411:Drivers/STM32F4xx_HAL_Driver/Src/stm32f4xx_hal_can.c ****     {
1412:Drivers/STM32F4xx_HAL_Driver/Src/stm32f4xx_hal_can.c ****       freelevel++;
1413:Drivers/STM32F4xx_HAL_Driver/Src/stm32f4xx_hal_can.c ****     }
1414:Drivers/STM32F4xx_HAL_Driver/Src/stm32f4xx_hal_can.c **** 
1415:Drivers/STM32F4xx_HAL_Driver/Src/stm32f4xx_hal_can.c ****     /* Check Tx Mailbox 1 status */
1416:Drivers/STM32F4xx_HAL_Driver/Src/stm32f4xx_hal_can.c ****     if ((hcan->Instance->TSR & CAN_TSR_TME1) != 0U)
1417:Drivers/STM32F4xx_HAL_Driver/Src/stm32f4xx_hal_can.c ****     {
1418:Drivers/STM32F4xx_HAL_Driver/Src/stm32f4xx_hal_can.c ****       freelevel++;
1419:Drivers/STM32F4xx_HAL_Driver/Src/stm32f4xx_hal_can.c ****     }
1420:Drivers/STM32F4xx_HAL_Driver/Src/stm32f4xx_hal_can.c **** 
1421:Drivers/STM32F4xx_HAL_Driver/Src/stm32f4xx_hal_can.c ****     /* Check Tx Mailbox 2 status */
1422:Drivers/STM32F4xx_HAL_Driver/Src/stm32f4xx_hal_can.c ****     if ((hcan->Instance->TSR & CAN_TSR_TME2) != 0U)
1423:Drivers/STM32F4xx_HAL_Driver/Src/stm32f4xx_hal_can.c ****     {
1424:Drivers/STM32F4xx_HAL_Driver/Src/stm32f4xx_hal_can.c ****       freelevel++;
1425:Drivers/STM32F4xx_HAL_Driver/Src/stm32f4xx_hal_can.c ****     }
1426:Drivers/STM32F4xx_HAL_Driver/Src/stm32f4xx_hal_can.c ****   }
1427:Drivers/STM32F4xx_HAL_Driver/Src/stm32f4xx_hal_can.c **** 
1428:Drivers/STM32F4xx_HAL_Driver/Src/stm32f4xx_hal_can.c ****   /* Return Tx Mailboxes free level */
ARM GAS  /tmp/cc6hBWA9.s 			page 55


1429:Drivers/STM32F4xx_HAL_Driver/Src/stm32f4xx_hal_can.c ****   return freelevel;
 1409              		.loc 1 1429 3 is_stmt 1 view .LVU444
 1410              	.L112:
1430:Drivers/STM32F4xx_HAL_Driver/Src/stm32f4xx_hal_can.c **** }
 1411              		.loc 1 1430 1 is_stmt 0 view .LVU445
 1412 000e 7047     		bx	lr
 1413              	.LVL94:
 1414              	.L118:
1410:Drivers/STM32F4xx_HAL_Driver/Src/stm32f4xx_hal_can.c ****     {
 1415              		.loc 1 1410 5 is_stmt 1 view .LVU446
1410:Drivers/STM32F4xx_HAL_Driver/Src/stm32f4xx_hal_can.c ****     {
 1416              		.loc 1 1410 14 is_stmt 0 view .LVU447
 1417 0010 0368     		ldr	r3, [r0]
1410:Drivers/STM32F4xx_HAL_Driver/Src/stm32f4xx_hal_can.c ****     {
 1418              		.loc 1 1410 24 view .LVU448
 1419 0012 9868     		ldr	r0, [r3, #8]
 1420              	.LVL95:
1410:Drivers/STM32F4xx_HAL_Driver/Src/stm32f4xx_hal_can.c ****     {
 1421              		.loc 1 1410 8 view .LVU449
 1422 0014 10F08060 		ands	r0, r0, #67108864
 1423 0018 00D0     		beq	.L114
1412:Drivers/STM32F4xx_HAL_Driver/Src/stm32f4xx_hal_can.c ****     }
 1424              		.loc 1 1412 16 view .LVU450
 1425 001a 0120     		movs	r0, #1
 1426              	.L114:
 1427              	.LVL96:
1416:Drivers/STM32F4xx_HAL_Driver/Src/stm32f4xx_hal_can.c ****     {
 1428              		.loc 1 1416 5 is_stmt 1 view .LVU451
1416:Drivers/STM32F4xx_HAL_Driver/Src/stm32f4xx_hal_can.c ****     {
 1429              		.loc 1 1416 24 is_stmt 0 view .LVU452
 1430 001c 9A68     		ldr	r2, [r3, #8]
1416:Drivers/STM32F4xx_HAL_Driver/Src/stm32f4xx_hal_can.c ****     {
 1431              		.loc 1 1416 8 view .LVU453
 1432 001e 12F0006F 		tst	r2, #134217728
 1433 0022 00D0     		beq	.L115
1418:Drivers/STM32F4xx_HAL_Driver/Src/stm32f4xx_hal_can.c ****     }
 1434              		.loc 1 1418 7 is_stmt 1 view .LVU454
1418:Drivers/STM32F4xx_HAL_Driver/Src/stm32f4xx_hal_can.c ****     }
 1435              		.loc 1 1418 16 is_stmt 0 view .LVU455
 1436 0024 0130     		adds	r0, r0, #1
 1437              	.LVL97:
 1438              	.L115:
1422:Drivers/STM32F4xx_HAL_Driver/Src/stm32f4xx_hal_can.c ****     {
 1439              		.loc 1 1422 5 is_stmt 1 view .LVU456
1422:Drivers/STM32F4xx_HAL_Driver/Src/stm32f4xx_hal_can.c ****     {
 1440              		.loc 1 1422 24 is_stmt 0 view .LVU457
 1441 0026 9B68     		ldr	r3, [r3, #8]
1422:Drivers/STM32F4xx_HAL_Driver/Src/stm32f4xx_hal_can.c ****     {
 1442              		.loc 1 1422 8 view .LVU458
 1443 0028 13F0805F 		tst	r3, #268435456
 1444 002c EFD0     		beq	.L112
1424:Drivers/STM32F4xx_HAL_Driver/Src/stm32f4xx_hal_can.c ****     }
 1445              		.loc 1 1424 7 is_stmt 1 view .LVU459
1424:Drivers/STM32F4xx_HAL_Driver/Src/stm32f4xx_hal_can.c ****     }
 1446              		.loc 1 1424 16 is_stmt 0 view .LVU460
 1447 002e 0130     		adds	r0, r0, #1
 1448              	.LVL98:
ARM GAS  /tmp/cc6hBWA9.s 			page 56


1424:Drivers/STM32F4xx_HAL_Driver/Src/stm32f4xx_hal_can.c ****     }
 1449              		.loc 1 1424 16 view .LVU461
 1450 0030 7047     		bx	lr
 1451              		.cfi_endproc
 1452              	.LFE146:
 1454              		.section	.text.HAL_CAN_IsTxMessagePending,"ax",%progbits
 1455              		.align	1
 1456              		.global	HAL_CAN_IsTxMessagePending
 1457              		.syntax unified
 1458              		.thumb
 1459              		.thumb_func
 1460              		.fpu fpv4-sp-d16
 1462              	HAL_CAN_IsTxMessagePending:
 1463              	.LVL99:
 1464              	.LFB147:
1431:Drivers/STM32F4xx_HAL_Driver/Src/stm32f4xx_hal_can.c **** 
1432:Drivers/STM32F4xx_HAL_Driver/Src/stm32f4xx_hal_can.c **** /**
1433:Drivers/STM32F4xx_HAL_Driver/Src/stm32f4xx_hal_can.c ****   * @brief  Check if a transmission request is pending on the selected Tx
1434:Drivers/STM32F4xx_HAL_Driver/Src/stm32f4xx_hal_can.c ****   *         Mailboxes.
1435:Drivers/STM32F4xx_HAL_Driver/Src/stm32f4xx_hal_can.c ****   * @param  hcan pointer to an CAN_HandleTypeDef structure that contains
1436:Drivers/STM32F4xx_HAL_Driver/Src/stm32f4xx_hal_can.c ****   *         the configuration information for the specified CAN.
1437:Drivers/STM32F4xx_HAL_Driver/Src/stm32f4xx_hal_can.c ****   * @param  TxMailboxes List of Tx Mailboxes to check.
1438:Drivers/STM32F4xx_HAL_Driver/Src/stm32f4xx_hal_can.c ****   *         This parameter can be any combination of @arg CAN_Tx_Mailboxes.
1439:Drivers/STM32F4xx_HAL_Driver/Src/stm32f4xx_hal_can.c ****   * @retval Status
1440:Drivers/STM32F4xx_HAL_Driver/Src/stm32f4xx_hal_can.c ****   *          - 0 : No pending transmission request on any selected Tx Mailboxes.
1441:Drivers/STM32F4xx_HAL_Driver/Src/stm32f4xx_hal_can.c ****   *          - 1 : Pending transmission request on at least one of the selected
1442:Drivers/STM32F4xx_HAL_Driver/Src/stm32f4xx_hal_can.c ****   *                Tx Mailbox.
1443:Drivers/STM32F4xx_HAL_Driver/Src/stm32f4xx_hal_can.c ****   */
1444:Drivers/STM32F4xx_HAL_Driver/Src/stm32f4xx_hal_can.c **** uint32_t HAL_CAN_IsTxMessagePending(const CAN_HandleTypeDef *hcan, uint32_t TxMailboxes)
1445:Drivers/STM32F4xx_HAL_Driver/Src/stm32f4xx_hal_can.c **** {
 1465              		.loc 1 1445 1 is_stmt 1 view -0
 1466              		.cfi_startproc
 1467              		@ args = 0, pretend = 0, frame = 0
 1468              		@ frame_needed = 0, uses_anonymous_args = 0
 1469              		@ link register save eliminated.
1446:Drivers/STM32F4xx_HAL_Driver/Src/stm32f4xx_hal_can.c ****   uint32_t status = 0U;
 1470              		.loc 1 1446 3 view .LVU463
1447:Drivers/STM32F4xx_HAL_Driver/Src/stm32f4xx_hal_can.c ****   HAL_CAN_StateTypeDef state = hcan->State;
 1471              		.loc 1 1447 3 view .LVU464
 1472              		.loc 1 1447 24 is_stmt 0 view .LVU465
 1473 0000 90F82030 		ldrb	r3, [r0, #32]	@ zero_extendqisi2
 1474              	.LVL100:
1448:Drivers/STM32F4xx_HAL_Driver/Src/stm32f4xx_hal_can.c **** 
1449:Drivers/STM32F4xx_HAL_Driver/Src/stm32f4xx_hal_can.c ****   /* Check function parameters */
1450:Drivers/STM32F4xx_HAL_Driver/Src/stm32f4xx_hal_can.c ****   assert_param(IS_CAN_TX_MAILBOX_LIST(TxMailboxes));
 1475              		.loc 1 1450 3 is_stmt 1 view .LVU466
1451:Drivers/STM32F4xx_HAL_Driver/Src/stm32f4xx_hal_can.c **** 
1452:Drivers/STM32F4xx_HAL_Driver/Src/stm32f4xx_hal_can.c ****   if ((state == HAL_CAN_STATE_READY) ||
 1476              		.loc 1 1452 3 view .LVU467
 1477              		.loc 1 1452 38 is_stmt 0 view .LVU468
 1478 0004 013B     		subs	r3, r3, #1
 1479              	.LVL101:
 1480              		.loc 1 1452 38 view .LVU469
 1481 0006 DBB2     		uxtb	r3, r3
 1482              		.loc 1 1452 6 view .LVU470
 1483 0008 012B     		cmp	r3, #1
 1484 000a 01D9     		bls	.L123
ARM GAS  /tmp/cc6hBWA9.s 			page 57


1446:Drivers/STM32F4xx_HAL_Driver/Src/stm32f4xx_hal_can.c ****   HAL_CAN_StateTypeDef state = hcan->State;
 1485              		.loc 1 1446 12 view .LVU471
 1486 000c 0020     		movs	r0, #0
 1487              	.LVL102:
1446:Drivers/STM32F4xx_HAL_Driver/Src/stm32f4xx_hal_can.c ****   HAL_CAN_StateTypeDef state = hcan->State;
 1488              		.loc 1 1446 12 view .LVU472
 1489 000e 7047     		bx	lr
 1490              	.LVL103:
 1491              	.L123:
1453:Drivers/STM32F4xx_HAL_Driver/Src/stm32f4xx_hal_can.c ****       (state == HAL_CAN_STATE_LISTENING))
1454:Drivers/STM32F4xx_HAL_Driver/Src/stm32f4xx_hal_can.c ****   {
1455:Drivers/STM32F4xx_HAL_Driver/Src/stm32f4xx_hal_can.c ****     /* Check pending transmission request on the selected Tx Mailboxes */
1456:Drivers/STM32F4xx_HAL_Driver/Src/stm32f4xx_hal_can.c ****     if ((hcan->Instance->TSR & (TxMailboxes << CAN_TSR_TME0_Pos)) != (TxMailboxes << CAN_TSR_TME0_P
 1492              		.loc 1 1456 5 is_stmt 1 view .LVU473
 1493              		.loc 1 1456 14 is_stmt 0 view .LVU474
 1494 0010 0368     		ldr	r3, [r0]
 1495              		.loc 1 1456 24 view .LVU475
 1496 0012 9B68     		ldr	r3, [r3, #8]
 1497              		.loc 1 1456 30 view .LVU476
 1498 0014 03EA8163 		and	r3, r3, r1, lsl #26
 1499              		.loc 1 1456 8 view .LVU477
 1500 0018 B3EB816F 		cmp	r3, r1, lsl #26
 1501 001c 01D0     		beq	.L124
1457:Drivers/STM32F4xx_HAL_Driver/Src/stm32f4xx_hal_can.c ****     {
1458:Drivers/STM32F4xx_HAL_Driver/Src/stm32f4xx_hal_can.c ****       status = 1U;
 1502              		.loc 1 1458 14 view .LVU478
 1503 001e 0120     		movs	r0, #1
 1504              	.LVL104:
1459:Drivers/STM32F4xx_HAL_Driver/Src/stm32f4xx_hal_can.c ****     }
1460:Drivers/STM32F4xx_HAL_Driver/Src/stm32f4xx_hal_can.c ****   }
1461:Drivers/STM32F4xx_HAL_Driver/Src/stm32f4xx_hal_can.c **** 
1462:Drivers/STM32F4xx_HAL_Driver/Src/stm32f4xx_hal_can.c ****   /* Return status */
1463:Drivers/STM32F4xx_HAL_Driver/Src/stm32f4xx_hal_can.c ****   return status;
 1505              		.loc 1 1463 3 is_stmt 1 view .LVU479
1464:Drivers/STM32F4xx_HAL_Driver/Src/stm32f4xx_hal_can.c **** }
 1506              		.loc 1 1464 1 is_stmt 0 view .LVU480
 1507 0020 7047     		bx	lr
 1508              	.LVL105:
 1509              	.L124:
1446:Drivers/STM32F4xx_HAL_Driver/Src/stm32f4xx_hal_can.c ****   HAL_CAN_StateTypeDef state = hcan->State;
 1510              		.loc 1 1446 12 view .LVU481
 1511 0022 0020     		movs	r0, #0
 1512              	.LVL106:
1446:Drivers/STM32F4xx_HAL_Driver/Src/stm32f4xx_hal_can.c ****   HAL_CAN_StateTypeDef state = hcan->State;
 1513              		.loc 1 1446 12 view .LVU482
 1514 0024 7047     		bx	lr
 1515              		.cfi_endproc
 1516              	.LFE147:
 1518              		.section	.text.HAL_CAN_GetTxTimestamp,"ax",%progbits
 1519              		.align	1
 1520              		.global	HAL_CAN_GetTxTimestamp
 1521              		.syntax unified
 1522              		.thumb
 1523              		.thumb_func
 1524              		.fpu fpv4-sp-d16
 1526              	HAL_CAN_GetTxTimestamp:
 1527              	.LVL107:
ARM GAS  /tmp/cc6hBWA9.s 			page 58


 1528              	.LFB148:
1465:Drivers/STM32F4xx_HAL_Driver/Src/stm32f4xx_hal_can.c **** 
1466:Drivers/STM32F4xx_HAL_Driver/Src/stm32f4xx_hal_can.c **** /**
1467:Drivers/STM32F4xx_HAL_Driver/Src/stm32f4xx_hal_can.c ****   * @brief  Return timestamp of Tx message sent, if time triggered communication
1468:Drivers/STM32F4xx_HAL_Driver/Src/stm32f4xx_hal_can.c ****             mode is enabled.
1469:Drivers/STM32F4xx_HAL_Driver/Src/stm32f4xx_hal_can.c ****   * @param  hcan pointer to a CAN_HandleTypeDef structure that contains
1470:Drivers/STM32F4xx_HAL_Driver/Src/stm32f4xx_hal_can.c ****   *         the configuration information for the specified CAN.
1471:Drivers/STM32F4xx_HAL_Driver/Src/stm32f4xx_hal_can.c ****   * @param  TxMailbox Tx Mailbox where the timestamp of message sent will be
1472:Drivers/STM32F4xx_HAL_Driver/Src/stm32f4xx_hal_can.c ****   *         read.
1473:Drivers/STM32F4xx_HAL_Driver/Src/stm32f4xx_hal_can.c ****   *         This parameter can be one value of @arg CAN_Tx_Mailboxes.
1474:Drivers/STM32F4xx_HAL_Driver/Src/stm32f4xx_hal_can.c ****   * @retval Timestamp of message sent from Tx Mailbox.
1475:Drivers/STM32F4xx_HAL_Driver/Src/stm32f4xx_hal_can.c ****   */
1476:Drivers/STM32F4xx_HAL_Driver/Src/stm32f4xx_hal_can.c **** uint32_t HAL_CAN_GetTxTimestamp(const CAN_HandleTypeDef *hcan, uint32_t TxMailbox)
1477:Drivers/STM32F4xx_HAL_Driver/Src/stm32f4xx_hal_can.c **** {
 1529              		.loc 1 1477 1 is_stmt 1 view -0
 1530              		.cfi_startproc
 1531              		@ args = 0, pretend = 0, frame = 0
 1532              		@ frame_needed = 0, uses_anonymous_args = 0
 1533              		@ link register save eliminated.
1478:Drivers/STM32F4xx_HAL_Driver/Src/stm32f4xx_hal_can.c ****   uint32_t timestamp = 0U;
 1534              		.loc 1 1478 3 view .LVU484
1479:Drivers/STM32F4xx_HAL_Driver/Src/stm32f4xx_hal_can.c ****   uint32_t transmitmailbox;
 1535              		.loc 1 1479 3 view .LVU485
1480:Drivers/STM32F4xx_HAL_Driver/Src/stm32f4xx_hal_can.c ****   HAL_CAN_StateTypeDef state = hcan->State;
 1536              		.loc 1 1480 3 view .LVU486
 1537              		.loc 1 1480 24 is_stmt 0 view .LVU487
 1538 0000 90F82030 		ldrb	r3, [r0, #32]	@ zero_extendqisi2
 1539              	.LVL108:
1481:Drivers/STM32F4xx_HAL_Driver/Src/stm32f4xx_hal_can.c **** 
1482:Drivers/STM32F4xx_HAL_Driver/Src/stm32f4xx_hal_can.c ****   /* Check function parameters */
1483:Drivers/STM32F4xx_HAL_Driver/Src/stm32f4xx_hal_can.c ****   assert_param(IS_CAN_TX_MAILBOX(TxMailbox));
 1540              		.loc 1 1483 3 is_stmt 1 view .LVU488
1484:Drivers/STM32F4xx_HAL_Driver/Src/stm32f4xx_hal_can.c **** 
1485:Drivers/STM32F4xx_HAL_Driver/Src/stm32f4xx_hal_can.c ****   if ((state == HAL_CAN_STATE_READY) ||
 1541              		.loc 1 1485 3 view .LVU489
 1542              		.loc 1 1485 38 is_stmt 0 view .LVU490
 1543 0004 013B     		subs	r3, r3, #1
 1544              	.LVL109:
 1545              		.loc 1 1485 38 view .LVU491
 1546 0006 DBB2     		uxtb	r3, r3
 1547              		.loc 1 1485 6 view .LVU492
 1548 0008 012B     		cmp	r3, #1
 1549 000a 01D9     		bls	.L130
1478:Drivers/STM32F4xx_HAL_Driver/Src/stm32f4xx_hal_can.c ****   uint32_t transmitmailbox;
 1550              		.loc 1 1478 12 view .LVU493
 1551 000c 0020     		movs	r0, #0
 1552              	.LVL110:
1486:Drivers/STM32F4xx_HAL_Driver/Src/stm32f4xx_hal_can.c ****       (state == HAL_CAN_STATE_LISTENING))
1487:Drivers/STM32F4xx_HAL_Driver/Src/stm32f4xx_hal_can.c ****   {
1488:Drivers/STM32F4xx_HAL_Driver/Src/stm32f4xx_hal_can.c ****     /* Select the Tx mailbox */
1489:Drivers/STM32F4xx_HAL_Driver/Src/stm32f4xx_hal_can.c ****     transmitmailbox = POSITION_VAL(TxMailbox);
1490:Drivers/STM32F4xx_HAL_Driver/Src/stm32f4xx_hal_can.c **** 
1491:Drivers/STM32F4xx_HAL_Driver/Src/stm32f4xx_hal_can.c ****     /* Get timestamp */
1492:Drivers/STM32F4xx_HAL_Driver/Src/stm32f4xx_hal_can.c ****     timestamp = (hcan->Instance->sTxMailBox[transmitmailbox].TDTR & CAN_TDT0R_TIME) >> CAN_TDT0R_TI
1493:Drivers/STM32F4xx_HAL_Driver/Src/stm32f4xx_hal_can.c ****   }
1494:Drivers/STM32F4xx_HAL_Driver/Src/stm32f4xx_hal_can.c **** 
1495:Drivers/STM32F4xx_HAL_Driver/Src/stm32f4xx_hal_can.c ****   /* Return the timestamp */
ARM GAS  /tmp/cc6hBWA9.s 			page 59


1496:Drivers/STM32F4xx_HAL_Driver/Src/stm32f4xx_hal_can.c ****   return timestamp;
 1553              		.loc 1 1496 3 is_stmt 1 view .LVU494
1497:Drivers/STM32F4xx_HAL_Driver/Src/stm32f4xx_hal_can.c **** }
 1554              		.loc 1 1497 1 is_stmt 0 view .LVU495
 1555 000e 7047     		bx	lr
 1556              	.LVL111:
 1557              	.L130:
1489:Drivers/STM32F4xx_HAL_Driver/Src/stm32f4xx_hal_can.c **** 
 1558              		.loc 1 1489 5 is_stmt 1 view .LVU496
 1559              	.LBB6:
 1560              	.LBI6:
 1561              		.file 2 "Drivers/CMSIS/Include/cmsis_gcc.h"
   1:Drivers/CMSIS/Include/cmsis_gcc.h **** /**************************************************************************//**
   2:Drivers/CMSIS/Include/cmsis_gcc.h ****  * @file     cmsis_gcc.h
   3:Drivers/CMSIS/Include/cmsis_gcc.h ****  * @brief    CMSIS compiler GCC header file
   4:Drivers/CMSIS/Include/cmsis_gcc.h ****  * @version  V5.4.1
   5:Drivers/CMSIS/Include/cmsis_gcc.h ****  * @date     27. May 2021
   6:Drivers/CMSIS/Include/cmsis_gcc.h ****  ******************************************************************************/
   7:Drivers/CMSIS/Include/cmsis_gcc.h **** /*
   8:Drivers/CMSIS/Include/cmsis_gcc.h ****  * Copyright (c) 2009-2021 Arm Limited. All rights reserved.
   9:Drivers/CMSIS/Include/cmsis_gcc.h ****  *
  10:Drivers/CMSIS/Include/cmsis_gcc.h ****  * SPDX-License-Identifier: Apache-2.0
  11:Drivers/CMSIS/Include/cmsis_gcc.h ****  *
  12:Drivers/CMSIS/Include/cmsis_gcc.h ****  * Licensed under the Apache License, Version 2.0 (the License); you may
  13:Drivers/CMSIS/Include/cmsis_gcc.h ****  * not use this file except in compliance with the License.
  14:Drivers/CMSIS/Include/cmsis_gcc.h ****  * You may obtain a copy of the License at
  15:Drivers/CMSIS/Include/cmsis_gcc.h ****  *
  16:Drivers/CMSIS/Include/cmsis_gcc.h ****  * www.apache.org/licenses/LICENSE-2.0
  17:Drivers/CMSIS/Include/cmsis_gcc.h ****  *
  18:Drivers/CMSIS/Include/cmsis_gcc.h ****  * Unless required by applicable law or agreed to in writing, software
  19:Drivers/CMSIS/Include/cmsis_gcc.h ****  * distributed under the License is distributed on an AS IS BASIS, WITHOUT
  20:Drivers/CMSIS/Include/cmsis_gcc.h ****  * WARRANTIES OR CONDITIONS OF ANY KIND, either express or implied.
  21:Drivers/CMSIS/Include/cmsis_gcc.h ****  * See the License for the specific language governing permissions and
  22:Drivers/CMSIS/Include/cmsis_gcc.h ****  * limitations under the License.
  23:Drivers/CMSIS/Include/cmsis_gcc.h ****  */
  24:Drivers/CMSIS/Include/cmsis_gcc.h **** 
  25:Drivers/CMSIS/Include/cmsis_gcc.h **** #ifndef __CMSIS_GCC_H
  26:Drivers/CMSIS/Include/cmsis_gcc.h **** #define __CMSIS_GCC_H
  27:Drivers/CMSIS/Include/cmsis_gcc.h **** 
  28:Drivers/CMSIS/Include/cmsis_gcc.h **** /* ignore some GCC warnings */
  29:Drivers/CMSIS/Include/cmsis_gcc.h **** #pragma GCC diagnostic push
  30:Drivers/CMSIS/Include/cmsis_gcc.h **** #pragma GCC diagnostic ignored "-Wsign-conversion"
  31:Drivers/CMSIS/Include/cmsis_gcc.h **** #pragma GCC diagnostic ignored "-Wconversion"
  32:Drivers/CMSIS/Include/cmsis_gcc.h **** #pragma GCC diagnostic ignored "-Wunused-parameter"
  33:Drivers/CMSIS/Include/cmsis_gcc.h **** 
  34:Drivers/CMSIS/Include/cmsis_gcc.h **** /* Fallback for __has_builtin */
  35:Drivers/CMSIS/Include/cmsis_gcc.h **** #ifndef __has_builtin
  36:Drivers/CMSIS/Include/cmsis_gcc.h ****   #define __has_builtin(x) (0)
  37:Drivers/CMSIS/Include/cmsis_gcc.h **** #endif
  38:Drivers/CMSIS/Include/cmsis_gcc.h **** 
  39:Drivers/CMSIS/Include/cmsis_gcc.h **** /* CMSIS compiler specific defines */
  40:Drivers/CMSIS/Include/cmsis_gcc.h **** #ifndef   __ASM
  41:Drivers/CMSIS/Include/cmsis_gcc.h ****   #define __ASM                                  __asm
  42:Drivers/CMSIS/Include/cmsis_gcc.h **** #endif
  43:Drivers/CMSIS/Include/cmsis_gcc.h **** #ifndef   __INLINE
  44:Drivers/CMSIS/Include/cmsis_gcc.h ****   #define __INLINE                               inline
  45:Drivers/CMSIS/Include/cmsis_gcc.h **** #endif
ARM GAS  /tmp/cc6hBWA9.s 			page 60


  46:Drivers/CMSIS/Include/cmsis_gcc.h **** #ifndef   __STATIC_INLINE
  47:Drivers/CMSIS/Include/cmsis_gcc.h ****   #define __STATIC_INLINE                        static inline
  48:Drivers/CMSIS/Include/cmsis_gcc.h **** #endif
  49:Drivers/CMSIS/Include/cmsis_gcc.h **** #ifndef   __STATIC_FORCEINLINE
  50:Drivers/CMSIS/Include/cmsis_gcc.h ****   #define __STATIC_FORCEINLINE                   __attribute__((always_inline)) static inline
  51:Drivers/CMSIS/Include/cmsis_gcc.h **** #endif
  52:Drivers/CMSIS/Include/cmsis_gcc.h **** #ifndef   __NO_RETURN
  53:Drivers/CMSIS/Include/cmsis_gcc.h ****   #define __NO_RETURN                            __attribute__((__noreturn__))
  54:Drivers/CMSIS/Include/cmsis_gcc.h **** #endif
  55:Drivers/CMSIS/Include/cmsis_gcc.h **** #ifndef   __USED
  56:Drivers/CMSIS/Include/cmsis_gcc.h ****   #define __USED                                 __attribute__((used))
  57:Drivers/CMSIS/Include/cmsis_gcc.h **** #endif
  58:Drivers/CMSIS/Include/cmsis_gcc.h **** #ifndef   __WEAK
  59:Drivers/CMSIS/Include/cmsis_gcc.h ****   #define __WEAK                                 __attribute__((weak))
  60:Drivers/CMSIS/Include/cmsis_gcc.h **** #endif
  61:Drivers/CMSIS/Include/cmsis_gcc.h **** #ifndef   __PACKED
  62:Drivers/CMSIS/Include/cmsis_gcc.h ****   #define __PACKED                               __attribute__((packed, aligned(1)))
  63:Drivers/CMSIS/Include/cmsis_gcc.h **** #endif
  64:Drivers/CMSIS/Include/cmsis_gcc.h **** #ifndef   __PACKED_STRUCT
  65:Drivers/CMSIS/Include/cmsis_gcc.h ****   #define __PACKED_STRUCT                        struct __attribute__((packed, aligned(1)))
  66:Drivers/CMSIS/Include/cmsis_gcc.h **** #endif
  67:Drivers/CMSIS/Include/cmsis_gcc.h **** #ifndef   __PACKED_UNION
  68:Drivers/CMSIS/Include/cmsis_gcc.h ****   #define __PACKED_UNION                         union __attribute__((packed, aligned(1)))
  69:Drivers/CMSIS/Include/cmsis_gcc.h **** #endif
  70:Drivers/CMSIS/Include/cmsis_gcc.h **** #ifndef   __UNALIGNED_UINT32        /* deprecated */
  71:Drivers/CMSIS/Include/cmsis_gcc.h ****   #pragma GCC diagnostic push
  72:Drivers/CMSIS/Include/cmsis_gcc.h ****   #pragma GCC diagnostic ignored "-Wpacked"
  73:Drivers/CMSIS/Include/cmsis_gcc.h ****   #pragma GCC diagnostic ignored "-Wattributes"
  74:Drivers/CMSIS/Include/cmsis_gcc.h ****   struct __attribute__((packed)) T_UINT32 { uint32_t v; };
  75:Drivers/CMSIS/Include/cmsis_gcc.h ****   #pragma GCC diagnostic pop
  76:Drivers/CMSIS/Include/cmsis_gcc.h ****   #define __UNALIGNED_UINT32(x)                  (((struct T_UINT32 *)(x))->v)
  77:Drivers/CMSIS/Include/cmsis_gcc.h **** #endif
  78:Drivers/CMSIS/Include/cmsis_gcc.h **** #ifndef   __UNALIGNED_UINT16_WRITE
  79:Drivers/CMSIS/Include/cmsis_gcc.h ****   #pragma GCC diagnostic push
  80:Drivers/CMSIS/Include/cmsis_gcc.h ****   #pragma GCC diagnostic ignored "-Wpacked"
  81:Drivers/CMSIS/Include/cmsis_gcc.h ****   #pragma GCC diagnostic ignored "-Wattributes"
  82:Drivers/CMSIS/Include/cmsis_gcc.h ****   __PACKED_STRUCT T_UINT16_WRITE { uint16_t v; };
  83:Drivers/CMSIS/Include/cmsis_gcc.h ****   #pragma GCC diagnostic pop
  84:Drivers/CMSIS/Include/cmsis_gcc.h ****   #define __UNALIGNED_UINT16_WRITE(addr, val)    (void)((((struct T_UINT16_WRITE *)(void *)(addr))-
  85:Drivers/CMSIS/Include/cmsis_gcc.h **** #endif
  86:Drivers/CMSIS/Include/cmsis_gcc.h **** #ifndef   __UNALIGNED_UINT16_READ
  87:Drivers/CMSIS/Include/cmsis_gcc.h ****   #pragma GCC diagnostic push
  88:Drivers/CMSIS/Include/cmsis_gcc.h ****   #pragma GCC diagnostic ignored "-Wpacked"
  89:Drivers/CMSIS/Include/cmsis_gcc.h ****   #pragma GCC diagnostic ignored "-Wattributes"
  90:Drivers/CMSIS/Include/cmsis_gcc.h ****   __PACKED_STRUCT T_UINT16_READ { uint16_t v; };
  91:Drivers/CMSIS/Include/cmsis_gcc.h ****   #pragma GCC diagnostic pop
  92:Drivers/CMSIS/Include/cmsis_gcc.h ****   #define __UNALIGNED_UINT16_READ(addr)          (((const struct T_UINT16_READ *)(const void *)(add
  93:Drivers/CMSIS/Include/cmsis_gcc.h **** #endif
  94:Drivers/CMSIS/Include/cmsis_gcc.h **** #ifndef   __UNALIGNED_UINT32_WRITE
  95:Drivers/CMSIS/Include/cmsis_gcc.h ****   #pragma GCC diagnostic push
  96:Drivers/CMSIS/Include/cmsis_gcc.h ****   #pragma GCC diagnostic ignored "-Wpacked"
  97:Drivers/CMSIS/Include/cmsis_gcc.h ****   #pragma GCC diagnostic ignored "-Wattributes"
  98:Drivers/CMSIS/Include/cmsis_gcc.h ****   __PACKED_STRUCT T_UINT32_WRITE { uint32_t v; };
  99:Drivers/CMSIS/Include/cmsis_gcc.h ****   #pragma GCC diagnostic pop
 100:Drivers/CMSIS/Include/cmsis_gcc.h ****   #define __UNALIGNED_UINT32_WRITE(addr, val)    (void)((((struct T_UINT32_WRITE *)(void *)(addr))-
 101:Drivers/CMSIS/Include/cmsis_gcc.h **** #endif
 102:Drivers/CMSIS/Include/cmsis_gcc.h **** #ifndef   __UNALIGNED_UINT32_READ
ARM GAS  /tmp/cc6hBWA9.s 			page 61


 103:Drivers/CMSIS/Include/cmsis_gcc.h ****   #pragma GCC diagnostic push
 104:Drivers/CMSIS/Include/cmsis_gcc.h ****   #pragma GCC diagnostic ignored "-Wpacked"
 105:Drivers/CMSIS/Include/cmsis_gcc.h ****   #pragma GCC diagnostic ignored "-Wattributes"
 106:Drivers/CMSIS/Include/cmsis_gcc.h ****   __PACKED_STRUCT T_UINT32_READ { uint32_t v; };
 107:Drivers/CMSIS/Include/cmsis_gcc.h ****   #pragma GCC diagnostic pop
 108:Drivers/CMSIS/Include/cmsis_gcc.h ****   #define __UNALIGNED_UINT32_READ(addr)          (((const struct T_UINT32_READ *)(const void *)(add
 109:Drivers/CMSIS/Include/cmsis_gcc.h **** #endif
 110:Drivers/CMSIS/Include/cmsis_gcc.h **** #ifndef   __ALIGNED
 111:Drivers/CMSIS/Include/cmsis_gcc.h ****   #define __ALIGNED(x)                           __attribute__((aligned(x)))
 112:Drivers/CMSIS/Include/cmsis_gcc.h **** #endif
 113:Drivers/CMSIS/Include/cmsis_gcc.h **** #ifndef   __RESTRICT
 114:Drivers/CMSIS/Include/cmsis_gcc.h ****   #define __RESTRICT                             __restrict
 115:Drivers/CMSIS/Include/cmsis_gcc.h **** #endif
 116:Drivers/CMSIS/Include/cmsis_gcc.h **** #ifndef   __COMPILER_BARRIER
 117:Drivers/CMSIS/Include/cmsis_gcc.h ****   #define __COMPILER_BARRIER()                   __ASM volatile("":::"memory")
 118:Drivers/CMSIS/Include/cmsis_gcc.h **** #endif
 119:Drivers/CMSIS/Include/cmsis_gcc.h **** 
 120:Drivers/CMSIS/Include/cmsis_gcc.h **** /* #########################  Startup and Lowlevel Init  ######################## */
 121:Drivers/CMSIS/Include/cmsis_gcc.h **** 
 122:Drivers/CMSIS/Include/cmsis_gcc.h **** #ifndef __PROGRAM_START
 123:Drivers/CMSIS/Include/cmsis_gcc.h **** 
 124:Drivers/CMSIS/Include/cmsis_gcc.h **** /**
 125:Drivers/CMSIS/Include/cmsis_gcc.h ****   \brief   Initializes data and bss sections
 126:Drivers/CMSIS/Include/cmsis_gcc.h ****   \details This default implementations initialized all data and additional bss
 127:Drivers/CMSIS/Include/cmsis_gcc.h ****            sections relying on .copy.table and .zero.table specified properly
 128:Drivers/CMSIS/Include/cmsis_gcc.h ****            in the used linker script.
 129:Drivers/CMSIS/Include/cmsis_gcc.h **** 
 130:Drivers/CMSIS/Include/cmsis_gcc.h ****  */
 131:Drivers/CMSIS/Include/cmsis_gcc.h **** __STATIC_FORCEINLINE __NO_RETURN void __cmsis_start(void)
 132:Drivers/CMSIS/Include/cmsis_gcc.h **** {
 133:Drivers/CMSIS/Include/cmsis_gcc.h ****   extern void _start(void) __NO_RETURN;
 134:Drivers/CMSIS/Include/cmsis_gcc.h **** 
 135:Drivers/CMSIS/Include/cmsis_gcc.h ****   typedef struct {
 136:Drivers/CMSIS/Include/cmsis_gcc.h ****     uint32_t const* src;
 137:Drivers/CMSIS/Include/cmsis_gcc.h ****     uint32_t* dest;
 138:Drivers/CMSIS/Include/cmsis_gcc.h ****     uint32_t  wlen;
 139:Drivers/CMSIS/Include/cmsis_gcc.h ****   } __copy_table_t;
 140:Drivers/CMSIS/Include/cmsis_gcc.h **** 
 141:Drivers/CMSIS/Include/cmsis_gcc.h ****   typedef struct {
 142:Drivers/CMSIS/Include/cmsis_gcc.h ****     uint32_t* dest;
 143:Drivers/CMSIS/Include/cmsis_gcc.h ****     uint32_t  wlen;
 144:Drivers/CMSIS/Include/cmsis_gcc.h ****   } __zero_table_t;
 145:Drivers/CMSIS/Include/cmsis_gcc.h **** 
 146:Drivers/CMSIS/Include/cmsis_gcc.h ****   extern const __copy_table_t __copy_table_start__;
 147:Drivers/CMSIS/Include/cmsis_gcc.h ****   extern const __copy_table_t __copy_table_end__;
 148:Drivers/CMSIS/Include/cmsis_gcc.h ****   extern const __zero_table_t __zero_table_start__;
 149:Drivers/CMSIS/Include/cmsis_gcc.h ****   extern const __zero_table_t __zero_table_end__;
 150:Drivers/CMSIS/Include/cmsis_gcc.h **** 
 151:Drivers/CMSIS/Include/cmsis_gcc.h ****   for (__copy_table_t const* pTable = &__copy_table_start__; pTable < &__copy_table_end__; ++pTable
 152:Drivers/CMSIS/Include/cmsis_gcc.h ****     for(uint32_t i=0u; i<pTable->wlen; ++i) {
 153:Drivers/CMSIS/Include/cmsis_gcc.h ****       pTable->dest[i] = pTable->src[i];
 154:Drivers/CMSIS/Include/cmsis_gcc.h ****     }
 155:Drivers/CMSIS/Include/cmsis_gcc.h ****   }
 156:Drivers/CMSIS/Include/cmsis_gcc.h **** 
 157:Drivers/CMSIS/Include/cmsis_gcc.h ****   for (__zero_table_t const* pTable = &__zero_table_start__; pTable < &__zero_table_end__; ++pTable
 158:Drivers/CMSIS/Include/cmsis_gcc.h ****     for(uint32_t i=0u; i<pTable->wlen; ++i) {
 159:Drivers/CMSIS/Include/cmsis_gcc.h ****       pTable->dest[i] = 0u;
ARM GAS  /tmp/cc6hBWA9.s 			page 62


 160:Drivers/CMSIS/Include/cmsis_gcc.h ****     }
 161:Drivers/CMSIS/Include/cmsis_gcc.h ****   }
 162:Drivers/CMSIS/Include/cmsis_gcc.h **** 
 163:Drivers/CMSIS/Include/cmsis_gcc.h ****   _start();
 164:Drivers/CMSIS/Include/cmsis_gcc.h **** }
 165:Drivers/CMSIS/Include/cmsis_gcc.h **** 
 166:Drivers/CMSIS/Include/cmsis_gcc.h **** #define __PROGRAM_START           __cmsis_start
 167:Drivers/CMSIS/Include/cmsis_gcc.h **** #endif
 168:Drivers/CMSIS/Include/cmsis_gcc.h **** 
 169:Drivers/CMSIS/Include/cmsis_gcc.h **** #ifndef __INITIAL_SP
 170:Drivers/CMSIS/Include/cmsis_gcc.h **** #define __INITIAL_SP              __StackTop
 171:Drivers/CMSIS/Include/cmsis_gcc.h **** #endif
 172:Drivers/CMSIS/Include/cmsis_gcc.h **** 
 173:Drivers/CMSIS/Include/cmsis_gcc.h **** #ifndef __STACK_LIMIT
 174:Drivers/CMSIS/Include/cmsis_gcc.h **** #define __STACK_LIMIT             __StackLimit
 175:Drivers/CMSIS/Include/cmsis_gcc.h **** #endif
 176:Drivers/CMSIS/Include/cmsis_gcc.h **** 
 177:Drivers/CMSIS/Include/cmsis_gcc.h **** #ifndef __VECTOR_TABLE
 178:Drivers/CMSIS/Include/cmsis_gcc.h **** #define __VECTOR_TABLE            __Vectors
 179:Drivers/CMSIS/Include/cmsis_gcc.h **** #endif
 180:Drivers/CMSIS/Include/cmsis_gcc.h **** 
 181:Drivers/CMSIS/Include/cmsis_gcc.h **** #ifndef __VECTOR_TABLE_ATTRIBUTE
 182:Drivers/CMSIS/Include/cmsis_gcc.h **** #define __VECTOR_TABLE_ATTRIBUTE  __attribute__((used, section(".vectors")))
 183:Drivers/CMSIS/Include/cmsis_gcc.h **** #endif
 184:Drivers/CMSIS/Include/cmsis_gcc.h **** 
 185:Drivers/CMSIS/Include/cmsis_gcc.h **** #if defined (__ARM_FEATURE_CMSE) && (__ARM_FEATURE_CMSE == 3U)
 186:Drivers/CMSIS/Include/cmsis_gcc.h **** #ifndef __STACK_SEAL
 187:Drivers/CMSIS/Include/cmsis_gcc.h **** #define __STACK_SEAL              __StackSeal
 188:Drivers/CMSIS/Include/cmsis_gcc.h **** #endif
 189:Drivers/CMSIS/Include/cmsis_gcc.h **** 
 190:Drivers/CMSIS/Include/cmsis_gcc.h **** #ifndef __TZ_STACK_SEAL_SIZE
 191:Drivers/CMSIS/Include/cmsis_gcc.h **** #define __TZ_STACK_SEAL_SIZE      8U
 192:Drivers/CMSIS/Include/cmsis_gcc.h **** #endif
 193:Drivers/CMSIS/Include/cmsis_gcc.h **** 
 194:Drivers/CMSIS/Include/cmsis_gcc.h **** #ifndef __TZ_STACK_SEAL_VALUE
 195:Drivers/CMSIS/Include/cmsis_gcc.h **** #define __TZ_STACK_SEAL_VALUE     0xFEF5EDA5FEF5EDA5ULL
 196:Drivers/CMSIS/Include/cmsis_gcc.h **** #endif
 197:Drivers/CMSIS/Include/cmsis_gcc.h **** 
 198:Drivers/CMSIS/Include/cmsis_gcc.h **** 
 199:Drivers/CMSIS/Include/cmsis_gcc.h **** __STATIC_FORCEINLINE void __TZ_set_STACKSEAL_S (uint32_t* stackTop) {
 200:Drivers/CMSIS/Include/cmsis_gcc.h ****   *((uint64_t *)stackTop) = __TZ_STACK_SEAL_VALUE;
 201:Drivers/CMSIS/Include/cmsis_gcc.h **** }
 202:Drivers/CMSIS/Include/cmsis_gcc.h **** #endif
 203:Drivers/CMSIS/Include/cmsis_gcc.h **** 
 204:Drivers/CMSIS/Include/cmsis_gcc.h **** 
 205:Drivers/CMSIS/Include/cmsis_gcc.h **** /* ##########################  Core Instruction Access  ######################### */
 206:Drivers/CMSIS/Include/cmsis_gcc.h **** /** \defgroup CMSIS_Core_InstructionInterface CMSIS Core Instruction Interface
 207:Drivers/CMSIS/Include/cmsis_gcc.h ****   Access to dedicated instructions
 208:Drivers/CMSIS/Include/cmsis_gcc.h ****   @{
 209:Drivers/CMSIS/Include/cmsis_gcc.h **** */
 210:Drivers/CMSIS/Include/cmsis_gcc.h **** 
 211:Drivers/CMSIS/Include/cmsis_gcc.h **** /* Define macros for porting to both thumb1 and thumb2.
